
main.elf:     file format elf32-littlearm

Sections:
Idx Name          Size      VMA       LMA       File off  Algn
  0 .boot2        00000100  10000000  10000000  00010000  2**0
                  CONTENTS, ALLOC, LOAD, READONLY, DATA
  1 .text         000058e8  10000100  10000100  00010100  2**3
                  CONTENTS, ALLOC, LOAD, READONLY, CODE
  2 .rodata       000002ec  100059e8  100059e8  000159e8  2**3
                  CONTENTS, ALLOC, LOAD, READONLY, DATA
  3 .binary_info  0000001c  10005cd4  10005cd4  00015cd4  2**2
                  CONTENTS, ALLOC, LOAD, DATA
  4 .ram_vector_table 000000c0  20000000  20000000  00020b4c  2**2
                  CONTENTS
  5 .data         00000a8c  200000c0  10005cf0  000200c0  2**4
                  CONTENTS, ALLOC, LOAD, CODE
  6 .uninitialized_data 00000000  20000b4c  20000b4c  00020c0c  2**0
                  CONTENTS
  7 .scratch_x    00000000  20040000  20040000  00020c0c  2**0
                  CONTENTS
  8 .scratch_y    00000000  20041000  20041000  00020c0c  2**0
                  CONTENTS
  9 .bss          00000dbc  20000b50  20000b50  00020b50  2**3
                  ALLOC
 10 .heap         00000800  2000190c  2000190c  00020c0c  2**2
                  CONTENTS, READONLY
 11 .stack_dummy  00000800  20041000  20041000  00021420  2**5
                  CONTENTS, READONLY
 12 .ARM.attributes 00000028  00000000  00000000  00021c20  2**0
                  CONTENTS, READONLY
 13 .comment      00000031  00000000  00000000  00021c48  2**0
                  CONTENTS, READONLY
 14 .debug_line   00002d7a  00000000  00000000  00021c79  2**0
                  CONTENTS, READONLY, DEBUGGING
 15 .debug_info   00012d76  00000000  00000000  000249f3  2**0
                  CONTENTS, READONLY, DEBUGGING
 16 .debug_abbrev 00003ce2  00000000  00000000  00037769  2**0
                  CONTENTS, READONLY, DEBUGGING
 17 .debug_aranges 00000398  00000000  00000000  0003b450  2**3
                  CONTENTS, READONLY, DEBUGGING
 18 .debug_loc    00002a5d  00000000  00000000  0003b7e8  2**0
                  CONTENTS, READONLY, DEBUGGING
 19 .debug_str    000012ab  00000000  00000000  0003e245  2**0
                  CONTENTS, READONLY, DEBUGGING
 20 .debug_frame  00000718  00000000  00000000  0003f4f0  2**2
                  CONTENTS, READONLY, DEBUGGING
 21 .debug_ranges 000001f0  00000000  00000000  0003fc08  2**0
                  CONTENTS, READONLY, DEBUGGING
 22 .stab         0000006c  00000000  00000000  0003fdf8  2**2
                  CONTENTS, READONLY, DEBUGGING
 23 .stabstr      000000e3  00000000  00000000  0003fe64  2**0
                  CONTENTS, READONLY, DEBUGGING

main.elf:     file format elf32-littlearm


Disassembly of section .text:

10000100 <__reset_start>:
10000100:	4827      	ldr	r0, [pc, #156]	; (100001a0 <__get_current_exception+0xa>)
10000102:	e000      	b.n	10000106 <__vector_entry>

10000104 <_entry_point>:
10000104:	2000      	movs	r0, #0

10000106 <__vector_entry>:
10000106:	4927      	ldr	r1, [pc, #156]	; (100001a4 <__get_current_exception+0xe>)
10000108:	6088      	str	r0, [r1, #8]
1000010a:	c806      	ldmia	r0!, {r1, r2}
1000010c:	f381 8808 	msr	MSP, r1
10000110:	4710      	bx	r2

10000112 <_reset_handler>:
10000112:	4825      	ldr	r0, [pc, #148]	; (100001a8 <__get_current_exception+0x12>)
10000114:	6800      	ldr	r0, [r0, #0]
10000116:	2800      	cmp	r0, #0
10000118:	d139      	bne.n	1000018e <wait_for_vector>
1000011a:	a412      	add	r4, pc, #72	; (adr r4, 10000164 <data_cpy_table>)
1000011c:	cc0e      	ldmia	r4!, {r1, r2, r3}
1000011e:	2900      	cmp	r1, #0
10000120:	d002      	beq.n	10000128 <_reset_handler+0x16>
10000122:	f000 f812 	bl	1000014a <data_cpy>
10000126:	e7f9      	b.n	1000011c <_reset_handler+0xa>
10000128:	4920      	ldr	r1, [pc, #128]	; (100001ac <__get_current_exception+0x16>)
1000012a:	4a21      	ldr	r2, [pc, #132]	; (100001b0 <__get_current_exception+0x1a>)
1000012c:	2000      	movs	r0, #0
1000012e:	e000      	b.n	10000132 <bss_fill_test>

10000130 <bss_fill_loop>:
10000130:	c101      	stmia	r1!, {r0}

10000132 <bss_fill_test>:
10000132:	4291      	cmp	r1, r2
10000134:	d1fc      	bne.n	10000130 <bss_fill_loop>

10000136 <platform_entry>:
10000136:	491f      	ldr	r1, [pc, #124]	; (100001b4 <__get_current_exception+0x1e>)
10000138:	4788      	blx	r1
1000013a:	491f      	ldr	r1, [pc, #124]	; (100001b8 <__get_current_exception+0x22>)
1000013c:	4788      	blx	r1
1000013e:	491f      	ldr	r1, [pc, #124]	; (100001bc <__get_current_exception+0x26>)
10000140:	4788      	blx	r1
10000142:	be00      	bkpt	0x0000
10000144:	e7fd      	b.n	10000142 <platform_entry+0xc>

10000146 <data_cpy_loop>:
10000146:	c901      	ldmia	r1!, {r0}
10000148:	c201      	stmia	r2!, {r0}

1000014a <data_cpy>:
1000014a:	429a      	cmp	r2, r3
1000014c:	d3fb      	bcc.n	10000146 <data_cpy_loop>
1000014e:	4770      	bx	lr

10000150 <binary_info_header>:
10000150:	7188ebf2 	.word	0x7188ebf2
10000154:	10005cd4 	.word	0x10005cd4
10000158:	10005cf0 	.word	0x10005cf0
1000015c:	10000164 	.word	0x10000164
10000160:	e71aa390 	.word	0xe71aa390

10000164 <data_cpy_table>:
10000164:	10005cf0 	.word	0x10005cf0
10000168:	200000c0 	.word	0x200000c0
1000016c:	20000b4c 	.word	0x20000b4c
10000170:	1000677c 	.word	0x1000677c
10000174:	20040000 	.word	0x20040000
10000178:	20040000 	.word	0x20040000
1000017c:	1000677c 	.word	0x1000677c
10000180:	20041000 	.word	0x20041000
10000184:	20041000 	.word	0x20041000
10000188:	00000000 	.word	0x00000000
1000018c:	4770      	bx	lr

1000018e <wait_for_vector>:
1000018e:	480c      	ldr	r0, [pc, #48]	; (100001c0 <__get_current_exception+0x2a>)
10000190:	f001 fece 	bl	10001f30 <rom_func_lookup>
10000194:	4700      	bx	r0

10000196 <__get_current_exception>:
10000196:	f3ef 8005 	mrs	r0, IPSR
1000019a:	b2c0      	uxtb	r0, r0
1000019c:	4770      	bx	lr
1000019e:	0000      	.short	0x0000
100001a0:	10000200 	.word	0x10000200
100001a4:	e000ed00 	.word	0xe000ed00
100001a8:	d0000000 	.word	0xd0000000
100001ac:	20000b50 	.word	0x20000b50
100001b0:	2000190c 	.word	0x2000190c
100001b4:	100016a5 	.word	0x100016a5
100001b8:	1000038d 	.word	0x1000038d
100001bc:	100017c9 	.word	0x100017c9
100001c0:	00005657 	.word	0x00005657

100001c4 <__bi_46>:
100001c4:	50520006 5360b3ab 10005a84              ..RP..`S.Z..

100001d0 <__bi_34>:
100001d0:	50520006 02031c86 10005a94              ..RP.....Z..

100001dc <__bi_26>:
100001dc:	50520006 9da22254 10005a9c              ..RPT"...Z..

100001e8 <__bi_18>:
100001e8:	50520005 68f465de 1000677c 00000000     ..RP.e.h|g......
	...

10000200 <__reset_end>:
10000200:	20042000 	.word	0x20042000
10000204:	10000113 	.word	0x10000113
10000208:	100002c3 	.word	0x100002c3
1000020c:	100002c5 	.word	0x100002c5
10000210:	100002c1 	.word	0x100002c1
10000214:	100002c1 	.word	0x100002c1
10000218:	100002c1 	.word	0x100002c1
1000021c:	100002c1 	.word	0x100002c1
10000220:	100002c1 	.word	0x100002c1
10000224:	100002c1 	.word	0x100002c1
10000228:	100002c1 	.word	0x100002c1
1000022c:	100002c7 	.word	0x100002c7
10000230:	100002c1 	.word	0x100002c1
10000234:	100002c1 	.word	0x100002c1
10000238:	100002c9 	.word	0x100002c9
1000023c:	100002cb 	.word	0x100002cb
10000240:	100002cd 	.word	0x100002cd
10000244:	100002cd 	.word	0x100002cd
10000248:	100002cd 	.word	0x100002cd
1000024c:	100002cd 	.word	0x100002cd
10000250:	100002cd 	.word	0x100002cd
10000254:	100002cd 	.word	0x100002cd
10000258:	100002cd 	.word	0x100002cd
1000025c:	100002cd 	.word	0x100002cd
10000260:	100002cd 	.word	0x100002cd
10000264:	100002cd 	.word	0x100002cd
10000268:	100002cd 	.word	0x100002cd
1000026c:	100002cd 	.word	0x100002cd
10000270:	100002cd 	.word	0x100002cd
10000274:	100002cd 	.word	0x100002cd
10000278:	100002cd 	.word	0x100002cd
1000027c:	100002cd 	.word	0x100002cd
10000280:	100002cd 	.word	0x100002cd
10000284:	100002cd 	.word	0x100002cd
10000288:	100002cd 	.word	0x100002cd
1000028c:	100002cd 	.word	0x100002cd
10000290:	100002cd 	.word	0x100002cd
10000294:	100002cd 	.word	0x100002cd
10000298:	100002cd 	.word	0x100002cd
1000029c:	100002cd 	.word	0x100002cd
100002a0:	100002cd 	.word	0x100002cd
100002a4:	100002cd 	.word	0x100002cd
100002a8:	100002cd 	.word	0x100002cd
100002ac:	100002cd 	.word	0x100002cd
100002b0:	100002cd 	.word	0x100002cd
100002b4:	100002cd 	.word	0x100002cd
100002b8:	100002cd 	.word	0x100002cd
100002bc:	100002cd 	.word	0x100002cd

100002c0 <isr_invalid>:
100002c0:	be00      	bkpt	0x0000

100002c2 <isr_nmi>:
100002c2:	be00      	bkpt	0x0000

100002c4 <isr_hardfault>:
100002c4:	be00      	bkpt	0x0000

100002c6 <isr_svcall>:
100002c6:	be00      	bkpt	0x0000

100002c8 <isr_pendsv>:
100002c8:	be00      	bkpt	0x0000

100002ca <isr_systick>:
100002ca:	be00      	bkpt	0x0000

100002cc <__unhandled_user_irq>:
100002cc:	f7ff ff63 	bl	10000196 <__get_current_exception>
100002d0:	3810      	subs	r0, #16

100002d2 <unhandled_user_irq_num_in_r0>:
100002d2:	be00      	bkpt	0x0000

100002d4 <_init>:
100002d4:	b5f8      	push	{r3, r4, r5, r6, r7, lr}
100002d6:	46c0      	nop			; (mov r8, r8)

100002d8 <deregister_tm_clones>:
100002d8:	4b05      	ldr	r3, [pc, #20]	; (100002f0 <deregister_tm_clones+0x18>)
100002da:	4806      	ldr	r0, [pc, #24]	; (100002f4 <deregister_tm_clones+0x1c>)
100002dc:	3303      	adds	r3, #3
100002de:	b510      	push	{r4, lr}
100002e0:	1a1b      	subs	r3, r3, r0
100002e2:	2b06      	cmp	r3, #6
100002e4:	d903      	bls.n	100002ee <deregister_tm_clones+0x16>
100002e6:	4b04      	ldr	r3, [pc, #16]	; (100002f8 <deregister_tm_clones+0x20>)
100002e8:	2b00      	cmp	r3, #0
100002ea:	d000      	beq.n	100002ee <deregister_tm_clones+0x16>
100002ec:	4798      	blx	r3
100002ee:	bd10      	pop	{r4, pc}
100002f0:	20000b4c 	.word	0x20000b4c
100002f4:	20000b4c 	.word	0x20000b4c
100002f8:	00000000 	.word	0x00000000

100002fc <register_tm_clones>:
100002fc:	4806      	ldr	r0, [pc, #24]	; (10000318 <register_tm_clones+0x1c>)
100002fe:	4907      	ldr	r1, [pc, #28]	; (1000031c <register_tm_clones+0x20>)
10000300:	b510      	push	{r4, lr}
10000302:	1a09      	subs	r1, r1, r0
10000304:	1089      	asrs	r1, r1, #2
10000306:	0fcb      	lsrs	r3, r1, #31
10000308:	1859      	adds	r1, r3, r1
1000030a:	1049      	asrs	r1, r1, #1
1000030c:	d003      	beq.n	10000316 <register_tm_clones+0x1a>
1000030e:	4b04      	ldr	r3, [pc, #16]	; (10000320 <register_tm_clones+0x24>)
10000310:	2b00      	cmp	r3, #0
10000312:	d000      	beq.n	10000316 <register_tm_clones+0x1a>
10000314:	4798      	blx	r3
10000316:	bd10      	pop	{r4, pc}
10000318:	20000b4c 	.word	0x20000b4c
1000031c:	20000b4c 	.word	0x20000b4c
10000320:	00000000 	.word	0x00000000

10000324 <__do_global_dtors_aux>:
10000324:	b510      	push	{r4, lr}
10000326:	4c07      	ldr	r4, [pc, #28]	; (10000344 <__do_global_dtors_aux+0x20>)
10000328:	7823      	ldrb	r3, [r4, #0]
1000032a:	2b00      	cmp	r3, #0
1000032c:	d109      	bne.n	10000342 <__do_global_dtors_aux+0x1e>
1000032e:	f7ff ffd3 	bl	100002d8 <deregister_tm_clones>
10000332:	4b05      	ldr	r3, [pc, #20]	; (10000348 <__do_global_dtors_aux+0x24>)
10000334:	2b00      	cmp	r3, #0
10000336:	d002      	beq.n	1000033e <__do_global_dtors_aux+0x1a>
10000338:	4804      	ldr	r0, [pc, #16]	; (1000034c <__do_global_dtors_aux+0x28>)
1000033a:	e000      	b.n	1000033e <__do_global_dtors_aux+0x1a>
1000033c:	bf00      	nop
1000033e:	2301      	movs	r3, #1
10000340:	7023      	strb	r3, [r4, #0]
10000342:	bd10      	pop	{r4, pc}
10000344:	20000b58 	.word	0x20000b58
10000348:	00000000 	.word	0x00000000
1000034c:	100059e8 	.word	0x100059e8

10000350 <frame_dummy>:
10000350:	4b09      	ldr	r3, [pc, #36]	; (10000378 <frame_dummy+0x28>)
10000352:	b510      	push	{r4, lr}
10000354:	2b00      	cmp	r3, #0
10000356:	d003      	beq.n	10000360 <frame_dummy+0x10>
10000358:	4908      	ldr	r1, [pc, #32]	; (1000037c <frame_dummy+0x2c>)
1000035a:	4809      	ldr	r0, [pc, #36]	; (10000380 <frame_dummy+0x30>)
1000035c:	e000      	b.n	10000360 <frame_dummy+0x10>
1000035e:	bf00      	nop
10000360:	4808      	ldr	r0, [pc, #32]	; (10000384 <frame_dummy+0x34>)
10000362:	6803      	ldr	r3, [r0, #0]
10000364:	2b00      	cmp	r3, #0
10000366:	d102      	bne.n	1000036e <frame_dummy+0x1e>
10000368:	f7ff ffc8 	bl	100002fc <register_tm_clones>
1000036c:	bd10      	pop	{r4, pc}
1000036e:	4b06      	ldr	r3, [pc, #24]	; (10000388 <frame_dummy+0x38>)
10000370:	2b00      	cmp	r3, #0
10000372:	d0f9      	beq.n	10000368 <frame_dummy+0x18>
10000374:	4798      	blx	r3
10000376:	e7f7      	b.n	10000368 <frame_dummy+0x18>
10000378:	00000000 	.word	0x00000000
1000037c:	20000b5c 	.word	0x20000b5c
10000380:	100059e8 	.word	0x100059e8
10000384:	20000b4c 	.word	0x20000b4c
10000388:	00000000 	.word	0x00000000

1000038c <main>:
1000038c:	b510      	push	{r4, lr}
1000038e:	f002 f87b 	bl	10002488 <stdio_init_all>
10000392:	4c04      	ldr	r4, [pc, #16]	; (100003a4 <main+0x18>)
10000394:	0020      	movs	r0, r4
10000396:	f001 ff41 	bl	1000221c <__wrap_puts>
1000039a:	20fa      	movs	r0, #250	; 0xfa
1000039c:	0080      	lsls	r0, r0, #2
1000039e:	f000 fc47 	bl	10000c30 <sleep_ms>
100003a2:	e7f7      	b.n	10000394 <main+0x8>
100003a4:	100059e8 	.word	0x100059e8

100003a8 <hw_claim_or_assert>:
100003a8:	b5f8      	push	{r3, r4, r5, r6, r7, lr}
100003aa:	f3ef 8c10 	mrs	ip, PRIMASK
100003ae:	b672      	cpsid	i
100003b0:	4f0d      	ldr	r7, [pc, #52]	; (100003e8 <hw_claim_or_assert+0x40>)
100003b2:	683b      	ldr	r3, [r7, #0]
100003b4:	2b00      	cmp	r3, #0
100003b6:	d0fc      	beq.n	100003b2 <hw_claim_or_assert+0xa>
100003b8:	f3bf 8f5f 	dmb	sy
100003bc:	08cb      	lsrs	r3, r1, #3
100003be:	18c0      	adds	r0, r0, r3
100003c0:	7805      	ldrb	r5, [r0, #0]
100003c2:	2407      	movs	r4, #7
100003c4:	002b      	movs	r3, r5
100003c6:	400c      	ands	r4, r1
100003c8:	40e3      	lsrs	r3, r4
100003ca:	2601      	movs	r6, #1
100003cc:	4033      	ands	r3, r6
100003ce:	d108      	bne.n	100003e2 <hw_claim_or_assert+0x3a>
100003d0:	40a6      	lsls	r6, r4
100003d2:	4335      	orrs	r5, r6
100003d4:	7005      	strb	r5, [r0, #0]
100003d6:	f3bf 8f5f 	dmb	sy
100003da:	603b      	str	r3, [r7, #0]
100003dc:	f38c 8810 	msr	PRIMASK, ip
100003e0:	bdf8      	pop	{r3, r4, r5, r6, r7, pc}
100003e2:	0010      	movs	r0, r2
100003e4:	f001 f9f2 	bl	100017cc <panic>
100003e8:	d000012c 	.word	0xd000012c

100003ec <hw_claim_unused_from_range>:
100003ec:	b5f8      	push	{r3, r4, r5, r6, r7, lr}
100003ee:	4647      	mov	r7, r8
100003f0:	46ce      	mov	lr, r9
100003f2:	4688      	mov	r8, r1
100003f4:	b580      	push	{r7, lr}
100003f6:	f3ef 8c10 	mrs	ip, PRIMASK
100003fa:	b672      	cpsid	i
100003fc:	4d1d      	ldr	r5, [pc, #116]	; (10000474 <hw_claim_unused_from_range+0x88>)
100003fe:	682c      	ldr	r4, [r5, #0]
10000400:	2c00      	cmp	r4, #0
10000402:	d0fc      	beq.n	100003fe <hw_claim_unused_from_range+0x12>
10000404:	f3bf 8f5f 	dmb	sy
10000408:	429a      	cmp	r2, r3
1000040a:	d818      	bhi.n	1000043e <hw_claim_unused_from_range+0x52>
1000040c:	08d4      	lsrs	r4, r2, #3
1000040e:	1904      	adds	r4, r0, r4
10000410:	7826      	ldrb	r6, [r4, #0]
10000412:	2507      	movs	r5, #7
10000414:	0037      	movs	r7, r6
10000416:	4015      	ands	r5, r2
10000418:	40ef      	lsrs	r7, r5
1000041a:	07f9      	lsls	r1, r7, #31
1000041c:	d51e      	bpl.n	1000045c <hw_claim_unused_from_range+0x70>
1000041e:	2107      	movs	r1, #7
10000420:	4689      	mov	r9, r1
10000422:	3906      	subs	r1, #6
10000424:	e008      	b.n	10000438 <hw_claim_unused_from_range+0x4c>
10000426:	08d4      	lsrs	r4, r2, #3
10000428:	1904      	adds	r4, r0, r4
1000042a:	7826      	ldrb	r6, [r4, #0]
1000042c:	464d      	mov	r5, r9
1000042e:	0037      	movs	r7, r6
10000430:	4015      	ands	r5, r2
10000432:	40ef      	lsrs	r7, r5
10000434:	4239      	tst	r1, r7
10000436:	d011      	beq.n	1000045c <hw_claim_unused_from_range+0x70>
10000438:	3201      	adds	r2, #1
1000043a:	4293      	cmp	r3, r2
1000043c:	d2f3      	bcs.n	10000426 <hw_claim_unused_from_range+0x3a>
1000043e:	2001      	movs	r0, #1
10000440:	4240      	negs	r0, r0
10000442:	f3bf 8f5f 	dmb	sy
10000446:	2200      	movs	r2, #0
10000448:	4b0a      	ldr	r3, [pc, #40]	; (10000474 <hw_claim_unused_from_range+0x88>)
1000044a:	601a      	str	r2, [r3, #0]
1000044c:	f38c 8810 	msr	PRIMASK, ip
10000450:	2800      	cmp	r0, #0
10000452:	db09      	blt.n	10000468 <hw_claim_unused_from_range+0x7c>
10000454:	bc0c      	pop	{r2, r3}
10000456:	4690      	mov	r8, r2
10000458:	4699      	mov	r9, r3
1000045a:	bdf8      	pop	{r3, r4, r5, r6, r7, pc}
1000045c:	2301      	movs	r3, #1
1000045e:	40ab      	lsls	r3, r5
10000460:	431e      	orrs	r6, r3
10000462:	7026      	strb	r6, [r4, #0]
10000464:	0010      	movs	r0, r2
10000466:	e7ec      	b.n	10000442 <hw_claim_unused_from_range+0x56>
10000468:	4643      	mov	r3, r8
1000046a:	2b00      	cmp	r3, #0
1000046c:	d0f2      	beq.n	10000454 <hw_claim_unused_from_range+0x68>
1000046e:	9808      	ldr	r0, [sp, #32]
10000470:	f001 f9ac 	bl	100017cc <panic>
10000474:	d000012c 	.word	0xd000012c

10000478 <spin_locks_reset>:
10000478:	2100      	movs	r1, #0
1000047a:	4b04      	ldr	r3, [pc, #16]	; (1000048c <spin_locks_reset+0x14>)
1000047c:	4a04      	ldr	r2, [pc, #16]	; (10000490 <spin_locks_reset+0x18>)
1000047e:	f3bf 8f5f 	dmb	sy
10000482:	c302      	stmia	r3!, {r1}
10000484:	4293      	cmp	r3, r2
10000486:	d1fa      	bne.n	1000047e <spin_locks_reset+0x6>
10000488:	4770      	bx	lr
1000048a:	46c0      	nop			; (mov r8, r8)
1000048c:	d0000100 	.word	0xd0000100
10000490:	d0000180 	.word	0xd0000180

10000494 <next_striped_spin_lock_num>:
10000494:	4a04      	ldr	r2, [pc, #16]	; (100004a8 <next_striped_spin_lock_num+0x14>)
10000496:	7810      	ldrb	r0, [r2, #0]
10000498:	1c43      	adds	r3, r0, #1
1000049a:	b2db      	uxtb	r3, r3
1000049c:	2b17      	cmp	r3, #23
1000049e:	d900      	bls.n	100004a2 <next_striped_spin_lock_num+0xe>
100004a0:	2310      	movs	r3, #16
100004a2:	7013      	strb	r3, [r2, #0]
100004a4:	4770      	bx	lr
100004a6:	46c0      	nop			; (mov r8, r8)
100004a8:	20000240 	.word	0x20000240

100004ac <spin_lock_claim_unused>:
100004ac:	b500      	push	{lr}
100004ae:	4b05      	ldr	r3, [pc, #20]	; (100004c4 <spin_lock_claim_unused+0x18>)
100004b0:	b083      	sub	sp, #12
100004b2:	0001      	movs	r1, r0
100004b4:	9300      	str	r3, [sp, #0]
100004b6:	2218      	movs	r2, #24
100004b8:	231f      	movs	r3, #31
100004ba:	4803      	ldr	r0, [pc, #12]	; (100004c8 <spin_lock_claim_unused+0x1c>)
100004bc:	f7ff ff96 	bl	100003ec <hw_claim_unused_from_range>
100004c0:	b003      	add	sp, #12
100004c2:	bd00      	pop	{pc}
100004c4:	100059f8 	.word	0x100059f8
100004c8:	20000f28 	.word	0x20000f28

100004cc <running_on_fpga>:
100004cc:	4b02      	ldr	r3, [pc, #8]	; (100004d8 <running_on_fpga+0xc>)
100004ce:	6818      	ldr	r0, [r3, #0]
100004d0:	0780      	lsls	r0, r0, #30
100004d2:	0fc0      	lsrs	r0, r0, #31
100004d4:	4770      	bx	lr
100004d6:	46c0      	nop			; (mov r8, r8)
100004d8:	4006c000 	.word	0x4006c000

100004dc <timer_pool_entry_comparator>:
100004dc:	6883      	ldr	r3, [r0, #8]
100004de:	480b      	ldr	r0, [pc, #44]	; (1000050c <timer_pool_entry_comparator+0x30>)
100004e0:	b510      	push	{r4, lr}
100004e2:	4684      	mov	ip, r0
100004e4:	4461      	add	r1, ip
100004e6:	4462      	add	r2, ip
100004e8:	0109      	lsls	r1, r1, #4
100004ea:	0112      	lsls	r2, r2, #4
100004ec:	189a      	adds	r2, r3, r2
100004ee:	1859      	adds	r1, r3, r1
100004f0:	6854      	ldr	r4, [r2, #4]
100004f2:	684b      	ldr	r3, [r1, #4]
100004f4:	2001      	movs	r0, #1
100004f6:	429c      	cmp	r4, r3
100004f8:	d801      	bhi.n	100004fe <timer_pool_entry_comparator+0x22>
100004fa:	d002      	beq.n	10000502 <timer_pool_entry_comparator+0x26>
100004fc:	2000      	movs	r0, #0
100004fe:	b2c0      	uxtb	r0, r0
10000500:	bd10      	pop	{r4, pc}
10000502:	6812      	ldr	r2, [r2, #0]
10000504:	680b      	ldr	r3, [r1, #0]
10000506:	429a      	cmp	r2, r3
10000508:	d8f9      	bhi.n	100004fe <timer_pool_entry_comparator+0x22>
1000050a:	e7f7      	b.n	100004fc <timer_pool_entry_comparator+0x20>
1000050c:	0fffffff 	.word	0x0fffffff

10000510 <sev_callback>:
10000510:	bf40      	sev
10000512:	2000      	movs	r0, #0
10000514:	2100      	movs	r1, #0
10000516:	4770      	bx	lr

10000518 <add_alarm_under_lock>:
10000518:	b5f0      	push	{r4, r5, r6, r7, lr}
1000051a:	4657      	mov	r7, sl
1000051c:	464e      	mov	r6, r9
1000051e:	46de      	mov	lr, fp
10000520:	4645      	mov	r5, r8
10000522:	b5e0      	push	{r5, r6, r7, lr}
10000524:	b083      	sub	sp, #12
10000526:	001f      	movs	r7, r3
10000528:	ab0f      	add	r3, sp, #60	; 0x3c
1000052a:	781b      	ldrb	r3, [r3, #0]
1000052c:	4682      	mov	sl, r0
1000052e:	9301      	str	r3, [sp, #4]
10000530:	9b0e      	ldr	r3, [sp, #56]	; 0x38
10000532:	0016      	movs	r6, r2
10000534:	2b00      	cmp	r3, #0
10000536:	d034      	beq.n	100005a2 <add_alarm_under_lock+0x8a>
10000538:	001c      	movs	r4, r3
1000053a:	6805      	ldr	r5, [r0, #0]
1000053c:	4651      	mov	r1, sl
1000053e:	b2e3      	uxtb	r3, r4
10000540:	469b      	mov	fp, r3
10000542:	23ff      	movs	r3, #255	; 0xff
10000544:	6889      	ldr	r1, [r1, #8]
10000546:	4a43      	ldr	r2, [pc, #268]	; (10000654 <add_alarm_under_lock+0x13c>)
10000548:	468c      	mov	ip, r1
1000054a:	4023      	ands	r3, r4
1000054c:	189a      	adds	r2, r3, r2
1000054e:	990c      	ldr	r1, [sp, #48]	; 0x30
10000550:	0112      	lsls	r2, r2, #4
10000552:	4462      	add	r2, ip
10000554:	6091      	str	r1, [r2, #8]
10000556:	990d      	ldr	r1, [sp, #52]	; 0x34
10000558:	6016      	str	r6, [r2, #0]
1000055a:	6057      	str	r7, [r2, #4]
1000055c:	60d1      	str	r1, [r2, #12]
1000055e:	2180      	movs	r1, #128	; 0x80
10000560:	22d0      	movs	r2, #208	; 0xd0
10000562:	0309      	lsls	r1, r1, #12
10000564:	0612      	lsls	r2, r2, #24
10000566:	6151      	str	r1, [r2, #20]
10000568:	005a      	lsls	r2, r3, #1
1000056a:	18d3      	adds	r3, r2, r3
1000056c:	3b03      	subs	r3, #3
1000056e:	4698      	mov	r8, r3
10000570:	2200      	movs	r2, #0
10000572:	682b      	ldr	r3, [r5, #0]
10000574:	4443      	add	r3, r8
10000576:	709a      	strb	r2, [r3, #2]
10000578:	705a      	strb	r2, [r3, #1]
1000057a:	701a      	strb	r2, [r3, #0]
1000057c:	7b6b      	ldrb	r3, [r5, #13]
1000057e:	4699      	mov	r9, r3
10000580:	2b00      	cmp	r3, #0
10000582:	d020      	beq.n	100005c6 <add_alarm_under_lock+0xae>
10000584:	465b      	mov	r3, fp
10000586:	2b00      	cmp	r3, #0
10000588:	d133      	bne.n	100005f2 <add_alarm_under_lock+0xda>
1000058a:	464b      	mov	r3, r9
1000058c:	736b      	strb	r3, [r5, #13]
1000058e:	45a1      	cmp	r9, r4
10000590:	d01e      	beq.n	100005d0 <add_alarm_under_lock+0xb8>
10000592:	0020      	movs	r0, r4
10000594:	b003      	add	sp, #12
10000596:	bc3c      	pop	{r2, r3, r4, r5}
10000598:	4690      	mov	r8, r2
1000059a:	4699      	mov	r9, r3
1000059c:	46a2      	mov	sl, r4
1000059e:	46ab      	mov	fp, r5
100005a0:	bdf0      	pop	{r4, r5, r6, r7, pc}
100005a2:	6805      	ldr	r5, [r0, #0]
100005a4:	2400      	movs	r4, #0
100005a6:	7bab      	ldrb	r3, [r5, #14]
100005a8:	2b00      	cmp	r3, #0
100005aa:	d0f2      	beq.n	10000592 <add_alarm_under_lock+0x7a>
100005ac:	6829      	ldr	r1, [r5, #0]
100005ae:	005a      	lsls	r2, r3, #1
100005b0:	468c      	mov	ip, r1
100005b2:	18d2      	adds	r2, r2, r3
100005b4:	4462      	add	r2, ip
100005b6:	3a03      	subs	r2, #3
100005b8:	7852      	ldrb	r2, [r2, #1]
100005ba:	73aa      	strb	r2, [r5, #14]
100005bc:	2a00      	cmp	r2, #0
100005be:	d100      	bne.n	100005c2 <add_alarm_under_lock+0xaa>
100005c0:	73ea      	strb	r2, [r5, #15]
100005c2:	001c      	movs	r4, r3
100005c4:	e7ba      	b.n	1000053c <add_alarm_under_lock+0x24>
100005c6:	46d9      	mov	r9, fp
100005c8:	464b      	mov	r3, r9
100005ca:	736b      	strb	r3, [r5, #13]
100005cc:	45a1      	cmp	r9, r4
100005ce:	d1e0      	bne.n	10000592 <add_alarm_under_lock+0x7a>
100005d0:	4653      	mov	r3, sl
100005d2:	0032      	movs	r2, r6
100005d4:	7d18      	ldrb	r0, [r3, #20]
100005d6:	003b      	movs	r3, r7
100005d8:	f000 fcf8 	bl	10000fcc <hardware_alarm_set_target>
100005dc:	1e04      	subs	r4, r0, #0
100005de:	d002      	beq.n	100005e6 <add_alarm_under_lock+0xce>
100005e0:	9b01      	ldr	r3, [sp, #4]
100005e2:	2b00      	cmp	r3, #0
100005e4:	d02e      	beq.n	10000644 <add_alarm_under_lock+0x12c>
100005e6:	9b10      	ldr	r3, [sp, #64]	; 0x40
100005e8:	2b00      	cmp	r3, #0
100005ea:	d031      	beq.n	10000650 <add_alarm_under_lock+0x138>
100005ec:	701c      	strb	r4, [r3, #0]
100005ee:	464c      	mov	r4, r9
100005f0:	e7cf      	b.n	10000592 <add_alarm_under_lock+0x7a>
100005f2:	465a      	mov	r2, fp
100005f4:	4649      	mov	r1, r9
100005f6:	68a8      	ldr	r0, [r5, #8]
100005f8:	686b      	ldr	r3, [r5, #4]
100005fa:	4798      	blx	r3
100005fc:	682a      	ldr	r2, [r5, #0]
100005fe:	2800      	cmp	r0, #0
10000600:	d00d      	beq.n	1000061e <add_alarm_under_lock+0x106>
10000602:	464b      	mov	r3, r9
10000604:	4649      	mov	r1, r9
10000606:	005b      	lsls	r3, r3, #1
10000608:	444b      	add	r3, r9
1000060a:	3b03      	subs	r3, #3
1000060c:	18d3      	adds	r3, r2, r3
1000060e:	4442      	add	r2, r8
10000610:	7091      	strb	r1, [r2, #2]
10000612:	7819      	ldrb	r1, [r3, #0]
10000614:	2900      	cmp	r1, #0
10000616:	d113      	bne.n	10000640 <add_alarm_under_lock+0x128>
10000618:	465a      	mov	r2, fp
1000061a:	701a      	strb	r2, [r3, #0]
1000061c:	e7b5      	b.n	1000058a <add_alarm_under_lock+0x72>
1000061e:	4643      	mov	r3, r8
10000620:	18d1      	adds	r1, r2, r3
10000622:	464b      	mov	r3, r9
10000624:	005b      	lsls	r3, r3, #1
10000626:	444b      	add	r3, r9
10000628:	3b03      	subs	r3, #3
1000062a:	18d3      	adds	r3, r2, r3
1000062c:	465a      	mov	r2, fp
1000062e:	709a      	strb	r2, [r3, #2]
10000630:	780a      	ldrb	r2, [r1, #0]
10000632:	2a00      	cmp	r2, #0
10000634:	d000      	beq.n	10000638 <add_alarm_under_lock+0x120>
10000636:	705a      	strb	r2, [r3, #1]
10000638:	464b      	mov	r3, r9
1000063a:	46d9      	mov	r9, fp
1000063c:	700b      	strb	r3, [r1, #0]
1000063e:	e7a4      	b.n	1000058a <add_alarm_under_lock+0x72>
10000640:	7051      	strb	r1, [r2, #1]
10000642:	e7e9      	b.n	10000618 <add_alarm_under_lock+0x100>
10000644:	4653      	mov	r3, sl
10000646:	4659      	mov	r1, fp
10000648:	6818      	ldr	r0, [r3, #0]
1000064a:	f000 ff01 	bl	10001450 <ph_delete>
1000064e:	e7ca      	b.n	100005e6 <add_alarm_under_lock+0xce>
10000650:	464c      	mov	r4, r9
10000652:	e79e      	b.n	10000592 <add_alarm_under_lock+0x7a>
10000654:	0fffffff 	.word	0x0fffffff

10000658 <alarm_pool_alarm_callback>:
10000658:	b5f0      	push	{r4, r5, r6, r7, lr}
1000065a:	46de      	mov	lr, fp
1000065c:	4645      	mov	r5, r8
1000065e:	4657      	mov	r7, sl
10000660:	464e      	mov	r6, r9
10000662:	4b75      	ldr	r3, [pc, #468]	; (10000838 <alarm_pool_alarm_callback+0x1e0>)
10000664:	0082      	lsls	r2, r0, #2
10000666:	b5e0      	push	{r5, r6, r7, lr}
10000668:	58d5      	ldr	r5, [r2, r3]
1000066a:	2300      	movs	r3, #0
1000066c:	469b      	mov	fp, r3
1000066e:	b08d      	sub	sp, #52	; 0x34
10000670:	900b      	str	r0, [sp, #44]	; 0x2c
10000672:	f000 fc49 	bl	10000f08 <time_us_64>
10000676:	686b      	ldr	r3, [r5, #4]
10000678:	f3ef 8410 	mrs	r4, PRIMASK
1000067c:	b672      	cpsid	i
1000067e:	681a      	ldr	r2, [r3, #0]
10000680:	2a00      	cmp	r2, #0
10000682:	d0fc      	beq.n	1000067e <alarm_pool_alarm_callback+0x26>
10000684:	f3bf 8f5f 	dmb	sy
10000688:	682a      	ldr	r2, [r5, #0]
1000068a:	4694      	mov	ip, r2
1000068c:	7b52      	ldrb	r2, [r2, #13]
1000068e:	4691      	mov	r9, r2
10000690:	2a00      	cmp	r2, #0
10000692:	d100      	bne.n	10000696 <alarm_pool_alarm_callback+0x3e>
10000694:	e084      	b.n	100007a0 <alarm_pool_alarm_callback+0x148>
10000696:	68aa      	ldr	r2, [r5, #8]
10000698:	4b68      	ldr	r3, [pc, #416]	; (1000083c <alarm_pool_alarm_callback+0x1e4>)
1000069a:	4690      	mov	r8, r2
1000069c:	444b      	add	r3, r9
1000069e:	011b      	lsls	r3, r3, #4
100006a0:	4498      	add	r8, r3
100006a2:	4643      	mov	r3, r8
100006a4:	681e      	ldr	r6, [r3, #0]
100006a6:	685f      	ldr	r7, [r3, #4]
100006a8:	0032      	movs	r2, r6
100006aa:	003b      	movs	r3, r7
100006ac:	1a12      	subs	r2, r2, r0
100006ae:	418b      	sbcs	r3, r1
100006b0:	2b00      	cmp	r3, #0
100006b2:	dc00      	bgt.n	100006b6 <alarm_pool_alarm_callback+0x5e>
100006b4:	e09c      	b.n	100007f0 <alarm_pool_alarm_callback+0x198>
100006b6:	0032      	movs	r2, r6
100006b8:	003b      	movs	r3, r7
100006ba:	980b      	ldr	r0, [sp, #44]	; 0x2c
100006bc:	f000 fc86 	bl	10000fcc <hardware_alarm_set_target>
100006c0:	2100      	movs	r1, #0
100006c2:	2200      	movs	r2, #0
100006c4:	2700      	movs	r7, #0
100006c6:	2600      	movs	r6, #0
100006c8:	9108      	str	r1, [sp, #32]
100006ca:	9209      	str	r2, [sp, #36]	; 0x24
100006cc:	686b      	ldr	r3, [r5, #4]
100006ce:	f3bf 8f5f 	dmb	sy
100006d2:	465a      	mov	r2, fp
100006d4:	601a      	str	r2, [r3, #0]
100006d6:	f384 8810 	msr	PRIMASK, r4
100006da:	2e00      	cmp	r6, #0
100006dc:	d06f      	beq.n	100007be <alarm_pool_alarm_callback+0x166>
100006de:	23d0      	movs	r3, #208	; 0xd0
100006e0:	2280      	movs	r2, #128	; 0x80
100006e2:	2180      	movs	r1, #128	; 0x80
100006e4:	061b      	lsls	r3, r3, #24
100006e6:	0392      	lsls	r2, r2, #14
100006e8:	0309      	lsls	r1, r1, #12
100006ea:	615a      	str	r2, [r3, #20]
100006ec:	6199      	str	r1, [r3, #24]
100006ee:	619a      	str	r2, [r3, #24]
100006f0:	4653      	mov	r3, sl
100006f2:	0218      	lsls	r0, r3, #8
100006f4:	464b      	mov	r3, r9
100006f6:	0039      	movs	r1, r7
100006f8:	4318      	orrs	r0, r3
100006fa:	47b0      	blx	r6
100006fc:	686a      	ldr	r2, [r5, #4]
100006fe:	9006      	str	r0, [sp, #24]
10000700:	9107      	str	r1, [sp, #28]
10000702:	f3ef 8810 	mrs	r8, PRIMASK
10000706:	b672      	cpsid	i
10000708:	4644      	mov	r4, r8
1000070a:	6813      	ldr	r3, [r2, #0]
1000070c:	2b00      	cmp	r3, #0
1000070e:	d0fc      	beq.n	1000070a <alarm_pool_alarm_callback+0xb2>
10000710:	46a0      	mov	r8, r4
10000712:	f3bf 8f5f 	dmb	sy
10000716:	9906      	ldr	r1, [sp, #24]
10000718:	9a07      	ldr	r2, [sp, #28]
1000071a:	2a00      	cmp	r2, #0
1000071c:	da23      	bge.n	10000766 <alarm_pool_alarm_callback+0x10e>
1000071e:	692b      	ldr	r3, [r5, #16]
10000720:	2b00      	cmp	r3, #0
10000722:	d026      	beq.n	10000772 <alarm_pool_alarm_callback+0x11a>
10000724:	9b08      	ldr	r3, [sp, #32]
10000726:	9c09      	ldr	r4, [sp, #36]	; 0x24
10000728:	1a5b      	subs	r3, r3, r1
1000072a:	4194      	sbcs	r4, r2
1000072c:	9808      	ldr	r0, [sp, #32]
1000072e:	9909      	ldr	r1, [sp, #36]	; 0x24
10000730:	001a      	movs	r2, r3
10000732:	0023      	movs	r3, r4
10000734:	4299      	cmp	r1, r3
10000736:	d857      	bhi.n	100007e8 <alarm_pool_alarm_callback+0x190>
10000738:	d100      	bne.n	1000073c <alarm_pool_alarm_callback+0xe4>
1000073a:	e075      	b.n	10000828 <alarm_pool_alarm_callback+0x1d0>
1000073c:	4659      	mov	r1, fp
1000073e:	9104      	str	r1, [sp, #16]
10000740:	2101      	movs	r1, #1
10000742:	9103      	str	r1, [sp, #12]
10000744:	4649      	mov	r1, r9
10000746:	9701      	str	r7, [sp, #4]
10000748:	9102      	str	r1, [sp, #8]
1000074a:	9600      	str	r6, [sp, #0]
1000074c:	0028      	movs	r0, r5
1000074e:	f7ff fee3 	bl	10000518 <add_alarm_under_lock>
10000752:	465b      	mov	r3, fp
10000754:	612b      	str	r3, [r5, #16]
10000756:	686b      	ldr	r3, [r5, #4]
10000758:	f3bf 8f5f 	dmb	sy
1000075c:	465a      	mov	r2, fp
1000075e:	601a      	str	r2, [r3, #0]
10000760:	f388 8810 	msr	PRIMASK, r8
10000764:	e785      	b.n	10000672 <alarm_pool_alarm_callback+0x1a>
10000766:	0013      	movs	r3, r2
10000768:	4319      	orrs	r1, r3
1000076a:	d002      	beq.n	10000772 <alarm_pool_alarm_callback+0x11a>
1000076c:	692b      	ldr	r3, [r5, #16]
1000076e:	2b00      	cmp	r3, #0
10000770:	d12f      	bne.n	100007d2 <alarm_pool_alarm_callback+0x17a>
10000772:	682b      	ldr	r3, [r5, #0]
10000774:	7bda      	ldrb	r2, [r3, #15]
10000776:	2a00      	cmp	r2, #0
10000778:	d007      	beq.n	1000078a <alarm_pool_alarm_callback+0x132>
1000077a:	0051      	lsls	r1, r2, #1
1000077c:	188a      	adds	r2, r1, r2
1000077e:	6819      	ldr	r1, [r3, #0]
10000780:	468c      	mov	ip, r1
10000782:	4649      	mov	r1, r9
10000784:	4462      	add	r2, ip
10000786:	3a03      	subs	r2, #3
10000788:	7051      	strb	r1, [r2, #1]
1000078a:	464a      	mov	r2, r9
1000078c:	73da      	strb	r2, [r3, #15]
1000078e:	68ea      	ldr	r2, [r5, #12]
10000790:	464b      	mov	r3, r9
10000792:	4694      	mov	ip, r2
10000794:	3b01      	subs	r3, #1
10000796:	4463      	add	r3, ip
10000798:	781a      	ldrb	r2, [r3, #0]
1000079a:	3201      	adds	r2, #1
1000079c:	701a      	strb	r2, [r3, #0]
1000079e:	e7d8      	b.n	10000752 <alarm_pool_alarm_callback+0xfa>
100007a0:	2100      	movs	r1, #0
100007a2:	2200      	movs	r2, #0
100007a4:	2700      	movs	r7, #0
100007a6:	9108      	str	r1, [sp, #32]
100007a8:	9209      	str	r2, [sp, #36]	; 0x24
100007aa:	2600      	movs	r6, #0
100007ac:	2000      	movs	r0, #0
100007ae:	f3bf 8f5f 	dmb	sy
100007b2:	465a      	mov	r2, fp
100007b4:	601a      	str	r2, [r3, #0]
100007b6:	f384 8810 	msr	PRIMASK, r4
100007ba:	2e00      	cmp	r6, #0
100007bc:	d18f      	bne.n	100006de <alarm_pool_alarm_callback+0x86>
100007be:	2800      	cmp	r0, #0
100007c0:	d000      	beq.n	100007c4 <alarm_pool_alarm_callback+0x16c>
100007c2:	e756      	b.n	10000672 <alarm_pool_alarm_callback+0x1a>
100007c4:	b00d      	add	sp, #52	; 0x34
100007c6:	bc3c      	pop	{r2, r3, r4, r5}
100007c8:	4690      	mov	r8, r2
100007ca:	4699      	mov	r9, r3
100007cc:	46a2      	mov	sl, r4
100007ce:	46ab      	mov	fp, r5
100007d0:	bdf0      	pop	{r4, r5, r6, r7, pc}
100007d2:	f000 fb99 	bl	10000f08 <time_us_64>
100007d6:	9a06      	ldr	r2, [sp, #24]
100007d8:	9b07      	ldr	r3, [sp, #28]
100007da:	1812      	adds	r2, r2, r0
100007dc:	414b      	adcs	r3, r1
100007de:	4299      	cmp	r1, r3
100007e0:	d802      	bhi.n	100007e8 <alarm_pool_alarm_callback+0x190>
100007e2:	d1ab      	bne.n	1000073c <alarm_pool_alarm_callback+0xe4>
100007e4:	4290      	cmp	r0, r2
100007e6:	d9a9      	bls.n	1000073c <alarm_pool_alarm_callback+0xe4>
100007e8:	2201      	movs	r2, #1
100007ea:	4252      	negs	r2, r2
100007ec:	17d3      	asrs	r3, r2, #31
100007ee:	e7a5      	b.n	1000073c <alarm_pool_alarm_callback+0xe4>
100007f0:	2b00      	cmp	r3, #0
100007f2:	d102      	bne.n	100007fa <alarm_pool_alarm_callback+0x1a2>
100007f4:	2a00      	cmp	r2, #0
100007f6:	d000      	beq.n	100007fa <alarm_pool_alarm_callback+0x1a2>
100007f8:	e75d      	b.n	100006b6 <alarm_pool_alarm_callback+0x5e>
100007fa:	2101      	movs	r1, #1
100007fc:	4660      	mov	r0, ip
100007fe:	f000 fd7b 	bl	100012f8 <ph_remove_head_reserve>
10000802:	4643      	mov	r3, r8
10000804:	681a      	ldr	r2, [r3, #0]
10000806:	685b      	ldr	r3, [r3, #4]
10000808:	9208      	str	r2, [sp, #32]
1000080a:	9309      	str	r3, [sp, #36]	; 0x24
1000080c:	4643      	mov	r3, r8
1000080e:	689e      	ldr	r6, [r3, #8]
10000810:	68df      	ldr	r7, [r3, #12]
10000812:	68eb      	ldr	r3, [r5, #12]
10000814:	444b      	add	r3, r9
10000816:	3b01      	subs	r3, #1
10000818:	781b      	ldrb	r3, [r3, #0]
1000081a:	469a      	mov	sl, r3
1000081c:	021b      	lsls	r3, r3, #8
1000081e:	4318      	orrs	r0, r3
10000820:	6128      	str	r0, [r5, #16]
10000822:	686b      	ldr	r3, [r5, #4]
10000824:	2000      	movs	r0, #0
10000826:	e752      	b.n	100006ce <alarm_pool_alarm_callback+0x76>
10000828:	4290      	cmp	r0, r2
1000082a:	d800      	bhi.n	1000082e <alarm_pool_alarm_callback+0x1d6>
1000082c:	e786      	b.n	1000073c <alarm_pool_alarm_callback+0xe4>
1000082e:	2201      	movs	r2, #1
10000830:	4252      	negs	r2, r2
10000832:	17d3      	asrs	r3, r2, #31
10000834:	e782      	b.n	1000073c <alarm_pool_alarm_callback+0xe4>
10000836:	46c0      	nop			; (mov r8, r8)
10000838:	20001614 	.word	0x20001614
1000083c:	0fffffff 	.word	0x0fffffff

10000840 <alarm_pool_init_default>:
10000840:	b570      	push	{r4, r5, r6, lr}
10000842:	4c18      	ldr	r4, [pc, #96]	; (100008a4 <alarm_pool_init_default+0x64>)
10000844:	6823      	ldr	r3, [r4, #0]
10000846:	2b00      	cmp	r3, #0
10000848:	d000      	beq.n	1000084c <alarm_pool_init_default+0xc>
1000084a:	bd70      	pop	{r4, r5, r6, pc}
1000084c:	2003      	movs	r0, #3
1000084e:	f000 fb4f 	bl	10000ef0 <hardware_alarm_claim>
10000852:	2003      	movs	r0, #3
10000854:	f000 fc18 	bl	10001088 <hardware_alarm_cancel>
10000858:	4913      	ldr	r1, [pc, #76]	; (100008a8 <alarm_pool_init_default+0x68>)
1000085a:	2003      	movs	r0, #3
1000085c:	f000 fb70 	bl	10000f40 <hardware_alarm_set_callback>
10000860:	2018      	movs	r0, #24
10000862:	f001 fc61 	bl	10002128 <__wrap_malloc>
10000866:	0005      	movs	r5, r0
10000868:	f7ff fe14 	bl	10000494 <next_striped_spin_lock_num>
1000086c:	4b0f      	ldr	r3, [pc, #60]	; (100008ac <alarm_pool_init_default+0x6c>)
1000086e:	002a      	movs	r2, r5
10000870:	469c      	mov	ip, r3
10000872:	4460      	add	r0, ip
10000874:	0080      	lsls	r0, r0, #2
10000876:	6068      	str	r0, [r5, #4]
10000878:	490d      	ldr	r1, [pc, #52]	; (100008b0 <alarm_pool_init_default+0x70>)
1000087a:	2010      	movs	r0, #16
1000087c:	f000 fd0a 	bl	10001294 <ph_create>
10000880:	2110      	movs	r1, #16
10000882:	6028      	str	r0, [r5, #0]
10000884:	2010      	movs	r0, #16
10000886:	f001 fc53 	bl	10002130 <__wrap_calloc>
1000088a:	2101      	movs	r1, #1
1000088c:	60a8      	str	r0, [r5, #8]
1000088e:	2010      	movs	r0, #16
10000890:	f001 fc4e 	bl	10002130 <__wrap_calloc>
10000894:	2303      	movs	r3, #3
10000896:	752b      	strb	r3, [r5, #20]
10000898:	4b06      	ldr	r3, [pc, #24]	; (100008b4 <alarm_pool_init_default+0x74>)
1000089a:	60e8      	str	r0, [r5, #12]
1000089c:	60dd      	str	r5, [r3, #12]
1000089e:	6025      	str	r5, [r4, #0]
100008a0:	e7d3      	b.n	1000084a <alarm_pool_init_default+0xa>
100008a2:	46c0      	nop			; (mov r8, r8)
100008a4:	20000f54 	.word	0x20000f54
100008a8:	10000659 	.word	0x10000659
100008ac:	34000040 	.word	0x34000040
100008b0:	100004dd 	.word	0x100004dd
100008b4:	20001614 	.word	0x20001614

100008b8 <alarm_pool_get_default>:
100008b8:	4b01      	ldr	r3, [pc, #4]	; (100008c0 <alarm_pool_get_default+0x8>)
100008ba:	6818      	ldr	r0, [r3, #0]
100008bc:	4770      	bx	lr
100008be:	46c0      	nop			; (mov r8, r8)
100008c0:	20000f54 	.word	0x20000f54

100008c4 <alarm_pool_add_alarm_at>:
100008c4:	b5f0      	push	{r4, r5, r6, r7, lr}
100008c6:	4657      	mov	r7, sl
100008c8:	4645      	mov	r5, r8
100008ca:	46de      	mov	lr, fp
100008cc:	464e      	mov	r6, r9
100008ce:	b5e0      	push	{r5, r6, r7, lr}
100008d0:	b085      	sub	sp, #20
100008d2:	9200      	str	r2, [sp, #0]
100008d4:	9301      	str	r3, [sp, #4]
100008d6:	ab10      	add	r3, sp, #64	; 0x40
100008d8:	781b      	ldrb	r3, [r3, #0]
100008da:	0007      	movs	r7, r0
100008dc:	9302      	str	r3, [sp, #8]
100008de:	2300      	movs	r3, #0
100008e0:	469a      	mov	sl, r3
100008e2:	4698      	mov	r8, r3
100008e4:	687b      	ldr	r3, [r7, #4]
100008e6:	f3ef 8b10 	mrs	fp, PRIMASK
100008ea:	b672      	cpsid	i
100008ec:	681a      	ldr	r2, [r3, #0]
100008ee:	2a00      	cmp	r2, #0
100008f0:	d0fc      	beq.n	100008ec <alarm_pool_add_alarm_at+0x28>
100008f2:	f3bf 8f5f 	dmb	sy
100008f6:	683d      	ldr	r5, [r7, #0]
100008f8:	7bac      	ldrb	r4, [r5, #14]
100008fa:	2c00      	cmp	r4, #0
100008fc:	d100      	bne.n	10000900 <alarm_pool_add_alarm_at+0x3c>
100008fe:	e079      	b.n	100009f4 <alarm_pool_add_alarm_at+0x130>
10000900:	0066      	lsls	r6, r4, #1
10000902:	1936      	adds	r6, r6, r4
10000904:	682b      	ldr	r3, [r5, #0]
10000906:	3e03      	subs	r6, #3
10000908:	199b      	adds	r3, r3, r6
1000090a:	785b      	ldrb	r3, [r3, #1]
1000090c:	73ab      	strb	r3, [r5, #14]
1000090e:	2b00      	cmp	r3, #0
10000910:	d100      	bne.n	10000914 <alarm_pool_add_alarm_at+0x50>
10000912:	73eb      	strb	r3, [r5, #15]
10000914:	68ba      	ldr	r2, [r7, #8]
10000916:	4b57      	ldr	r3, [pc, #348]	; (10000a74 <alarm_pool_add_alarm_at+0x1b0>)
10000918:	4694      	mov	ip, r2
1000091a:	9900      	ldr	r1, [sp, #0]
1000091c:	9a01      	ldr	r2, [sp, #4]
1000091e:	18e3      	adds	r3, r4, r3
10000920:	011b      	lsls	r3, r3, #4
10000922:	4463      	add	r3, ip
10000924:	6019      	str	r1, [r3, #0]
10000926:	605a      	str	r2, [r3, #4]
10000928:	9a0e      	ldr	r2, [sp, #56]	; 0x38
1000092a:	9403      	str	r4, [sp, #12]
1000092c:	609a      	str	r2, [r3, #8]
1000092e:	9a0f      	ldr	r2, [sp, #60]	; 0x3c
10000930:	60da      	str	r2, [r3, #12]
10000932:	2380      	movs	r3, #128	; 0x80
10000934:	22d0      	movs	r2, #208	; 0xd0
10000936:	031b      	lsls	r3, r3, #12
10000938:	0612      	lsls	r2, r2, #24
1000093a:	6153      	str	r3, [r2, #20]
1000093c:	4642      	mov	r2, r8
1000093e:	682b      	ldr	r3, [r5, #0]
10000940:	199b      	adds	r3, r3, r6
10000942:	709a      	strb	r2, [r3, #2]
10000944:	705a      	strb	r2, [r3, #1]
10000946:	701a      	strb	r2, [r3, #0]
10000948:	7b6b      	ldrb	r3, [r5, #13]
1000094a:	4699      	mov	r9, r3
1000094c:	2b00      	cmp	r3, #0
1000094e:	d100      	bne.n	10000952 <alarm_pool_add_alarm_at+0x8e>
10000950:	e07c      	b.n	10000a4c <alarm_pool_add_alarm_at+0x188>
10000952:	0022      	movs	r2, r4
10000954:	0019      	movs	r1, r3
10000956:	68a8      	ldr	r0, [r5, #8]
10000958:	686b      	ldr	r3, [r5, #4]
1000095a:	4798      	blx	r3
1000095c:	682a      	ldr	r2, [r5, #0]
1000095e:	2800      	cmp	r0, #0
10000960:	d067      	beq.n	10000a32 <alarm_pool_add_alarm_at+0x16e>
10000962:	464b      	mov	r3, r9
10000964:	005b      	lsls	r3, r3, #1
10000966:	444b      	add	r3, r9
10000968:	3b03      	subs	r3, #3
1000096a:	18d3      	adds	r3, r2, r3
1000096c:	1996      	adds	r6, r2, r6
1000096e:	464a      	mov	r2, r9
10000970:	70b2      	strb	r2, [r6, #2]
10000972:	781a      	ldrb	r2, [r3, #0]
10000974:	2a00      	cmp	r2, #0
10000976:	d000      	beq.n	1000097a <alarm_pool_add_alarm_at+0xb6>
10000978:	e077      	b.n	10000a6a <alarm_pool_add_alarm_at+0x1a6>
1000097a:	701c      	strb	r4, [r3, #0]
1000097c:	464b      	mov	r3, r9
1000097e:	736b      	strb	r3, [r5, #13]
10000980:	454c      	cmp	r4, r9
10000982:	d064      	beq.n	10000a4e <alarm_pool_add_alarm_at+0x18a>
10000984:	68fb      	ldr	r3, [r7, #12]
10000986:	191b      	adds	r3, r3, r4
10000988:	3b01      	subs	r3, #1
1000098a:	7818      	ldrb	r0, [r3, #0]
1000098c:	687b      	ldr	r3, [r7, #4]
1000098e:	f3bf 8f5f 	dmb	sy
10000992:	4642      	mov	r2, r8
10000994:	601a      	str	r2, [r3, #0]
10000996:	f38b 8810 	msr	PRIMASK, fp
1000099a:	2c00      	cmp	r4, #0
1000099c:	d035      	beq.n	10000a0a <alarm_pool_add_alarm_at+0x146>
1000099e:	4653      	mov	r3, sl
100009a0:	2b00      	cmp	r3, #0
100009a2:	d109      	bne.n	100009b8 <alarm_pool_add_alarm_at+0xf4>
100009a4:	9b03      	ldr	r3, [sp, #12]
100009a6:	0200      	lsls	r0, r0, #8
100009a8:	4318      	orrs	r0, r3
100009aa:	b005      	add	sp, #20
100009ac:	bc3c      	pop	{r2, r3, r4, r5}
100009ae:	4690      	mov	r8, r2
100009b0:	4699      	mov	r9, r3
100009b2:	46a2      	mov	sl, r4
100009b4:	46ab      	mov	fp, r5
100009b6:	bdf0      	pop	{r4, r5, r6, r7, pc}
100009b8:	9b02      	ldr	r3, [sp, #8]
100009ba:	2b00      	cmp	r3, #0
100009bc:	d057      	beq.n	10000a6e <alarm_pool_add_alarm_at+0x1aa>
100009be:	9b0e      	ldr	r3, [sp, #56]	; 0x38
100009c0:	990f      	ldr	r1, [sp, #60]	; 0x3c
100009c2:	2000      	movs	r0, #0
100009c4:	4798      	blx	r3
100009c6:	0003      	movs	r3, r0
100009c8:	0004      	movs	r4, r0
100009ca:	000d      	movs	r5, r1
100009cc:	430b      	orrs	r3, r1
100009ce:	d04e      	beq.n	10000a6e <alarm_pool_add_alarm_at+0x1aa>
100009d0:	2900      	cmp	r1, #0
100009d2:	da1d      	bge.n	10000a10 <alarm_pool_add_alarm_at+0x14c>
100009d4:	9800      	ldr	r0, [sp, #0]
100009d6:	9901      	ldr	r1, [sp, #4]
100009d8:	0002      	movs	r2, r0
100009da:	000b      	movs	r3, r1
100009dc:	1b12      	subs	r2, r2, r4
100009de:	41ab      	sbcs	r3, r5
100009e0:	4299      	cmp	r1, r3
100009e2:	d820      	bhi.n	10000a26 <alarm_pool_add_alarm_at+0x162>
100009e4:	d101      	bne.n	100009ea <alarm_pool_add_alarm_at+0x126>
100009e6:	4290      	cmp	r0, r2
100009e8:	d81d      	bhi.n	10000a26 <alarm_pool_add_alarm_at+0x162>
100009ea:	9200      	str	r2, [sp, #0]
100009ec:	9301      	str	r3, [sp, #4]
100009ee:	9b02      	ldr	r3, [sp, #8]
100009f0:	469a      	mov	sl, r3
100009f2:	e777      	b.n	100008e4 <alarm_pool_add_alarm_at+0x20>
100009f4:	2200      	movs	r2, #0
100009f6:	2000      	movs	r0, #0
100009f8:	9203      	str	r2, [sp, #12]
100009fa:	f3bf 8f5f 	dmb	sy
100009fe:	4642      	mov	r2, r8
10000a00:	601a      	str	r2, [r3, #0]
10000a02:	f38b 8810 	msr	PRIMASK, fp
10000a06:	2c00      	cmp	r4, #0
10000a08:	d1c9      	bne.n	1000099e <alarm_pool_add_alarm_at+0xda>
10000a0a:	2001      	movs	r0, #1
10000a0c:	4240      	negs	r0, r0
10000a0e:	e7cc      	b.n	100009aa <alarm_pool_add_alarm_at+0xe6>
10000a10:	f000 fa7a 	bl	10000f08 <time_us_64>
10000a14:	1824      	adds	r4, r4, r0
10000a16:	414d      	adcs	r5, r1
10000a18:	9400      	str	r4, [sp, #0]
10000a1a:	9501      	str	r5, [sp, #4]
10000a1c:	42a9      	cmp	r1, r5
10000a1e:	d802      	bhi.n	10000a26 <alarm_pool_add_alarm_at+0x162>
10000a20:	d1e5      	bne.n	100009ee <alarm_pool_add_alarm_at+0x12a>
10000a22:	42a0      	cmp	r0, r4
10000a24:	d9e3      	bls.n	100009ee <alarm_pool_add_alarm_at+0x12a>
10000a26:	2301      	movs	r3, #1
10000a28:	425b      	negs	r3, r3
10000a2a:	17dc      	asrs	r4, r3, #31
10000a2c:	9300      	str	r3, [sp, #0]
10000a2e:	9401      	str	r4, [sp, #4]
10000a30:	e7dd      	b.n	100009ee <alarm_pool_add_alarm_at+0x12a>
10000a32:	464b      	mov	r3, r9
10000a34:	005b      	lsls	r3, r3, #1
10000a36:	444b      	add	r3, r9
10000a38:	3b03      	subs	r3, #3
10000a3a:	18d3      	adds	r3, r2, r3
10000a3c:	1996      	adds	r6, r2, r6
10000a3e:	709c      	strb	r4, [r3, #2]
10000a40:	7832      	ldrb	r2, [r6, #0]
10000a42:	2a00      	cmp	r2, #0
10000a44:	d000      	beq.n	10000a48 <alarm_pool_add_alarm_at+0x184>
10000a46:	705a      	strb	r2, [r3, #1]
10000a48:	464b      	mov	r3, r9
10000a4a:	7033      	strb	r3, [r6, #0]
10000a4c:	736c      	strb	r4, [r5, #13]
10000a4e:	7d38      	ldrb	r0, [r7, #20]
10000a50:	9a00      	ldr	r2, [sp, #0]
10000a52:	9b01      	ldr	r3, [sp, #4]
10000a54:	f000 faba 	bl	10000fcc <hardware_alarm_set_target>
10000a58:	4682      	mov	sl, r0
10000a5a:	2800      	cmp	r0, #0
10000a5c:	d100      	bne.n	10000a60 <alarm_pool_add_alarm_at+0x19c>
10000a5e:	e791      	b.n	10000984 <alarm_pool_add_alarm_at+0xc0>
10000a60:	0021      	movs	r1, r4
10000a62:	6838      	ldr	r0, [r7, #0]
10000a64:	f000 fcf4 	bl	10001450 <ph_delete>
10000a68:	e78c      	b.n	10000984 <alarm_pool_add_alarm_at+0xc0>
10000a6a:	7072      	strb	r2, [r6, #1]
10000a6c:	e785      	b.n	1000097a <alarm_pool_add_alarm_at+0xb6>
10000a6e:	2000      	movs	r0, #0
10000a70:	e79b      	b.n	100009aa <alarm_pool_add_alarm_at+0xe6>
10000a72:	46c0      	nop			; (mov r8, r8)
10000a74:	0fffffff 	.word	0x0fffffff

10000a78 <sleep_until>:
10000a78:	b5f0      	push	{r4, r5, r6, r7, lr}
10000a7a:	4657      	mov	r7, sl
10000a7c:	464e      	mov	r6, r9
10000a7e:	4645      	mov	r5, r8
10000a80:	46de      	mov	lr, fp
10000a82:	0004      	movs	r4, r0
10000a84:	b5e0      	push	{r5, r6, r7, lr}
10000a86:	000d      	movs	r5, r1
10000a88:	2606      	movs	r6, #6
10000a8a:	4276      	negs	r6, r6
10000a8c:	17f7      	asrs	r7, r6, #31
10000a8e:	1936      	adds	r6, r6, r4
10000a90:	416f      	adcs	r7, r5
10000a92:	b083      	sub	sp, #12
10000a94:	428f      	cmp	r7, r1
10000a96:	d83d      	bhi.n	10000b14 <sleep_until+0x9c>
10000a98:	d03a      	beq.n	10000b10 <sleep_until+0x98>
10000a9a:	f000 fa35 	bl	10000f08 <time_us_64>
10000a9e:	0032      	movs	r2, r6
10000aa0:	003b      	movs	r3, r7
10000aa2:	1a12      	subs	r2, r2, r0
10000aa4:	418b      	sbcs	r3, r1
10000aa6:	2b00      	cmp	r3, #0
10000aa8:	dd3e      	ble.n	10000b28 <sleep_until+0xb0>
10000aaa:	4b5d      	ldr	r3, [pc, #372]	; (10000c20 <sleep_until+0x1a8>)
10000aac:	681b      	ldr	r3, [r3, #0]
10000aae:	469a      	mov	sl, r3
10000ab0:	685b      	ldr	r3, [r3, #4]
10000ab2:	f3ef 8b10 	mrs	fp, PRIMASK
10000ab6:	b672      	cpsid	i
10000ab8:	681a      	ldr	r2, [r3, #0]
10000aba:	2a00      	cmp	r2, #0
10000abc:	d0fc      	beq.n	10000ab8 <sleep_until+0x40>
10000abe:	f3bf 8f5f 	dmb	sy
10000ac2:	4652      	mov	r2, sl
10000ac4:	6812      	ldr	r2, [r2, #0]
10000ac6:	4691      	mov	r9, r2
10000ac8:	7b92      	ldrb	r2, [r2, #14]
10000aca:	4690      	mov	r8, r2
10000acc:	2a00      	cmp	r2, #0
10000ace:	d130      	bne.n	10000b32 <sleep_until+0xba>
10000ad0:	f3bf 8f5f 	dmb	sy
10000ad4:	2200      	movs	r2, #0
10000ad6:	601a      	str	r2, [r3, #0]
10000ad8:	f38b 8810 	msr	PRIMASK, fp
10000adc:	4643      	mov	r3, r8
10000ade:	2b00      	cmp	r3, #0
10000ae0:	d009      	beq.n	10000af6 <sleep_until+0x7e>
10000ae2:	0039      	movs	r1, r7
10000ae4:	4a4f      	ldr	r2, [pc, #316]	; (10000c24 <sleep_until+0x1ac>)
10000ae6:	6a53      	ldr	r3, [r2, #36]	; 0x24
10000ae8:	428b      	cmp	r3, r1
10000aea:	d30f      	bcc.n	10000b0c <sleep_until+0x94>
10000aec:	6a90      	ldr	r0, [r2, #40]	; 0x28
10000aee:	42b0      	cmp	r0, r6
10000af0:	d201      	bcs.n	10000af6 <sleep_until+0x7e>
10000af2:	428b      	cmp	r3, r1
10000af4:	d00a      	beq.n	10000b0c <sleep_until+0x94>
10000af6:	0020      	movs	r0, r4
10000af8:	0029      	movs	r1, r5
10000afa:	f000 fa11 	bl	10000f20 <busy_wait_until>
10000afe:	b003      	add	sp, #12
10000b00:	bc3c      	pop	{r2, r3, r4, r5}
10000b02:	4690      	mov	r8, r2
10000b04:	4699      	mov	r9, r3
10000b06:	46a2      	mov	sl, r4
10000b08:	46ab      	mov	fp, r5
10000b0a:	bdf0      	pop	{r4, r5, r6, r7, pc}
10000b0c:	bf20      	wfe
10000b0e:	e7ea      	b.n	10000ae6 <sleep_until+0x6e>
10000b10:	4286      	cmp	r6, r0
10000b12:	d9c2      	bls.n	10000a9a <sleep_until+0x22>
10000b14:	2600      	movs	r6, #0
10000b16:	2700      	movs	r7, #0
10000b18:	f000 f9f6 	bl	10000f08 <time_us_64>
10000b1c:	0032      	movs	r2, r6
10000b1e:	003b      	movs	r3, r7
10000b20:	1a12      	subs	r2, r2, r0
10000b22:	418b      	sbcs	r3, r1
10000b24:	2b00      	cmp	r3, #0
10000b26:	dcc0      	bgt.n	10000aaa <sleep_until+0x32>
10000b28:	2b00      	cmp	r3, #0
10000b2a:	d1e4      	bne.n	10000af6 <sleep_until+0x7e>
10000b2c:	2a00      	cmp	r2, #0
10000b2e:	d1bc      	bne.n	10000aaa <sleep_until+0x32>
10000b30:	e7e1      	b.n	10000af6 <sleep_until+0x7e>
10000b32:	0053      	lsls	r3, r2, #1
10000b34:	4443      	add	r3, r8
10000b36:	3b03      	subs	r3, #3
10000b38:	001a      	movs	r2, r3
10000b3a:	9301      	str	r3, [sp, #4]
10000b3c:	464b      	mov	r3, r9
10000b3e:	4694      	mov	ip, r2
10000b40:	464a      	mov	r2, r9
10000b42:	681b      	ldr	r3, [r3, #0]
10000b44:	4463      	add	r3, ip
10000b46:	785b      	ldrb	r3, [r3, #1]
10000b48:	7393      	strb	r3, [r2, #14]
10000b4a:	2b00      	cmp	r3, #0
10000b4c:	d042      	beq.n	10000bd4 <sleep_until+0x15c>
10000b4e:	4652      	mov	r2, sl
10000b50:	6892      	ldr	r2, [r2, #8]
10000b52:	4b35      	ldr	r3, [pc, #212]	; (10000c28 <sleep_until+0x1b0>)
10000b54:	4694      	mov	ip, r2
10000b56:	4443      	add	r3, r8
10000b58:	4a34      	ldr	r2, [pc, #208]	; (10000c2c <sleep_until+0x1b4>)
10000b5a:	011b      	lsls	r3, r3, #4
10000b5c:	4463      	add	r3, ip
10000b5e:	609a      	str	r2, [r3, #8]
10000b60:	2200      	movs	r2, #0
10000b62:	601e      	str	r6, [r3, #0]
10000b64:	605f      	str	r7, [r3, #4]
10000b66:	60da      	str	r2, [r3, #12]
10000b68:	2180      	movs	r1, #128	; 0x80
10000b6a:	23d0      	movs	r3, #208	; 0xd0
10000b6c:	0309      	lsls	r1, r1, #12
10000b6e:	061b      	lsls	r3, r3, #24
10000b70:	6159      	str	r1, [r3, #20]
10000b72:	464b      	mov	r3, r9
10000b74:	9901      	ldr	r1, [sp, #4]
10000b76:	681b      	ldr	r3, [r3, #0]
10000b78:	468c      	mov	ip, r1
10000b7a:	4463      	add	r3, ip
10000b7c:	709a      	strb	r2, [r3, #2]
10000b7e:	705a      	strb	r2, [r3, #1]
10000b80:	701a      	strb	r2, [r3, #0]
10000b82:	464b      	mov	r3, r9
10000b84:	7b5b      	ldrb	r3, [r3, #13]
10000b86:	9300      	str	r3, [sp, #0]
10000b88:	2b00      	cmp	r3, #0
10000b8a:	d038      	beq.n	10000bfe <sleep_until+0x186>
10000b8c:	0019      	movs	r1, r3
10000b8e:	4648      	mov	r0, r9
10000b90:	464b      	mov	r3, r9
10000b92:	4642      	mov	r2, r8
10000b94:	6880      	ldr	r0, [r0, #8]
10000b96:	685b      	ldr	r3, [r3, #4]
10000b98:	4798      	blx	r3
10000b9a:	2800      	cmp	r0, #0
10000b9c:	d01c      	beq.n	10000bd8 <sleep_until+0x160>
10000b9e:	9800      	ldr	r0, [sp, #0]
10000ba0:	9901      	ldr	r1, [sp, #4]
10000ba2:	4684      	mov	ip, r0
10000ba4:	464a      	mov	r2, r9
10000ba6:	0043      	lsls	r3, r0, #1
10000ba8:	4463      	add	r3, ip
10000baa:	468c      	mov	ip, r1
10000bac:	4669      	mov	r1, sp
10000bae:	6812      	ldr	r2, [r2, #0]
10000bb0:	7809      	ldrb	r1, [r1, #0]
10000bb2:	3b03      	subs	r3, #3
10000bb4:	18d3      	adds	r3, r2, r3
10000bb6:	4462      	add	r2, ip
10000bb8:	7091      	strb	r1, [r2, #2]
10000bba:	7819      	ldrb	r1, [r3, #0]
10000bbc:	2900      	cmp	r1, #0
10000bbe:	d000      	beq.n	10000bc2 <sleep_until+0x14a>
10000bc0:	7051      	strb	r1, [r2, #1]
10000bc2:	4642      	mov	r2, r8
10000bc4:	701a      	strb	r2, [r3, #0]
10000bc6:	464b      	mov	r3, r9
10000bc8:	7358      	strb	r0, [r3, #13]
10000bca:	4580      	cmp	r8, r0
10000bcc:	d01a      	beq.n	10000c04 <sleep_until+0x18c>
10000bce:	4653      	mov	r3, sl
10000bd0:	685b      	ldr	r3, [r3, #4]
10000bd2:	e77d      	b.n	10000ad0 <sleep_until+0x58>
10000bd4:	73d3      	strb	r3, [r2, #15]
10000bd6:	e7ba      	b.n	10000b4e <sleep_until+0xd6>
10000bd8:	464b      	mov	r3, r9
10000bda:	9800      	ldr	r0, [sp, #0]
10000bdc:	681a      	ldr	r2, [r3, #0]
10000bde:	4684      	mov	ip, r0
10000be0:	9b01      	ldr	r3, [sp, #4]
10000be2:	18d1      	adds	r1, r2, r3
10000be4:	0043      	lsls	r3, r0, #1
10000be6:	4463      	add	r3, ip
10000be8:	3b03      	subs	r3, #3
10000bea:	18d3      	adds	r3, r2, r3
10000bec:	4642      	mov	r2, r8
10000bee:	709a      	strb	r2, [r3, #2]
10000bf0:	780a      	ldrb	r2, [r1, #0]
10000bf2:	2a00      	cmp	r2, #0
10000bf4:	d000      	beq.n	10000bf8 <sleep_until+0x180>
10000bf6:	705a      	strb	r2, [r3, #1]
10000bf8:	466b      	mov	r3, sp
10000bfa:	781b      	ldrb	r3, [r3, #0]
10000bfc:	700b      	strb	r3, [r1, #0]
10000bfe:	464b      	mov	r3, r9
10000c00:	4642      	mov	r2, r8
10000c02:	735a      	strb	r2, [r3, #13]
10000c04:	4653      	mov	r3, sl
10000c06:	0032      	movs	r2, r6
10000c08:	7d18      	ldrb	r0, [r3, #20]
10000c0a:	003b      	movs	r3, r7
10000c0c:	f000 f9de 	bl	10000fcc <hardware_alarm_set_target>
10000c10:	2800      	cmp	r0, #0
10000c12:	d0dc      	beq.n	10000bce <sleep_until+0x156>
10000c14:	4653      	mov	r3, sl
10000c16:	4641      	mov	r1, r8
10000c18:	6818      	ldr	r0, [r3, #0]
10000c1a:	f000 fc19 	bl	10001450 <ph_delete>
10000c1e:	e7d6      	b.n	10000bce <sleep_until+0x156>
10000c20:	20000f54 	.word	0x20000f54
10000c24:	40054000 	.word	0x40054000
10000c28:	0fffffff 	.word	0x0fffffff
10000c2c:	10000511 	.word	0x10000511

10000c30 <sleep_ms>:
10000c30:	b570      	push	{r4, r5, r6, lr}
10000c32:	0006      	movs	r6, r0
10000c34:	f000 f968 	bl	10000f08 <time_us_64>
10000c38:	22fa      	movs	r2, #250	; 0xfa
10000c3a:	0004      	movs	r4, r0
10000c3c:	000d      	movs	r5, r1
10000c3e:	0092      	lsls	r2, r2, #2
10000c40:	2300      	movs	r3, #0
10000c42:	0030      	movs	r0, r6
10000c44:	2100      	movs	r1, #0
10000c46:	f001 fa0b 	bl	10002060 <__wrap___aeabi_lmul>
10000c4a:	1900      	adds	r0, r0, r4
10000c4c:	4169      	adcs	r1, r5
10000c4e:	428d      	cmp	r5, r1
10000c50:	d905      	bls.n	10000c5e <sleep_ms+0x2e>
10000c52:	2001      	movs	r0, #1
10000c54:	4240      	negs	r0, r0
10000c56:	17c1      	asrs	r1, r0, #31
10000c58:	f7ff ff0e 	bl	10000a78 <sleep_until>
10000c5c:	bd70      	pop	{r4, r5, r6, pc}
10000c5e:	428d      	cmp	r5, r1
10000c60:	d1fa      	bne.n	10000c58 <sleep_ms+0x28>
10000c62:	4284      	cmp	r4, r0
10000c64:	d8f5      	bhi.n	10000c52 <sleep_ms+0x22>
10000c66:	e7f7      	b.n	10000c58 <sleep_ms+0x28>

10000c68 <best_effort_wfe_or_timeout>:
10000c68:	b5f0      	push	{r4, r5, r6, r7, lr}
10000c6a:	4657      	mov	r7, sl
10000c6c:	464e      	mov	r6, r9
10000c6e:	4645      	mov	r5, r8
10000c70:	46de      	mov	lr, fp
10000c72:	b5e0      	push	{r5, r6, r7, lr}
10000c74:	4b72      	ldr	r3, [pc, #456]	; (10000e40 <best_effort_wfe_or_timeout+0x1d8>)
10000c76:	b083      	sub	sp, #12
10000c78:	681e      	ldr	r6, [r3, #0]
10000c7a:	4698      	mov	r8, r3
10000c7c:	4682      	mov	sl, r0
10000c7e:	000f      	movs	r7, r1
10000c80:	6873      	ldr	r3, [r6, #4]
10000c82:	f3ef 8b10 	mrs	fp, PRIMASK
10000c86:	b672      	cpsid	i
10000c88:	681a      	ldr	r2, [r3, #0]
10000c8a:	2a00      	cmp	r2, #0
10000c8c:	d0fc      	beq.n	10000c88 <best_effort_wfe_or_timeout+0x20>
10000c8e:	f3bf 8f5f 	dmb	sy
10000c92:	6835      	ldr	r5, [r6, #0]
10000c94:	7bac      	ldrb	r4, [r5, #14]
10000c96:	2c00      	cmp	r4, #0
10000c98:	d04e      	beq.n	10000d38 <best_effort_wfe_or_timeout+0xd0>
10000c9a:	0063      	lsls	r3, r4, #1
10000c9c:	191b      	adds	r3, r3, r4
10000c9e:	3b03      	subs	r3, #3
10000ca0:	001a      	movs	r2, r3
10000ca2:	4694      	mov	ip, r2
10000ca4:	9301      	str	r3, [sp, #4]
10000ca6:	682b      	ldr	r3, [r5, #0]
10000ca8:	4463      	add	r3, ip
10000caa:	785b      	ldrb	r3, [r3, #1]
10000cac:	73ab      	strb	r3, [r5, #14]
10000cae:	2b00      	cmp	r3, #0
10000cb0:	d100      	bne.n	10000cb4 <best_effort_wfe_or_timeout+0x4c>
10000cb2:	73eb      	strb	r3, [r5, #15]
10000cb4:	68b2      	ldr	r2, [r6, #8]
10000cb6:	4b63      	ldr	r3, [pc, #396]	; (10000e44 <best_effort_wfe_or_timeout+0x1dc>)
10000cb8:	4694      	mov	ip, r2
10000cba:	4652      	mov	r2, sl
10000cbc:	18e3      	adds	r3, r4, r3
10000cbe:	011b      	lsls	r3, r3, #4
10000cc0:	4463      	add	r3, ip
10000cc2:	601a      	str	r2, [r3, #0]
10000cc4:	4a60      	ldr	r2, [pc, #384]	; (10000e48 <best_effort_wfe_or_timeout+0x1e0>)
10000cc6:	605f      	str	r7, [r3, #4]
10000cc8:	609a      	str	r2, [r3, #8]
10000cca:	2200      	movs	r2, #0
10000ccc:	2180      	movs	r1, #128	; 0x80
10000cce:	60da      	str	r2, [r3, #12]
10000cd0:	23d0      	movs	r3, #208	; 0xd0
10000cd2:	0309      	lsls	r1, r1, #12
10000cd4:	061b      	lsls	r3, r3, #24
10000cd6:	6159      	str	r1, [r3, #20]
10000cd8:	9901      	ldr	r1, [sp, #4]
10000cda:	682b      	ldr	r3, [r5, #0]
10000cdc:	468c      	mov	ip, r1
10000cde:	4463      	add	r3, ip
10000ce0:	709a      	strb	r2, [r3, #2]
10000ce2:	705a      	strb	r2, [r3, #1]
10000ce4:	701a      	strb	r2, [r3, #0]
10000ce6:	7b6b      	ldrb	r3, [r5, #13]
10000ce8:	4699      	mov	r9, r3
10000cea:	2b00      	cmp	r3, #0
10000cec:	d100      	bne.n	10000cf0 <best_effort_wfe_or_timeout+0x88>
10000cee:	e08a      	b.n	10000e06 <best_effort_wfe_or_timeout+0x19e>
10000cf0:	0022      	movs	r2, r4
10000cf2:	0019      	movs	r1, r3
10000cf4:	68a8      	ldr	r0, [r5, #8]
10000cf6:	686b      	ldr	r3, [r5, #4]
10000cf8:	4798      	blx	r3
10000cfa:	682a      	ldr	r2, [r5, #0]
10000cfc:	2800      	cmp	r0, #0
10000cfe:	d100      	bne.n	10000d02 <best_effort_wfe_or_timeout+0x9a>
10000d00:	e073      	b.n	10000dea <best_effort_wfe_or_timeout+0x182>
10000d02:	464b      	mov	r3, r9
10000d04:	9901      	ldr	r1, [sp, #4]
10000d06:	005b      	lsls	r3, r3, #1
10000d08:	468c      	mov	ip, r1
10000d0a:	4649      	mov	r1, r9
10000d0c:	444b      	add	r3, r9
10000d0e:	3b03      	subs	r3, #3
10000d10:	18d3      	adds	r3, r2, r3
10000d12:	4462      	add	r2, ip
10000d14:	7091      	strb	r1, [r2, #2]
10000d16:	7819      	ldrb	r1, [r3, #0]
10000d18:	2900      	cmp	r1, #0
10000d1a:	d000      	beq.n	10000d1e <best_effort_wfe_or_timeout+0xb6>
10000d1c:	e089      	b.n	10000e32 <best_effort_wfe_or_timeout+0x1ca>
10000d1e:	701c      	strb	r4, [r3, #0]
10000d20:	464b      	mov	r3, r9
10000d22:	736b      	strb	r3, [r5, #13]
10000d24:	454c      	cmp	r4, r9
10000d26:	d100      	bne.n	10000d2a <best_effort_wfe_or_timeout+0xc2>
10000d28:	e06e      	b.n	10000e08 <best_effort_wfe_or_timeout+0x1a0>
10000d2a:	2500      	movs	r5, #0
10000d2c:	68f3      	ldr	r3, [r6, #12]
10000d2e:	191b      	adds	r3, r3, r4
10000d30:	3b01      	subs	r3, #1
10000d32:	781a      	ldrb	r2, [r3, #0]
10000d34:	6873      	ldr	r3, [r6, #4]
10000d36:	e001      	b.n	10000d3c <best_effort_wfe_or_timeout+0xd4>
10000d38:	2500      	movs	r5, #0
10000d3a:	2200      	movs	r2, #0
10000d3c:	f3bf 8f5f 	dmb	sy
10000d40:	2100      	movs	r1, #0
10000d42:	6019      	str	r1, [r3, #0]
10000d44:	f38b 8810 	msr	PRIMASK, fp
10000d48:	2c00      	cmp	r4, #0
10000d4a:	d044      	beq.n	10000dd6 <best_effort_wfe_or_timeout+0x16e>
10000d4c:	2d00      	cmp	r5, #0
10000d4e:	d142      	bne.n	10000dd6 <best_effort_wfe_or_timeout+0x16e>
10000d50:	0212      	lsls	r2, r2, #8
10000d52:	4314      	orrs	r4, r2
10000d54:	bf20      	wfe
10000d56:	4643      	mov	r3, r8
10000d58:	681e      	ldr	r6, [r3, #0]
10000d5a:	6871      	ldr	r1, [r6, #4]
10000d5c:	f3ef 8810 	mrs	r8, PRIMASK
10000d60:	b672      	cpsid	i
10000d62:	680b      	ldr	r3, [r1, #0]
10000d64:	2b00      	cmp	r3, #0
10000d66:	d0fc      	beq.n	10000d62 <best_effort_wfe_or_timeout+0xfa>
10000d68:	f3bf 8f5f 	dmb	sy
10000d6c:	b2e3      	uxtb	r3, r4
10000d6e:	469c      	mov	ip, r3
10000d70:	6830      	ldr	r0, [r6, #0]
10000d72:	7b43      	ldrb	r3, [r0, #13]
10000d74:	4563      	cmp	r3, ip
10000d76:	d059      	beq.n	10000e2c <best_effort_wfe_or_timeout+0x1c4>
10000d78:	23ff      	movs	r3, #255	; 0xff
10000d7a:	4023      	ands	r3, r4
10000d7c:	005a      	lsls	r2, r3, #1
10000d7e:	4693      	mov	fp, r2
10000d80:	6802      	ldr	r2, [r0, #0]
10000d82:	449b      	add	fp, r3
10000d84:	4691      	mov	r9, r2
10000d86:	465a      	mov	r2, fp
10000d88:	444a      	add	r2, r9
10000d8a:	3a03      	subs	r2, #3
10000d8c:	7892      	ldrb	r2, [r2, #2]
10000d8e:	2a00      	cmp	r2, #0
10000d90:	d047      	beq.n	10000e22 <best_effort_wfe_or_timeout+0x1ba>
10000d92:	68f2      	ldr	r2, [r6, #12]
10000d94:	0a24      	lsrs	r4, r4, #8
10000d96:	4691      	mov	r9, r2
10000d98:	444b      	add	r3, r9
10000d9a:	3b01      	subs	r3, #1
10000d9c:	781b      	ldrb	r3, [r3, #0]
10000d9e:	42a3      	cmp	r3, r4
10000da0:	d049      	beq.n	10000e36 <best_effort_wfe_or_timeout+0x1ce>
10000da2:	f3bf 8f5f 	dmb	sy
10000da6:	2300      	movs	r3, #0
10000da8:	600b      	str	r3, [r1, #0]
10000daa:	f388 8810 	msr	PRIMASK, r8
10000dae:	4a27      	ldr	r2, [pc, #156]	; (10000e4c <best_effort_wfe_or_timeout+0x1e4>)
10000db0:	6a53      	ldr	r3, [r2, #36]	; 0x24
10000db2:	429f      	cmp	r7, r3
10000db4:	d807      	bhi.n	10000dc6 <best_effort_wfe_or_timeout+0x15e>
10000db6:	6a92      	ldr	r2, [r2, #40]	; 0x28
10000db8:	2501      	movs	r5, #1
10000dba:	4552      	cmp	r2, sl
10000dbc:	d203      	bcs.n	10000dc6 <best_effort_wfe_or_timeout+0x15e>
10000dbe:	1aff      	subs	r7, r7, r3
10000dc0:	1e7b      	subs	r3, r7, #1
10000dc2:	419f      	sbcs	r7, r3
10000dc4:	b2fd      	uxtb	r5, r7
10000dc6:	0028      	movs	r0, r5
10000dc8:	b003      	add	sp, #12
10000dca:	bc3c      	pop	{r2, r3, r4, r5}
10000dcc:	4690      	mov	r8, r2
10000dce:	4699      	mov	r9, r3
10000dd0:	46a2      	mov	sl, r4
10000dd2:	46ab      	mov	fp, r5
10000dd4:	bdf0      	pop	{r4, r5, r6, r7, pc}
10000dd6:	4a1d      	ldr	r2, [pc, #116]	; (10000e4c <best_effort_wfe_or_timeout+0x1e4>)
10000dd8:	2500      	movs	r5, #0
10000dda:	6a53      	ldr	r3, [r2, #36]	; 0x24
10000ddc:	429f      	cmp	r7, r3
10000dde:	d8f2      	bhi.n	10000dc6 <best_effort_wfe_or_timeout+0x15e>
10000de0:	6a92      	ldr	r2, [r2, #40]	; 0x28
10000de2:	3501      	adds	r5, #1
10000de4:	4552      	cmp	r2, sl
10000de6:	d3ea      	bcc.n	10000dbe <best_effort_wfe_or_timeout+0x156>
10000de8:	e7ed      	b.n	10000dc6 <best_effort_wfe_or_timeout+0x15e>
10000dea:	9b01      	ldr	r3, [sp, #4]
10000dec:	18d1      	adds	r1, r2, r3
10000dee:	464b      	mov	r3, r9
10000df0:	005b      	lsls	r3, r3, #1
10000df2:	444b      	add	r3, r9
10000df4:	3b03      	subs	r3, #3
10000df6:	18d3      	adds	r3, r2, r3
10000df8:	709c      	strb	r4, [r3, #2]
10000dfa:	780a      	ldrb	r2, [r1, #0]
10000dfc:	2a00      	cmp	r2, #0
10000dfe:	d000      	beq.n	10000e02 <best_effort_wfe_or_timeout+0x19a>
10000e00:	705a      	strb	r2, [r3, #1]
10000e02:	464b      	mov	r3, r9
10000e04:	700b      	strb	r3, [r1, #0]
10000e06:	736c      	strb	r4, [r5, #13]
10000e08:	7d30      	ldrb	r0, [r6, #20]
10000e0a:	4652      	mov	r2, sl
10000e0c:	003b      	movs	r3, r7
10000e0e:	f000 f8dd 	bl	10000fcc <hardware_alarm_set_target>
10000e12:	1e05      	subs	r5, r0, #0
10000e14:	d100      	bne.n	10000e18 <best_effort_wfe_or_timeout+0x1b0>
10000e16:	e788      	b.n	10000d2a <best_effort_wfe_or_timeout+0xc2>
10000e18:	0021      	movs	r1, r4
10000e1a:	6830      	ldr	r0, [r6, #0]
10000e1c:	f000 fb18 	bl	10001450 <ph_delete>
10000e20:	e784      	b.n	10000d2c <best_effort_wfe_or_timeout+0xc4>
10000e22:	6933      	ldr	r3, [r6, #16]
10000e24:	429c      	cmp	r4, r3
10000e26:	d1bc      	bne.n	10000da2 <best_effort_wfe_or_timeout+0x13a>
10000e28:	6132      	str	r2, [r6, #16]
10000e2a:	e7ba      	b.n	10000da2 <best_effort_wfe_or_timeout+0x13a>
10000e2c:	23ff      	movs	r3, #255	; 0xff
10000e2e:	4023      	ands	r3, r4
10000e30:	e7af      	b.n	10000d92 <best_effort_wfe_or_timeout+0x12a>
10000e32:	7051      	strb	r1, [r2, #1]
10000e34:	e773      	b.n	10000d1e <best_effort_wfe_or_timeout+0xb6>
10000e36:	4661      	mov	r1, ip
10000e38:	f000 fb0a 	bl	10001450 <ph_delete>
10000e3c:	6871      	ldr	r1, [r6, #4]
10000e3e:	e7b0      	b.n	10000da2 <best_effort_wfe_or_timeout+0x13a>
10000e40:	20000f54 	.word	0x20000f54
10000e44:	0fffffff 	.word	0x0fffffff
10000e48:	10000511 	.word	0x10000511
10000e4c:	40054000 	.word	0x40054000

10000e50 <hardware_alarm_irq_handler>:
10000e50:	b5f8      	push	{r3, r4, r5, r6, r7, lr}
10000e52:	46ce      	mov	lr, r9
10000e54:	4647      	mov	r7, r8
10000e56:	b580      	push	{r7, lr}
10000e58:	f3ef 8305 	mrs	r3, IPSR
10000e5c:	223f      	movs	r2, #63	; 0x3f
10000e5e:	4013      	ands	r3, r2
10000e60:	0018      	movs	r0, r3
10000e62:	3810      	subs	r0, #16
10000e64:	f3ef 8c10 	mrs	ip, PRIMASK
10000e68:	b672      	cpsid	i
10000e6a:	491b      	ldr	r1, [pc, #108]	; (10000ed8 <hardware_alarm_irq_handler+0x88>)
10000e6c:	680a      	ldr	r2, [r1, #0]
10000e6e:	2a00      	cmp	r2, #0
10000e70:	d0fc      	beq.n	10000e6c <hardware_alarm_irq_handler+0x1c>
10000e72:	f3bf 8f5f 	dmb	sy
10000e76:	2101      	movs	r1, #1
10000e78:	000f      	movs	r7, r1
10000e7a:	4087      	lsls	r7, r0
10000e7c:	4d17      	ldr	r5, [pc, #92]	; (10000edc <hardware_alarm_irq_handler+0x8c>)
10000e7e:	4a18      	ldr	r2, [pc, #96]	; (10000ee0 <hardware_alarm_irq_handler+0x90>)
10000e80:	636f      	str	r7, [r5, #52]	; 0x34
10000e82:	7814      	ldrb	r4, [r2, #0]
10000e84:	4691      	mov	r9, r2
10000e86:	0022      	movs	r2, r4
10000e88:	40c2      	lsrs	r2, r0
10000e8a:	4690      	mov	r8, r2
10000e8c:	4646      	mov	r6, r8
10000e8e:	2200      	movs	r2, #0
10000e90:	4231      	tst	r1, r6
10000e92:	d00b      	beq.n	10000eac <hardware_alarm_irq_handler+0x5c>
10000e94:	6a69      	ldr	r1, [r5, #36]	; 0x24
10000e96:	4d13      	ldr	r5, [pc, #76]	; (10000ee4 <hardware_alarm_irq_handler+0x94>)
10000e98:	4688      	mov	r8, r1
10000e9a:	0081      	lsls	r1, r0, #2
10000e9c:	594d      	ldr	r5, [r1, r5]
10000e9e:	45a8      	cmp	r8, r5
10000ea0:	d312      	bcc.n	10000ec8 <hardware_alarm_irq_handler+0x78>
10000ea2:	4b11      	ldr	r3, [pc, #68]	; (10000ee8 <hardware_alarm_irq_handler+0x98>)
10000ea4:	43bc      	bics	r4, r7
10000ea6:	58ca      	ldr	r2, [r1, r3]
10000ea8:	464b      	mov	r3, r9
10000eaa:	701c      	strb	r4, [r3, #0]
10000eac:	f3bf 8f5f 	dmb	sy
10000eb0:	2100      	movs	r1, #0
10000eb2:	4b09      	ldr	r3, [pc, #36]	; (10000ed8 <hardware_alarm_irq_handler+0x88>)
10000eb4:	6019      	str	r1, [r3, #0]
10000eb6:	f38c 8810 	msr	PRIMASK, ip
10000eba:	2a00      	cmp	r2, #0
10000ebc:	d000      	beq.n	10000ec0 <hardware_alarm_irq_handler+0x70>
10000ebe:	4790      	blx	r2
10000ec0:	bc0c      	pop	{r2, r3}
10000ec2:	4690      	mov	r8, r2
10000ec4:	4699      	mov	r9, r3
10000ec6:	bdf8      	pop	{r3, r4, r5, r6, r7, pc}
10000ec8:	4908      	ldr	r1, [pc, #32]	; (10000eec <hardware_alarm_irq_handler+0x9c>)
10000eca:	009b      	lsls	r3, r3, #2
10000ecc:	4688      	mov	r8, r1
10000ece:	4443      	add	r3, r8
10000ed0:	6819      	ldr	r1, [r3, #0]
10000ed2:	6019      	str	r1, [r3, #0]
10000ed4:	e7ea      	b.n	10000eac <hardware_alarm_irq_handler+0x5c>
10000ed6:	46c0      	nop			; (mov r8, r8)
10000ed8:	d0000128 	.word	0xd0000128
10000edc:	40054000 	.word	0x40054000
10000ee0:	20001641 	.word	0x20001641
10000ee4:	2000162c 	.word	0x2000162c
10000ee8:	20000f18 	.word	0x20000f18
10000eec:	40053fd0 	.word	0x40053fd0

10000ef0 <hardware_alarm_claim>:
10000ef0:	b510      	push	{r4, lr}
10000ef2:	0001      	movs	r1, r0
10000ef4:	4a02      	ldr	r2, [pc, #8]	; (10000f00 <hardware_alarm_claim+0x10>)
10000ef6:	4803      	ldr	r0, [pc, #12]	; (10000f04 <hardware_alarm_claim+0x14>)
10000ef8:	f7ff fa56 	bl	100003a8 <hw_claim_or_assert>
10000efc:	bd10      	pop	{r4, pc}
10000efe:	46c0      	nop			; (mov r8, r8)
10000f00:	10005a20 	.word	0x10005a20
10000f04:	2000163f 	.word	0x2000163f

10000f08 <time_us_64>:
10000f08:	4a04      	ldr	r2, [pc, #16]	; (10000f1c <time_us_64+0x14>)
10000f0a:	6a51      	ldr	r1, [r2, #36]	; 0x24
10000f0c:	e000      	b.n	10000f10 <time_us_64+0x8>
10000f0e:	0019      	movs	r1, r3
10000f10:	6a90      	ldr	r0, [r2, #40]	; 0x28
10000f12:	6a53      	ldr	r3, [r2, #36]	; 0x24
10000f14:	4299      	cmp	r1, r3
10000f16:	d1fa      	bne.n	10000f0e <time_us_64+0x6>
10000f18:	4770      	bx	lr
10000f1a:	46c0      	nop			; (mov r8, r8)
10000f1c:	40054000 	.word	0x40054000

10000f20 <busy_wait_until>:
10000f20:	4a06      	ldr	r2, [pc, #24]	; (10000f3c <busy_wait_until+0x1c>)
10000f22:	6a53      	ldr	r3, [r2, #36]	; 0x24
10000f24:	4299      	cmp	r1, r3
10000f26:	d8fc      	bhi.n	10000f22 <busy_wait_until+0x2>
10000f28:	d107      	bne.n	10000f3a <busy_wait_until+0x1a>
10000f2a:	4b04      	ldr	r3, [pc, #16]	; (10000f3c <busy_wait_until+0x1c>)
10000f2c:	e002      	b.n	10000f34 <busy_wait_until+0x14>
10000f2e:	6a5a      	ldr	r2, [r3, #36]	; 0x24
10000f30:	4291      	cmp	r1, r2
10000f32:	d102      	bne.n	10000f3a <busy_wait_until+0x1a>
10000f34:	6a9a      	ldr	r2, [r3, #40]	; 0x28
10000f36:	4282      	cmp	r2, r0
10000f38:	d3f9      	bcc.n	10000f2e <busy_wait_until+0xe>
10000f3a:	4770      	bx	lr
10000f3c:	40054000 	.word	0x40054000

10000f40 <hardware_alarm_set_callback>:
10000f40:	b570      	push	{r4, r5, r6, lr}
10000f42:	0004      	movs	r4, r0
10000f44:	000d      	movs	r5, r1
10000f46:	f3ef 8610 	mrs	r6, PRIMASK
10000f4a:	b672      	cpsid	i
10000f4c:	4a1a      	ldr	r2, [pc, #104]	; (10000fb8 <hardware_alarm_set_callback+0x78>)
10000f4e:	6813      	ldr	r3, [r2, #0]
10000f50:	2b00      	cmp	r3, #0
10000f52:	d0fc      	beq.n	10000f4e <hardware_alarm_set_callback+0xe>
10000f54:	f3bf 8f5f 	dmb	sy
10000f58:	2d00      	cmp	r5, #0
10000f5a:	d01b      	beq.n	10000f94 <hardware_alarm_set_callback+0x54>
10000f5c:	0020      	movs	r0, r4
10000f5e:	f000 fe27 	bl	10001bb0 <irq_get_vtable_handler>
10000f62:	4916      	ldr	r1, [pc, #88]	; (10000fbc <hardware_alarm_set_callback+0x7c>)
10000f64:	4288      	cmp	r0, r1
10000f66:	d00a      	beq.n	10000f7e <hardware_alarm_set_callback+0x3e>
10000f68:	0020      	movs	r0, r4
10000f6a:	f000 fe29 	bl	10001bc0 <irq_set_exclusive_handler>
10000f6e:	2101      	movs	r1, #1
10000f70:	0020      	movs	r0, r4
10000f72:	f000 fe03 	bl	10001b7c <irq_set_enabled>
10000f76:	2301      	movs	r3, #1
10000f78:	40a3      	lsls	r3, r4
10000f7a:	4a11      	ldr	r2, [pc, #68]	; (10000fc0 <hardware_alarm_set_callback+0x80>)
10000f7c:	6013      	str	r3, [r2, #0]
10000f7e:	4b11      	ldr	r3, [pc, #68]	; (10000fc4 <hardware_alarm_set_callback+0x84>)
10000f80:	00a4      	lsls	r4, r4, #2
10000f82:	50e5      	str	r5, [r4, r3]
10000f84:	f3bf 8f5f 	dmb	sy
10000f88:	2200      	movs	r2, #0
10000f8a:	4b0b      	ldr	r3, [pc, #44]	; (10000fb8 <hardware_alarm_set_callback+0x78>)
10000f8c:	601a      	str	r2, [r3, #0]
10000f8e:	f386 8810 	msr	PRIMASK, r6
10000f92:	bd70      	pop	{r4, r5, r6, pc}
10000f94:	4b0b      	ldr	r3, [pc, #44]	; (10000fc4 <hardware_alarm_set_callback+0x84>)
10000f96:	00a2      	lsls	r2, r4, #2
10000f98:	50d5      	str	r5, [r2, r3]
10000f9a:	2201      	movs	r2, #1
10000f9c:	40a2      	lsls	r2, r4
10000f9e:	490a      	ldr	r1, [pc, #40]	; (10000fc8 <hardware_alarm_set_callback+0x88>)
10000fa0:	0020      	movs	r0, r4
10000fa2:	780b      	ldrb	r3, [r1, #0]
10000fa4:	4393      	bics	r3, r2
10000fa6:	700b      	strb	r3, [r1, #0]
10000fa8:	4904      	ldr	r1, [pc, #16]	; (10000fbc <hardware_alarm_set_callback+0x7c>)
10000faa:	f000 fe33 	bl	10001c14 <irq_remove_handler>
10000fae:	2100      	movs	r1, #0
10000fb0:	0020      	movs	r0, r4
10000fb2:	f000 fde3 	bl	10001b7c <irq_set_enabled>
10000fb6:	e7e5      	b.n	10000f84 <hardware_alarm_set_callback+0x44>
10000fb8:	d0000128 	.word	0xd0000128
10000fbc:	10000e51 	.word	0x10000e51
10000fc0:	40056038 	.word	0x40056038
10000fc4:	20000f18 	.word	0x20000f18
10000fc8:	20001641 	.word	0x20001641

10000fcc <hardware_alarm_set_target>:
10000fcc:	b5f0      	push	{r4, r5, r6, r7, lr}
10000fce:	46ce      	mov	lr, r9
10000fd0:	4647      	mov	r7, r8
10000fd2:	4c29      	ldr	r4, [pc, #164]	; (10001078 <hardware_alarm_set_target+0xac>)
10000fd4:	b580      	push	{r7, lr}
10000fd6:	6a65      	ldr	r5, [r4, #36]	; 0x24
10000fd8:	e000      	b.n	10000fdc <hardware_alarm_set_target+0x10>
10000fda:	000d      	movs	r5, r1
10000fdc:	6aa6      	ldr	r6, [r4, #40]	; 0x28
10000fde:	6a61      	ldr	r1, [r4, #36]	; 0x24
10000fe0:	42a9      	cmp	r1, r5
10000fe2:	d1fa      	bne.n	10000fda <hardware_alarm_set_target+0xe>
10000fe4:	42ab      	cmp	r3, r5
10000fe6:	d937      	bls.n	10001058 <hardware_alarm_set_target+0x8c>
10000fe8:	f3ef 8810 	mrs	r8, PRIMASK
10000fec:	b672      	cpsid	i
10000fee:	4c23      	ldr	r4, [pc, #140]	; (1000107c <hardware_alarm_set_target+0xb0>)
10000ff0:	6821      	ldr	r1, [r4, #0]
10000ff2:	2900      	cmp	r1, #0
10000ff4:	d0fc      	beq.n	10000ff0 <hardware_alarm_set_target+0x24>
10000ff6:	f3bf 8f5f 	dmb	sy
10000ffa:	2501      	movs	r5, #1
10000ffc:	4085      	lsls	r5, r0
10000ffe:	491e      	ldr	r1, [pc, #120]	; (10001078 <hardware_alarm_set_target+0xac>)
10001000:	4e1f      	ldr	r6, [pc, #124]	; (10001080 <hardware_alarm_set_target+0xb4>)
10001002:	634d      	str	r5, [r1, #52]	; 0x34
10001004:	b2ec      	uxtb	r4, r5
10001006:	46a4      	mov	ip, r4
10001008:	7834      	ldrb	r4, [r6, #0]
1000100a:	46a1      	mov	r9, r4
1000100c:	4664      	mov	r4, ip
1000100e:	464f      	mov	r7, r9
10001010:	433c      	orrs	r4, r7
10001012:	7034      	strb	r4, [r6, #0]
10001014:	1d04      	adds	r4, r0, #4
10001016:	00a4      	lsls	r4, r4, #2
10001018:	5062      	str	r2, [r4, r1]
1000101a:	4c1a      	ldr	r4, [pc, #104]	; (10001084 <hardware_alarm_set_target+0xb8>)
1000101c:	0080      	lsls	r0, r0, #2
1000101e:	5103      	str	r3, [r0, r4]
10001020:	6a0c      	ldr	r4, [r1, #32]
10001022:	2000      	movs	r0, #0
10001024:	422c      	tst	r4, r5
10001026:	d00c      	beq.n	10001042 <hardware_alarm_set_target+0x76>
10001028:	6a4c      	ldr	r4, [r1, #36]	; 0x24
1000102a:	e000      	b.n	1000102e <hardware_alarm_set_target+0x62>
1000102c:	0004      	movs	r4, r0
1000102e:	6a8f      	ldr	r7, [r1, #40]	; 0x28
10001030:	6a48      	ldr	r0, [r1, #36]	; 0x24
10001032:	42a0      	cmp	r0, r4
10001034:	d1fa      	bne.n	1000102c <hardware_alarm_set_target+0x60>
10001036:	42a3      	cmp	r3, r4
10001038:	d802      	bhi.n	10001040 <hardware_alarm_set_target+0x74>
1000103a:	d113      	bne.n	10001064 <hardware_alarm_set_target+0x98>
1000103c:	42ba      	cmp	r2, r7
1000103e:	d911      	bls.n	10001064 <hardware_alarm_set_target+0x98>
10001040:	2000      	movs	r0, #0
10001042:	f3bf 8f5f 	dmb	sy
10001046:	2200      	movs	r2, #0
10001048:	4b0c      	ldr	r3, [pc, #48]	; (1000107c <hardware_alarm_set_target+0xb0>)
1000104a:	601a      	str	r2, [r3, #0]
1000104c:	f388 8810 	msr	PRIMASK, r8
10001050:	bc0c      	pop	{r2, r3}
10001052:	4690      	mov	r8, r2
10001054:	4699      	mov	r9, r3
10001056:	bdf0      	pop	{r4, r5, r6, r7, pc}
10001058:	42ab      	cmp	r3, r5
1000105a:	d101      	bne.n	10001060 <hardware_alarm_set_target+0x94>
1000105c:	42b2      	cmp	r2, r6
1000105e:	d8c3      	bhi.n	10000fe8 <hardware_alarm_set_target+0x1c>
10001060:	2001      	movs	r0, #1
10001062:	e7f5      	b.n	10001050 <hardware_alarm_set_target+0x84>
10001064:	4b04      	ldr	r3, [pc, #16]	; (10001078 <hardware_alarm_set_target+0xac>)
10001066:	464f      	mov	r7, r9
10001068:	621d      	str	r5, [r3, #32]
1000106a:	635d      	str	r5, [r3, #52]	; 0x34
1000106c:	4663      	mov	r3, ip
1000106e:	439f      	bics	r7, r3
10001070:	7037      	strb	r7, [r6, #0]
10001072:	2001      	movs	r0, #1
10001074:	e7e5      	b.n	10001042 <hardware_alarm_set_target+0x76>
10001076:	46c0      	nop			; (mov r8, r8)
10001078:	40054000 	.word	0x40054000
1000107c:	d0000128 	.word	0xd0000128
10001080:	20001641 	.word	0x20001641
10001084:	2000162c 	.word	0x2000162c

10001088 <hardware_alarm_cancel>:
10001088:	b510      	push	{r4, lr}
1000108a:	f3ef 8410 	mrs	r4, PRIMASK
1000108e:	b672      	cpsid	i
10001090:	490a      	ldr	r1, [pc, #40]	; (100010bc <hardware_alarm_cancel+0x34>)
10001092:	680b      	ldr	r3, [r1, #0]
10001094:	2b00      	cmp	r3, #0
10001096:	d0fc      	beq.n	10001092 <hardware_alarm_cancel+0xa>
10001098:	f3bf 8f5f 	dmb	sy
1000109c:	2301      	movs	r3, #1
1000109e:	4083      	lsls	r3, r0
100010a0:	4a07      	ldr	r2, [pc, #28]	; (100010c0 <hardware_alarm_cancel+0x38>)
100010a2:	4808      	ldr	r0, [pc, #32]	; (100010c4 <hardware_alarm_cancel+0x3c>)
100010a4:	6213      	str	r3, [r2, #32]
100010a6:	7802      	ldrb	r2, [r0, #0]
100010a8:	439a      	bics	r2, r3
100010aa:	7002      	strb	r2, [r0, #0]
100010ac:	f3bf 8f5f 	dmb	sy
100010b0:	2300      	movs	r3, #0
100010b2:	600b      	str	r3, [r1, #0]
100010b4:	f384 8810 	msr	PRIMASK, r4
100010b8:	bd10      	pop	{r4, pc}
100010ba:	46c0      	nop			; (mov r8, r8)
100010bc:	d0000128 	.word	0xd0000128
100010c0:	40054000 	.word	0x40054000
100010c4:	20001641 	.word	0x20001641

100010c8 <lock_init>:
100010c8:	4b02      	ldr	r3, [pc, #8]	; (100010d4 <lock_init+0xc>)
100010ca:	469c      	mov	ip, r3
100010cc:	4461      	add	r1, ip
100010ce:	0089      	lsls	r1, r1, #2
100010d0:	6001      	str	r1, [r0, #0]
100010d2:	4770      	bx	lr
100010d4:	34000040 	.word	0x34000040

100010d8 <mutex_init>:
100010d8:	b510      	push	{r4, lr}
100010da:	0004      	movs	r4, r0
100010dc:	f7ff f9da 	bl	10000494 <next_striped_spin_lock_num>
100010e0:	0001      	movs	r1, r0
100010e2:	0020      	movs	r0, r4
100010e4:	f7ff fff0 	bl	100010c8 <lock_init>
100010e8:	f3bf 8f5f 	dmb	sy
100010ec:	bd10      	pop	{r4, pc}
100010ee:	46c0      	nop			; (mov r8, r8)

100010f0 <critical_section_init>:
100010f0:	b510      	push	{r4, lr}
100010f2:	0004      	movs	r4, r0
100010f4:	2001      	movs	r0, #1
100010f6:	f7ff f9d9 	bl	100004ac <spin_lock_claim_unused>
100010fa:	0001      	movs	r1, r0
100010fc:	0020      	movs	r0, r4
100010fe:	f7ff ffe3 	bl	100010c8 <lock_init>
10001102:	f3bf 8f5f 	dmb	sy
10001106:	bd10      	pop	{r4, pc}

10001108 <ph_merge_two_pass.part.3>:
10001108:	b5f8      	push	{r3, r4, r5, r6, r7, lr}
1000110a:	464e      	mov	r6, r9
1000110c:	4645      	mov	r5, r8
1000110e:	46de      	mov	lr, fp
10001110:	4657      	mov	r7, sl
10001112:	b5e0      	push	{r5, r6, r7, lr}
10001114:	004c      	lsls	r4, r1, #1
10001116:	1864      	adds	r4, r4, r1
10001118:	6803      	ldr	r3, [r0, #0]
1000111a:	3c03      	subs	r4, #3
1000111c:	191a      	adds	r2, r3, r4
1000111e:	000d      	movs	r5, r1
10001120:	7851      	ldrb	r1, [r2, #1]
10001122:	0006      	movs	r6, r0
10001124:	4689      	mov	r9, r1
10001126:	2900      	cmp	r1, #0
10001128:	d106      	bne.n	10001138 <ph_merge_two_pass.part.3+0x30>
1000112a:	0028      	movs	r0, r5
1000112c:	bc3c      	pop	{r2, r3, r4, r5}
1000112e:	4690      	mov	r8, r2
10001130:	4699      	mov	r9, r3
10001132:	46a2      	mov	sl, r4
10001134:	46ab      	mov	fp, r5
10001136:	bdf8      	pop	{r3, r4, r5, r6, r7, pc}
10001138:	004f      	lsls	r7, r1, #1
1000113a:	444f      	add	r7, r9
1000113c:	3f03      	subs	r7, #3
1000113e:	19d8      	adds	r0, r3, r7
10001140:	7841      	ldrb	r1, [r0, #1]
10001142:	4688      	mov	r8, r1
10001144:	2100      	movs	r1, #0
10001146:	7041      	strb	r1, [r0, #1]
10001148:	7051      	strb	r1, [r2, #1]
1000114a:	2d00      	cmp	r5, #0
1000114c:	d012      	beq.n	10001174 <ph_merge_two_pass.part.3+0x6c>
1000114e:	6873      	ldr	r3, [r6, #4]
10001150:	464a      	mov	r2, r9
10001152:	0029      	movs	r1, r5
10001154:	68b0      	ldr	r0, [r6, #8]
10001156:	4798      	blx	r3
10001158:	6833      	ldr	r3, [r6, #0]
1000115a:	2800      	cmp	r0, #0
1000115c:	d073      	beq.n	10001246 <ph_merge_two_pass.part.3+0x13e>
1000115e:	19df      	adds	r7, r3, r7
10001160:	191a      	adds	r2, r3, r4
10001162:	70bd      	strb	r5, [r7, #2]
10001164:	7811      	ldrb	r1, [r2, #0]
10001166:	2900      	cmp	r1, #0
10001168:	d000      	beq.n	1000116c <ph_merge_two_pass.part.3+0x64>
1000116a:	7079      	strb	r1, [r7, #1]
1000116c:	4649      	mov	r1, r9
1000116e:	0027      	movs	r7, r4
10001170:	7011      	strb	r1, [r2, #0]
10001172:	e000      	b.n	10001176 <ph_merge_two_pass.part.3+0x6e>
10001174:	464d      	mov	r5, r9
10001176:	4642      	mov	r2, r8
10001178:	2a00      	cmp	r2, #0
1000117a:	d0d6      	beq.n	1000112a <ph_merge_two_pass.part.3+0x22>
1000117c:	0054      	lsls	r4, r2, #1
1000117e:	4444      	add	r4, r8
10001180:	3c03      	subs	r4, #3
10001182:	191a      	adds	r2, r3, r4
10001184:	7851      	ldrb	r1, [r2, #1]
10001186:	4689      	mov	r9, r1
10001188:	2900      	cmp	r1, #0
1000118a:	d111      	bne.n	100011b0 <ph_merge_two_pass.part.3+0xa8>
1000118c:	6873      	ldr	r3, [r6, #4]
1000118e:	4642      	mov	r2, r8
10001190:	0029      	movs	r1, r5
10001192:	68b0      	ldr	r0, [r6, #8]
10001194:	4798      	blx	r3
10001196:	6833      	ldr	r3, [r6, #0]
10001198:	2800      	cmp	r0, #0
1000119a:	d049      	beq.n	10001230 <ph_merge_two_pass.part.3+0x128>
1000119c:	191c      	adds	r4, r3, r4
1000119e:	19df      	adds	r7, r3, r7
100011a0:	70a5      	strb	r5, [r4, #2]
100011a2:	783b      	ldrb	r3, [r7, #0]
100011a4:	2b00      	cmp	r3, #0
100011a6:	d000      	beq.n	100011aa <ph_merge_two_pass.part.3+0xa2>
100011a8:	7063      	strb	r3, [r4, #1]
100011aa:	4643      	mov	r3, r8
100011ac:	703b      	strb	r3, [r7, #0]
100011ae:	e7bc      	b.n	1000112a <ph_merge_two_pass.part.3+0x22>
100011b0:	0049      	lsls	r1, r1, #1
100011b2:	4449      	add	r1, r9
100011b4:	3903      	subs	r1, #3
100011b6:	468a      	mov	sl, r1
100011b8:	4453      	add	r3, sl
100011ba:	7859      	ldrb	r1, [r3, #1]
100011bc:	468b      	mov	fp, r1
100011be:	2100      	movs	r1, #0
100011c0:	7059      	strb	r1, [r3, #1]
100011c2:	7051      	strb	r1, [r2, #1]
100011c4:	6873      	ldr	r3, [r6, #4]
100011c6:	464a      	mov	r2, r9
100011c8:	4641      	mov	r1, r8
100011ca:	68b0      	ldr	r0, [r6, #8]
100011cc:	4798      	blx	r3
100011ce:	6833      	ldr	r3, [r6, #0]
100011d0:	2800      	cmp	r0, #0
100011d2:	d143      	bne.n	1000125c <ph_merge_two_pass.part.3+0x154>
100011d4:	4652      	mov	r2, sl
100011d6:	191c      	adds	r4, r3, r4
100011d8:	189a      	adds	r2, r3, r2
100011da:	464b      	mov	r3, r9
100011dc:	70a3      	strb	r3, [r4, #2]
100011de:	7813      	ldrb	r3, [r2, #0]
100011e0:	2b00      	cmp	r3, #0
100011e2:	d000      	beq.n	100011e6 <ph_merge_two_pass.part.3+0xde>
100011e4:	7063      	strb	r3, [r4, #1]
100011e6:	4643      	mov	r3, r8
100011e8:	4654      	mov	r4, sl
100011ea:	46c8      	mov	r8, r9
100011ec:	7013      	strb	r3, [r2, #0]
100011ee:	465b      	mov	r3, fp
100011f0:	2b00      	cmp	r3, #0
100011f2:	d0cb      	beq.n	1000118c <ph_merge_two_pass.part.3+0x84>
100011f4:	4659      	mov	r1, fp
100011f6:	0030      	movs	r0, r6
100011f8:	f7ff ff86 	bl	10001108 <ph_merge_two_pass.part.3>
100011fc:	4681      	mov	r9, r0
100011fe:	2800      	cmp	r0, #0
10001200:	d0c4      	beq.n	1000118c <ph_merge_two_pass.part.3+0x84>
10001202:	0002      	movs	r2, r0
10001204:	4641      	mov	r1, r8
10001206:	68b0      	ldr	r0, [r6, #8]
10001208:	6873      	ldr	r3, [r6, #4]
1000120a:	4798      	blx	r3
1000120c:	6832      	ldr	r2, [r6, #0]
1000120e:	2800      	cmp	r0, #0
10001210:	d02f      	beq.n	10001272 <ph_merge_two_pass.part.3+0x16a>
10001212:	464b      	mov	r3, r9
10001214:	005b      	lsls	r3, r3, #1
10001216:	444b      	add	r3, r9
10001218:	3b03      	subs	r3, #3
1000121a:	1911      	adds	r1, r2, r4
1000121c:	18d3      	adds	r3, r2, r3
1000121e:	4642      	mov	r2, r8
10001220:	709a      	strb	r2, [r3, #2]
10001222:	780a      	ldrb	r2, [r1, #0]
10001224:	2a00      	cmp	r2, #0
10001226:	d000      	beq.n	1000122a <ph_merge_two_pass.part.3+0x122>
10001228:	705a      	strb	r2, [r3, #1]
1000122a:	464b      	mov	r3, r9
1000122c:	700b      	strb	r3, [r1, #0]
1000122e:	e7ad      	b.n	1000118c <ph_merge_two_pass.part.3+0x84>
10001230:	191c      	adds	r4, r3, r4
10001232:	19df      	adds	r7, r3, r7
10001234:	4643      	mov	r3, r8
10001236:	70bb      	strb	r3, [r7, #2]
10001238:	7823      	ldrb	r3, [r4, #0]
1000123a:	2b00      	cmp	r3, #0
1000123c:	d000      	beq.n	10001240 <ph_merge_two_pass.part.3+0x138>
1000123e:	707b      	strb	r3, [r7, #1]
10001240:	7025      	strb	r5, [r4, #0]
10001242:	4645      	mov	r5, r8
10001244:	e771      	b.n	1000112a <ph_merge_two_pass.part.3+0x22>
10001246:	4649      	mov	r1, r9
10001248:	191c      	adds	r4, r3, r4
1000124a:	19da      	adds	r2, r3, r7
1000124c:	70a1      	strb	r1, [r4, #2]
1000124e:	7811      	ldrb	r1, [r2, #0]
10001250:	2900      	cmp	r1, #0
10001252:	d000      	beq.n	10001256 <ph_merge_two_pass.part.3+0x14e>
10001254:	7061      	strb	r1, [r4, #1]
10001256:	7015      	strb	r5, [r2, #0]
10001258:	464d      	mov	r5, r9
1000125a:	e78c      	b.n	10001176 <ph_merge_two_pass.part.3+0x6e>
1000125c:	4641      	mov	r1, r8
1000125e:	191a      	adds	r2, r3, r4
10001260:	4453      	add	r3, sl
10001262:	7099      	strb	r1, [r3, #2]
10001264:	7811      	ldrb	r1, [r2, #0]
10001266:	2900      	cmp	r1, #0
10001268:	d000      	beq.n	1000126c <ph_merge_two_pass.part.3+0x164>
1000126a:	7059      	strb	r1, [r3, #1]
1000126c:	464b      	mov	r3, r9
1000126e:	7013      	strb	r3, [r2, #0]
10001270:	e7bd      	b.n	100011ee <ph_merge_two_pass.part.3+0xe6>
10001272:	464b      	mov	r3, r9
10001274:	005b      	lsls	r3, r3, #1
10001276:	444b      	add	r3, r9
10001278:	3b03      	subs	r3, #3
1000127a:	18d1      	adds	r1, r2, r3
1000127c:	1914      	adds	r4, r2, r4
1000127e:	464a      	mov	r2, r9
10001280:	70a2      	strb	r2, [r4, #2]
10001282:	780a      	ldrb	r2, [r1, #0]
10001284:	2a00      	cmp	r2, #0
10001286:	d000      	beq.n	1000128a <ph_merge_two_pass.part.3+0x182>
10001288:	7062      	strb	r2, [r4, #1]
1000128a:	4642      	mov	r2, r8
1000128c:	001c      	movs	r4, r3
1000128e:	700a      	strb	r2, [r1, #0]
10001290:	46c8      	mov	r8, r9
10001292:	e77b      	b.n	1000118c <ph_merge_two_pass.part.3+0x84>

10001294 <ph_create>:
10001294:	b5f0      	push	{r4, r5, r6, r7, lr}
10001296:	46c6      	mov	lr, r8
10001298:	0005      	movs	r5, r0
1000129a:	000e      	movs	r6, r1
1000129c:	b500      	push	{lr}
1000129e:	2110      	movs	r1, #16
100012a0:	2001      	movs	r0, #1
100012a2:	4690      	mov	r8, r2
100012a4:	f000 ff44 	bl	10002130 <__wrap_calloc>
100012a8:	b2ef      	uxtb	r7, r5
100012aa:	0004      	movs	r4, r0
100012ac:	6046      	str	r6, [r0, #4]
100012ae:	7307      	strb	r7, [r0, #12]
100012b0:	2103      	movs	r1, #3
100012b2:	0028      	movs	r0, r5
100012b4:	f000 ff3c 	bl	10002130 <__wrap_calloc>
100012b8:	4643      	mov	r3, r8
100012ba:	60a3      	str	r3, [r4, #8]
100012bc:	2300      	movs	r3, #0
100012be:	0006      	movs	r6, r0
100012c0:	6020      	str	r0, [r4, #0]
100012c2:	20ff      	movs	r0, #255	; 0xff
100012c4:	7363      	strb	r3, [r4, #13]
100012c6:	3301      	adds	r3, #1
100012c8:	73a3      	strb	r3, [r4, #14]
100012ca:	73e7      	strb	r7, [r4, #15]
100012cc:	4028      	ands	r0, r5
100012ce:	2801      	cmp	r0, #1
100012d0:	d907      	bls.n	100012e2 <ph_create+0x4e>
100012d2:	1c72      	adds	r2, r6, #1
100012d4:	1c41      	adds	r1, r0, #1
100012d6:	3301      	adds	r3, #1
100012d8:	7013      	strb	r3, [r2, #0]
100012da:	3301      	adds	r3, #1
100012dc:	3203      	adds	r2, #3
100012de:	4299      	cmp	r1, r3
100012e0:	d1fa      	bne.n	100012d8 <ph_create+0x44>
100012e2:	0043      	lsls	r3, r0, #1
100012e4:	1818      	adds	r0, r3, r0
100012e6:	2300      	movs	r3, #0
100012e8:	1830      	adds	r0, r6, r0
100012ea:	3803      	subs	r0, #3
100012ec:	7043      	strb	r3, [r0, #1]
100012ee:	0020      	movs	r0, r4
100012f0:	bc04      	pop	{r2}
100012f2:	4690      	mov	r8, r2
100012f4:	bdf0      	pop	{r4, r5, r6, r7, pc}
100012f6:	46c0      	nop			; (mov r8, r8)

100012f8 <ph_remove_head_reserve>:
100012f8:	b5f0      	push	{r4, r5, r6, r7, lr}
100012fa:	464e      	mov	r6, r9
100012fc:	4657      	mov	r7, sl
100012fe:	4645      	mov	r5, r8
10001300:	46de      	mov	lr, fp
10001302:	b5e0      	push	{r5, r6, r7, lr}
10001304:	7b47      	ldrb	r7, [r0, #13]
10001306:	6803      	ldr	r3, [r0, #0]
10001308:	007c      	lsls	r4, r7, #1
1000130a:	19e4      	adds	r4, r4, r7
1000130c:	3c03      	subs	r4, #3
1000130e:	191a      	adds	r2, r3, r4
10001310:	7816      	ldrb	r6, [r2, #0]
10001312:	b083      	sub	sp, #12
10001314:	0005      	movs	r5, r0
10001316:	4689      	mov	r9, r1
10001318:	2e00      	cmp	r6, #0
1000131a:	d11e      	bne.n	1000135a <ph_remove_head_reserve+0x62>
1000131c:	2900      	cmp	r1, #0
1000131e:	d111      	bne.n	10001344 <ph_remove_head_reserve+0x4c>
10001320:	7bc0      	ldrb	r0, [r0, #15]
10001322:	2800      	cmp	r0, #0
10001324:	d069      	beq.n	100013fa <ph_remove_head_reserve+0x102>
10001326:	0041      	lsls	r1, r0, #1
10001328:	1809      	adds	r1, r1, r0
1000132a:	1859      	adds	r1, r3, r1
1000132c:	3903      	subs	r1, #3
1000132e:	704f      	strb	r7, [r1, #1]
10001330:	73ef      	strb	r7, [r5, #15]
10001332:	2e00      	cmp	r6, #0
10001334:	d006      	beq.n	10001344 <ph_remove_head_reserve+0x4c>
10001336:	0071      	lsls	r1, r6, #1
10001338:	1989      	adds	r1, r1, r6
1000133a:	3903      	subs	r1, #3
1000133c:	4688      	mov	r8, r1
1000133e:	2100      	movs	r1, #0
10001340:	4443      	add	r3, r8
10001342:	7099      	strb	r1, [r3, #2]
10001344:	2300      	movs	r3, #0
10001346:	0038      	movs	r0, r7
10001348:	7053      	strb	r3, [r2, #1]
1000134a:	736e      	strb	r6, [r5, #13]
1000134c:	b003      	add	sp, #12
1000134e:	bc3c      	pop	{r2, r3, r4, r5}
10001350:	4690      	mov	r8, r2
10001352:	4699      	mov	r9, r3
10001354:	46a2      	mov	sl, r4
10001356:	46ab      	mov	fp, r5
10001358:	bdf0      	pop	{r4, r5, r6, r7, pc}
1000135a:	0071      	lsls	r1, r6, #1
1000135c:	1989      	adds	r1, r1, r6
1000135e:	3903      	subs	r1, #3
10001360:	4688      	mov	r8, r1
10001362:	1859      	adds	r1, r3, r1
10001364:	7848      	ldrb	r0, [r1, #1]
10001366:	4682      	mov	sl, r0
10001368:	2800      	cmp	r0, #0
1000136a:	d107      	bne.n	1000137c <ph_remove_head_reserve+0x84>
1000136c:	4649      	mov	r1, r9
1000136e:	2900      	cmp	r1, #0
10001370:	d1e5      	bne.n	1000133e <ph_remove_head_reserve+0x46>
10001372:	7be8      	ldrb	r0, [r5, #15]
10001374:	2800      	cmp	r0, #0
10001376:	d1d6      	bne.n	10001326 <ph_remove_head_reserve+0x2e>
10001378:	73ef      	strb	r7, [r5, #15]
1000137a:	e7dc      	b.n	10001336 <ph_remove_head_reserve+0x3e>
1000137c:	0042      	lsls	r2, r0, #1
1000137e:	4452      	add	r2, sl
10001380:	3a03      	subs	r2, #3
10001382:	4694      	mov	ip, r2
10001384:	9201      	str	r2, [sp, #4]
10001386:	4463      	add	r3, ip
10001388:	785a      	ldrb	r2, [r3, #1]
1000138a:	4693      	mov	fp, r2
1000138c:	2200      	movs	r2, #0
1000138e:	705a      	strb	r2, [r3, #1]
10001390:	704a      	strb	r2, [r1, #1]
10001392:	686b      	ldr	r3, [r5, #4]
10001394:	4652      	mov	r2, sl
10001396:	0031      	movs	r1, r6
10001398:	68a8      	ldr	r0, [r5, #8]
1000139a:	4798      	blx	r3
1000139c:	682b      	ldr	r3, [r5, #0]
1000139e:	2800      	cmp	r0, #0
100013a0:	d032      	beq.n	10001408 <ph_remove_head_reserve+0x110>
100013a2:	4641      	mov	r1, r8
100013a4:	9801      	ldr	r0, [sp, #4]
100013a6:	185a      	adds	r2, r3, r1
100013a8:	1819      	adds	r1, r3, r0
100013aa:	708e      	strb	r6, [r1, #2]
100013ac:	7810      	ldrb	r0, [r2, #0]
100013ae:	2800      	cmp	r0, #0
100013b0:	d125      	bne.n	100013fe <ph_remove_head_reserve+0x106>
100013b2:	4651      	mov	r1, sl
100013b4:	7011      	strb	r1, [r2, #0]
100013b6:	465a      	mov	r2, fp
100013b8:	2a00      	cmp	r2, #0
100013ba:	d023      	beq.n	10001404 <ph_remove_head_reserve+0x10c>
100013bc:	4659      	mov	r1, fp
100013be:	0028      	movs	r0, r5
100013c0:	f7ff fea2 	bl	10001108 <ph_merge_two_pass.part.3>
100013c4:	4682      	mov	sl, r0
100013c6:	2800      	cmp	r0, #0
100013c8:	d01b      	beq.n	10001402 <ph_remove_head_reserve+0x10a>
100013ca:	0002      	movs	r2, r0
100013cc:	686b      	ldr	r3, [r5, #4]
100013ce:	0031      	movs	r1, r6
100013d0:	68a8      	ldr	r0, [r5, #8]
100013d2:	4798      	blx	r3
100013d4:	682b      	ldr	r3, [r5, #0]
100013d6:	2800      	cmp	r0, #0
100013d8:	d025      	beq.n	10001426 <ph_remove_head_reserve+0x12e>
100013da:	4642      	mov	r2, r8
100013dc:	1899      	adds	r1, r3, r2
100013de:	4652      	mov	r2, sl
100013e0:	0052      	lsls	r2, r2, #1
100013e2:	4452      	add	r2, sl
100013e4:	3a03      	subs	r2, #3
100013e6:	189a      	adds	r2, r3, r2
100013e8:	7096      	strb	r6, [r2, #2]
100013ea:	7808      	ldrb	r0, [r1, #0]
100013ec:	2800      	cmp	r0, #0
100013ee:	d000      	beq.n	100013f2 <ph_remove_head_reserve+0xfa>
100013f0:	7050      	strb	r0, [r2, #1]
100013f2:	4652      	mov	r2, sl
100013f4:	700a      	strb	r2, [r1, #0]
100013f6:	191a      	adds	r2, r3, r4
100013f8:	e7b8      	b.n	1000136c <ph_remove_head_reserve+0x74>
100013fa:	73ef      	strb	r7, [r5, #15]
100013fc:	e7a2      	b.n	10001344 <ph_remove_head_reserve+0x4c>
100013fe:	7048      	strb	r0, [r1, #1]
10001400:	e7d7      	b.n	100013b2 <ph_remove_head_reserve+0xba>
10001402:	682b      	ldr	r3, [r5, #0]
10001404:	191a      	adds	r2, r3, r4
10001406:	e7b1      	b.n	1000136c <ph_remove_head_reserve+0x74>
10001408:	4641      	mov	r1, r8
1000140a:	4650      	mov	r0, sl
1000140c:	9a01      	ldr	r2, [sp, #4]
1000140e:	1859      	adds	r1, r3, r1
10001410:	189a      	adds	r2, r3, r2
10001412:	7088      	strb	r0, [r1, #2]
10001414:	7810      	ldrb	r0, [r2, #0]
10001416:	2800      	cmp	r0, #0
10001418:	d000      	beq.n	1000141c <ph_remove_head_reserve+0x124>
1000141a:	7048      	strb	r0, [r1, #1]
1000141c:	7016      	strb	r6, [r2, #0]
1000141e:	9a01      	ldr	r2, [sp, #4]
10001420:	4656      	mov	r6, sl
10001422:	4690      	mov	r8, r2
10001424:	e7c7      	b.n	100013b6 <ph_remove_head_reserve+0xbe>
10001426:	4652      	mov	r2, sl
10001428:	0051      	lsls	r1, r2, #1
1000142a:	4451      	add	r1, sl
1000142c:	3903      	subs	r1, #3
1000142e:	185a      	adds	r2, r3, r1
10001430:	4640      	mov	r0, r8
10001432:	4693      	mov	fp, r2
10001434:	4652      	mov	r2, sl
10001436:	1818      	adds	r0, r3, r0
10001438:	7082      	strb	r2, [r0, #2]
1000143a:	465a      	mov	r2, fp
1000143c:	7812      	ldrb	r2, [r2, #0]
1000143e:	2a00      	cmp	r2, #0
10001440:	d000      	beq.n	10001444 <ph_remove_head_reserve+0x14c>
10001442:	7042      	strb	r2, [r0, #1]
10001444:	465a      	mov	r2, fp
10001446:	4688      	mov	r8, r1
10001448:	7016      	strb	r6, [r2, #0]
1000144a:	191a      	adds	r2, r3, r4
1000144c:	4656      	mov	r6, sl
1000144e:	e78d      	b.n	1000136c <ph_remove_head_reserve+0x74>

10001450 <ph_delete>:
10001450:	b5f0      	push	{r4, r5, r6, r7, lr}
10001452:	4645      	mov	r5, r8
10001454:	46de      	mov	lr, fp
10001456:	4657      	mov	r7, sl
10001458:	464e      	mov	r6, r9
1000145a:	b5e0      	push	{r5, r6, r7, lr}
1000145c:	000c      	movs	r4, r1
1000145e:	b083      	sub	sp, #12
10001460:	0005      	movs	r5, r0
10001462:	2200      	movs	r2, #0
10001464:	2900      	cmp	r1, #0
10001466:	d03d      	beq.n	100014e4 <ph_delete+0x94>
10001468:	7b47      	ldrb	r7, [r0, #13]
1000146a:	6801      	ldr	r1, [r0, #0]
1000146c:	42bc      	cmp	r4, r7
1000146e:	d06b      	beq.n	10001548 <ph_delete+0xf8>
10001470:	0066      	lsls	r6, r4, #1
10001472:	1936      	adds	r6, r6, r4
10001474:	3e03      	subs	r6, #3
10001476:	1988      	adds	r0, r1, r6
10001478:	7883      	ldrb	r3, [r0, #2]
1000147a:	2b00      	cmp	r3, #0
1000147c:	d032      	beq.n	100014e4 <ph_delete+0x94>
1000147e:	005a      	lsls	r2, r3, #1
10001480:	18d3      	adds	r3, r2, r3
10001482:	3b03      	subs	r3, #3
10001484:	18cb      	adds	r3, r1, r3
10001486:	781a      	ldrb	r2, [r3, #0]
10001488:	4294      	cmp	r4, r2
1000148a:	d102      	bne.n	10001492 <ph_delete+0x42>
1000148c:	e043      	b.n	10001516 <ph_delete+0xc6>
1000148e:	2a00      	cmp	r2, #0
10001490:	d008      	beq.n	100014a4 <ph_delete+0x54>
10001492:	0053      	lsls	r3, r2, #1
10001494:	189b      	adds	r3, r3, r2
10001496:	3b03      	subs	r3, #3
10001498:	18cb      	adds	r3, r1, r3
1000149a:	785a      	ldrb	r2, [r3, #1]
1000149c:	4294      	cmp	r4, r2
1000149e:	d1f6      	bne.n	1000148e <ph_delete+0x3e>
100014a0:	7842      	ldrb	r2, [r0, #1]
100014a2:	705a      	strb	r2, [r3, #1]
100014a4:	2300      	movs	r3, #0
100014a6:	7083      	strb	r3, [r0, #2]
100014a8:	7043      	strb	r3, [r0, #1]
100014aa:	7803      	ldrb	r3, [r0, #0]
100014ac:	4698      	mov	r8, r3
100014ae:	2b00      	cmp	r3, #0
100014b0:	d125      	bne.n	100014fe <ph_delete+0xae>
100014b2:	7bea      	ldrb	r2, [r5, #15]
100014b4:	2a00      	cmp	r2, #0
100014b6:	d01d      	beq.n	100014f4 <ph_delete+0xa4>
100014b8:	0053      	lsls	r3, r2, #1
100014ba:	189b      	adds	r3, r3, r2
100014bc:	18cb      	adds	r3, r1, r3
100014be:	3b03      	subs	r3, #3
100014c0:	705c      	strb	r4, [r3, #1]
100014c2:	4643      	mov	r3, r8
100014c4:	73ec      	strb	r4, [r5, #15]
100014c6:	2b00      	cmp	r3, #0
100014c8:	d100      	bne.n	100014cc <ph_delete+0x7c>
100014ca:	e071      	b.n	100015b0 <ph_delete+0x160>
100014cc:	005c      	lsls	r4, r3, #1
100014ce:	2300      	movs	r3, #0
100014d0:	4444      	add	r4, r8
100014d2:	3c03      	subs	r4, #3
100014d4:	1909      	adds	r1, r1, r4
100014d6:	708b      	strb	r3, [r1, #2]
100014d8:	7043      	strb	r3, [r0, #1]
100014da:	2f00      	cmp	r7, #0
100014dc:	d11e      	bne.n	1000151c <ph_delete+0xcc>
100014de:	4643      	mov	r3, r8
100014e0:	2201      	movs	r2, #1
100014e2:	736b      	strb	r3, [r5, #13]
100014e4:	0010      	movs	r0, r2
100014e6:	b003      	add	sp, #12
100014e8:	bc3c      	pop	{r2, r3, r4, r5}
100014ea:	4690      	mov	r8, r2
100014ec:	4699      	mov	r9, r3
100014ee:	46a2      	mov	sl, r4
100014f0:	46ab      	mov	fp, r5
100014f2:	bdf0      	pop	{r4, r5, r6, r7, pc}
100014f4:	46b8      	mov	r8, r7
100014f6:	73ec      	strb	r4, [r5, #15]
100014f8:	2300      	movs	r3, #0
100014fa:	7043      	strb	r3, [r0, #1]
100014fc:	e7ef      	b.n	100014de <ph_delete+0x8e>
100014fe:	0019      	movs	r1, r3
10001500:	0028      	movs	r0, r5
10001502:	f7ff fe01 	bl	10001108 <ph_merge_two_pass.part.3>
10001506:	6829      	ldr	r1, [r5, #0]
10001508:	7bea      	ldrb	r2, [r5, #15]
1000150a:	4680      	mov	r8, r0
1000150c:	7b6f      	ldrb	r7, [r5, #13]
1000150e:	1988      	adds	r0, r1, r6
10001510:	2a00      	cmp	r2, #0
10001512:	d0d6      	beq.n	100014c2 <ph_delete+0x72>
10001514:	e7d0      	b.n	100014b8 <ph_delete+0x68>
10001516:	7842      	ldrb	r2, [r0, #1]
10001518:	701a      	strb	r2, [r3, #0]
1000151a:	e7c3      	b.n	100014a4 <ph_delete+0x54>
1000151c:	4642      	mov	r2, r8
1000151e:	0039      	movs	r1, r7
10001520:	68a8      	ldr	r0, [r5, #8]
10001522:	686b      	ldr	r3, [r5, #4]
10001524:	4798      	blx	r3
10001526:	682a      	ldr	r2, [r5, #0]
10001528:	2800      	cmp	r0, #0
1000152a:	d024      	beq.n	10001576 <ph_delete+0x126>
1000152c:	007b      	lsls	r3, r7, #1
1000152e:	19db      	adds	r3, r3, r7
10001530:	1914      	adds	r4, r2, r4
10001532:	3b03      	subs	r3, #3
10001534:	18d3      	adds	r3, r2, r3
10001536:	70a7      	strb	r7, [r4, #2]
10001538:	781a      	ldrb	r2, [r3, #0]
1000153a:	2a00      	cmp	r2, #0
1000153c:	d000      	beq.n	10001540 <ph_delete+0xf0>
1000153e:	7062      	strb	r2, [r4, #1]
10001540:	4642      	mov	r2, r8
10001542:	46b8      	mov	r8, r7
10001544:	701a      	strb	r2, [r3, #0]
10001546:	e7ca      	b.n	100014de <ph_delete+0x8e>
10001548:	007e      	lsls	r6, r7, #1
1000154a:	19f6      	adds	r6, r6, r7
1000154c:	3e03      	subs	r6, #3
1000154e:	198b      	adds	r3, r1, r6
10001550:	7818      	ldrb	r0, [r3, #0]
10001552:	4680      	mov	r8, r0
10001554:	2800      	cmp	r0, #0
10001556:	d11b      	bne.n	10001590 <ph_delete+0x140>
10001558:	7be8      	ldrb	r0, [r5, #15]
1000155a:	2800      	cmp	r0, #0
1000155c:	d004      	beq.n	10001568 <ph_delete+0x118>
1000155e:	0042      	lsls	r2, r0, #1
10001560:	1812      	adds	r2, r2, r0
10001562:	188a      	adds	r2, r1, r2
10001564:	3a03      	subs	r2, #3
10001566:	7054      	strb	r4, [r2, #1]
10001568:	73ec      	strb	r4, [r5, #15]
1000156a:	2200      	movs	r2, #0
1000156c:	705a      	strb	r2, [r3, #1]
1000156e:	4643      	mov	r3, r8
10001570:	3201      	adds	r2, #1
10001572:	736b      	strb	r3, [r5, #13]
10001574:	e7b6      	b.n	100014e4 <ph_delete+0x94>
10001576:	007b      	lsls	r3, r7, #1
10001578:	19db      	adds	r3, r3, r7
1000157a:	3b03      	subs	r3, #3
1000157c:	1914      	adds	r4, r2, r4
1000157e:	18d3      	adds	r3, r2, r3
10001580:	4642      	mov	r2, r8
10001582:	709a      	strb	r2, [r3, #2]
10001584:	7822      	ldrb	r2, [r4, #0]
10001586:	2a00      	cmp	r2, #0
10001588:	d000      	beq.n	1000158c <ph_delete+0x13c>
1000158a:	705a      	strb	r2, [r3, #1]
1000158c:	7027      	strb	r7, [r4, #0]
1000158e:	e7a6      	b.n	100014de <ph_delete+0x8e>
10001590:	0044      	lsls	r4, r0, #1
10001592:	4444      	add	r4, r8
10001594:	1ee0      	subs	r0, r4, #3
10001596:	9001      	str	r0, [sp, #4]
10001598:	1808      	adds	r0, r1, r0
1000159a:	7844      	ldrb	r4, [r0, #1]
1000159c:	46a2      	mov	sl, r4
1000159e:	2c00      	cmp	r4, #0
100015a0:	d108      	bne.n	100015b4 <ph_delete+0x164>
100015a2:	7bec      	ldrb	r4, [r5, #15]
100015a4:	2c00      	cmp	r4, #0
100015a6:	d176      	bne.n	10001696 <ph_delete+0x246>
100015a8:	73ef      	strb	r7, [r5, #15]
100015aa:	2200      	movs	r2, #0
100015ac:	7082      	strb	r2, [r0, #2]
100015ae:	e7dc      	b.n	1000156a <ph_delete+0x11a>
100015b0:	46b8      	mov	r8, r7
100015b2:	e7a1      	b.n	100014f8 <ph_delete+0xa8>
100015b4:	0063      	lsls	r3, r4, #1
100015b6:	4453      	add	r3, sl
100015b8:	3b03      	subs	r3, #3
100015ba:	4699      	mov	r9, r3
100015bc:	4449      	add	r1, r9
100015be:	784b      	ldrb	r3, [r1, #1]
100015c0:	704a      	strb	r2, [r1, #1]
100015c2:	7042      	strb	r2, [r0, #1]
100015c4:	469b      	mov	fp, r3
100015c6:	0022      	movs	r2, r4
100015c8:	686b      	ldr	r3, [r5, #4]
100015ca:	4641      	mov	r1, r8
100015cc:	68a8      	ldr	r0, [r5, #8]
100015ce:	4798      	blx	r3
100015d0:	682b      	ldr	r3, [r5, #0]
100015d2:	2800      	cmp	r0, #0
100015d4:	d04b      	beq.n	1000166e <ph_delete+0x21e>
100015d6:	4649      	mov	r1, r9
100015d8:	4640      	mov	r0, r8
100015da:	9c01      	ldr	r4, [sp, #4]
100015dc:	1859      	adds	r1, r3, r1
100015de:	191a      	adds	r2, r3, r4
100015e0:	7088      	strb	r0, [r1, #2]
100015e2:	7810      	ldrb	r0, [r2, #0]
100015e4:	2800      	cmp	r0, #0
100015e6:	d150      	bne.n	1000168a <ph_delete+0x23a>
100015e8:	4651      	mov	r1, sl
100015ea:	46a1      	mov	r9, r4
100015ec:	7011      	strb	r1, [r2, #0]
100015ee:	465a      	mov	r2, fp
100015f0:	2a00      	cmp	r2, #0
100015f2:	d020      	beq.n	10001636 <ph_delete+0x1e6>
100015f4:	4659      	mov	r1, fp
100015f6:	0028      	movs	r0, r5
100015f8:	f7ff fd86 	bl	10001108 <ph_merge_two_pass.part.3>
100015fc:	1e04      	subs	r4, r0, #0
100015fe:	d019      	beq.n	10001634 <ph_delete+0x1e4>
10001600:	0002      	movs	r2, r0
10001602:	4641      	mov	r1, r8
10001604:	68a8      	ldr	r0, [r5, #8]
10001606:	686b      	ldr	r3, [r5, #4]
10001608:	4798      	blx	r3
1000160a:	2800      	cmp	r0, #0
1000160c:	d01e      	beq.n	1000164c <ph_delete+0x1fc>
1000160e:	464a      	mov	r2, r9
10001610:	4641      	mov	r1, r8
10001612:	682b      	ldr	r3, [r5, #0]
10001614:	1898      	adds	r0, r3, r2
10001616:	0062      	lsls	r2, r4, #1
10001618:	1912      	adds	r2, r2, r4
1000161a:	3a03      	subs	r2, #3
1000161c:	189a      	adds	r2, r3, r2
1000161e:	7091      	strb	r1, [r2, #2]
10001620:	7801      	ldrb	r1, [r0, #0]
10001622:	2900      	cmp	r1, #0
10001624:	d000      	beq.n	10001628 <ph_delete+0x1d8>
10001626:	7051      	strb	r1, [r2, #1]
10001628:	7004      	strb	r4, [r0, #0]
1000162a:	7be9      	ldrb	r1, [r5, #15]
1000162c:	2900      	cmp	r1, #0
1000162e:	d105      	bne.n	1000163c <ph_delete+0x1ec>
10001630:	199b      	adds	r3, r3, r6
10001632:	e7b9      	b.n	100015a8 <ph_delete+0x158>
10001634:	682b      	ldr	r3, [r5, #0]
10001636:	464a      	mov	r2, r9
10001638:	1898      	adds	r0, r3, r2
1000163a:	e7f6      	b.n	1000162a <ph_delete+0x1da>
1000163c:	004a      	lsls	r2, r1, #1
1000163e:	1852      	adds	r2, r2, r1
10001640:	189a      	adds	r2, r3, r2
10001642:	3a03      	subs	r2, #3
10001644:	7057      	strb	r7, [r2, #1]
10001646:	199b      	adds	r3, r3, r6
10001648:	73ef      	strb	r7, [r5, #15]
1000164a:	e7ae      	b.n	100015aa <ph_delete+0x15a>
1000164c:	464b      	mov	r3, r9
1000164e:	6829      	ldr	r1, [r5, #0]
10001650:	0060      	lsls	r0, r4, #1
10001652:	1900      	adds	r0, r0, r4
10001654:	3803      	subs	r0, #3
10001656:	18cb      	adds	r3, r1, r3
10001658:	1808      	adds	r0, r1, r0
1000165a:	709c      	strb	r4, [r3, #2]
1000165c:	7802      	ldrb	r2, [r0, #0]
1000165e:	2a00      	cmp	r2, #0
10001660:	d000      	beq.n	10001664 <ph_delete+0x214>
10001662:	705a      	strb	r2, [r3, #1]
10001664:	4643      	mov	r3, r8
10001666:	46a0      	mov	r8, r4
10001668:	7003      	strb	r3, [r0, #0]
1000166a:	198b      	adds	r3, r1, r6
1000166c:	e799      	b.n	100015a2 <ph_delete+0x152>
1000166e:	464a      	mov	r2, r9
10001670:	1898      	adds	r0, r3, r2
10001672:	9a01      	ldr	r2, [sp, #4]
10001674:	189c      	adds	r4, r3, r2
10001676:	4652      	mov	r2, sl
10001678:	70a2      	strb	r2, [r4, #2]
1000167a:	7802      	ldrb	r2, [r0, #0]
1000167c:	2a00      	cmp	r2, #0
1000167e:	d000      	beq.n	10001682 <ph_delete+0x232>
10001680:	7062      	strb	r2, [r4, #1]
10001682:	4642      	mov	r2, r8
10001684:	46d0      	mov	r8, sl
10001686:	7002      	strb	r2, [r0, #0]
10001688:	e7b1      	b.n	100015ee <ph_delete+0x19e>
1000168a:	7048      	strb	r0, [r1, #1]
1000168c:	4651      	mov	r1, sl
1000168e:	7011      	strb	r1, [r2, #0]
10001690:	9a01      	ldr	r2, [sp, #4]
10001692:	4691      	mov	r9, r2
10001694:	e7ab      	b.n	100015ee <ph_delete+0x19e>
10001696:	2203      	movs	r2, #3
10001698:	4362      	muls	r2, r4
1000169a:	188a      	adds	r2, r1, r2
1000169c:	3a03      	subs	r2, #3
1000169e:	7057      	strb	r7, [r2, #1]
100016a0:	e782      	b.n	100015a8 <ph_delete+0x158>
100016a2:	46c0      	nop			; (mov r8, r8)

100016a4 <runtime_init>:
100016a4:	4a2c      	ldr	r2, [pc, #176]	; (10001758 <runtime_init+0xb4>)
100016a6:	4b2d      	ldr	r3, [pc, #180]	; (1000175c <runtime_init+0xb8>)
100016a8:	b570      	push	{r4, r5, r6, lr}
100016aa:	601a      	str	r2, [r3, #0]
100016ac:	4a2c      	ldr	r2, [pc, #176]	; (10001760 <runtime_init+0xbc>)
100016ae:	4b2d      	ldr	r3, [pc, #180]	; (10001764 <runtime_init+0xc0>)
100016b0:	492d      	ldr	r1, [pc, #180]	; (10001768 <runtime_init+0xc4>)
100016b2:	601a      	str	r2, [r3, #0]
100016b4:	0010      	movs	r0, r2
100016b6:	688b      	ldr	r3, [r1, #8]
100016b8:	4398      	bics	r0, r3
100016ba:	d1fb      	bne.n	100016b4 <runtime_init+0x10>
100016bc:	4e2b      	ldr	r6, [pc, #172]	; (1000176c <runtime_init+0xc8>)
100016be:	4b2c      	ldr	r3, [pc, #176]	; (10001770 <runtime_init+0xcc>)
100016c0:	429e      	cmp	r6, r3
100016c2:	d20a      	bcs.n	100016da <runtime_init+0x36>
100016c4:	43f5      	mvns	r5, r6
100016c6:	2400      	movs	r4, #0
100016c8:	18ed      	adds	r5, r5, r3
100016ca:	08ad      	lsrs	r5, r5, #2
100016cc:	3501      	adds	r5, #1
100016ce:	00a3      	lsls	r3, r4, #2
100016d0:	58f3      	ldr	r3, [r6, r3]
100016d2:	3401      	adds	r4, #1
100016d4:	4798      	blx	r3
100016d6:	42ac      	cmp	r4, r5
100016d8:	d1f9      	bne.n	100016ce <runtime_init+0x2a>
100016da:	f000 f895 	bl	10001808 <clocks_init>
100016de:	4a25      	ldr	r2, [pc, #148]	; (10001774 <runtime_init+0xd0>)
100016e0:	4b20      	ldr	r3, [pc, #128]	; (10001764 <runtime_init+0xc0>)
100016e2:	601a      	str	r2, [r3, #0]
100016e4:	4a20      	ldr	r2, [pc, #128]	; (10001768 <runtime_init+0xc4>)
100016e6:	6893      	ldr	r3, [r2, #8]
100016e8:	01db      	lsls	r3, r3, #7
100016ea:	3380      	adds	r3, #128	; 0x80
100016ec:	d1fb      	bne.n	100016e6 <runtime_init+0x42>
100016ee:	2240      	movs	r2, #64	; 0x40
100016f0:	4b21      	ldr	r3, [pc, #132]	; (10001778 <runtime_init+0xd4>)
100016f2:	4c22      	ldr	r4, [pc, #136]	; (1000177c <runtime_init+0xd8>)
100016f4:	679a      	str	r2, [r3, #120]	; 0x78
100016f6:	675a      	str	r2, [r3, #116]	; 0x74
100016f8:	671a      	str	r2, [r3, #112]	; 0x70
100016fa:	66da      	str	r2, [r3, #108]	; 0x6c
100016fc:	4b20      	ldr	r3, [pc, #128]	; (10001780 <runtime_init+0xdc>)
100016fe:	429c      	cmp	r4, r3
10001700:	d20b      	bcs.n	1000171a <runtime_init+0x76>
10001702:	43e6      	mvns	r6, r4
10001704:	2500      	movs	r5, #0
10001706:	18f6      	adds	r6, r6, r3
10001708:	08f6      	lsrs	r6, r6, #3
1000170a:	3601      	adds	r6, #1
1000170c:	0020      	movs	r0, r4
1000170e:	3501      	adds	r5, #1
10001710:	f7ff fce2 	bl	100010d8 <mutex_init>
10001714:	3408      	adds	r4, #8
10001716:	42b5      	cmp	r5, r6
10001718:	d1f8      	bne.n	1000170c <runtime_init+0x68>
1000171a:	4d1a      	ldr	r5, [pc, #104]	; (10001784 <runtime_init+0xe0>)
1000171c:	4c1a      	ldr	r4, [pc, #104]	; (10001788 <runtime_init+0xe4>)
1000171e:	22c0      	movs	r2, #192	; 0xc0
10001720:	68a1      	ldr	r1, [r4, #8]
10001722:	0028      	movs	r0, r5
10001724:	f000 fd16 	bl	10002154 <__wrap___aeabi_memcpy>
10001728:	60a5      	str	r5, [r4, #8]
1000172a:	f7fe fea5 	bl	10000478 <spin_locks_reset>
1000172e:	f000 fba5 	bl	10001e7c <irq_init_priorities>
10001732:	f7ff f885 	bl	10000840 <alarm_pool_init_default>
10001736:	4e15      	ldr	r6, [pc, #84]	; (1000178c <runtime_init+0xe8>)
10001738:	4b15      	ldr	r3, [pc, #84]	; (10001790 <runtime_init+0xec>)
1000173a:	429e      	cmp	r6, r3
1000173c:	d20a      	bcs.n	10001754 <runtime_init+0xb0>
1000173e:	43f5      	mvns	r5, r6
10001740:	2400      	movs	r4, #0
10001742:	18ed      	adds	r5, r5, r3
10001744:	08ad      	lsrs	r5, r5, #2
10001746:	3501      	adds	r5, #1
10001748:	00a3      	lsls	r3, r4, #2
1000174a:	58f3      	ldr	r3, [r6, r3]
1000174c:	3401      	adds	r4, #1
1000174e:	4798      	blx	r3
10001750:	42a5      	cmp	r5, r4
10001752:	d1f9      	bne.n	10001748 <runtime_init+0xa4>
10001754:	bd70      	pop	{r4, r5, r6, pc}
10001756:	46c0      	nop			; (mov r8, r8)
10001758:	ffffcdbf 	.word	0xffffcdbf
1000175c:	4000e000 	.word	0x4000e000
10001760:	003c7ffe 	.word	0x003c7ffe
10001764:	4000f000 	.word	0x4000f000
10001768:	4000c000 	.word	0x4000c000
1000176c:	20000b38 	.word	0x20000b38
10001770:	20000b48 	.word	0x20000b48
10001774:	01ffffff 	.word	0x01ffffff
10001778:	4001f000 	.word	0x4001f000
1000177c:	20000b30 	.word	0x20000b30
10001780:	20000b38 	.word	0x20000b38
10001784:	20000000 	.word	0x20000000
10001788:	e000ed00 	.word	0xe000ed00
1000178c:	20000b48 	.word	0x20000b48
10001790:	20000b4c 	.word	0x20000b4c

10001794 <_sbrk>:
10001794:	4a09      	ldr	r2, [pc, #36]	; (100017bc <_sbrk+0x28>)
10001796:	6813      	ldr	r3, [r2, #0]
10001798:	2b00      	cmp	r3, #0
1000179a:	d006      	beq.n	100017aa <_sbrk+0x16>
1000179c:	4908      	ldr	r1, [pc, #32]	; (100017c0 <_sbrk+0x2c>)
1000179e:	1818      	adds	r0, r3, r0
100017a0:	4288      	cmp	r0, r1
100017a2:	d208      	bcs.n	100017b6 <_sbrk+0x22>
100017a4:	6010      	str	r0, [r2, #0]
100017a6:	0018      	movs	r0, r3
100017a8:	4770      	bx	lr
100017aa:	4b06      	ldr	r3, [pc, #24]	; (100017c4 <_sbrk+0x30>)
100017ac:	4904      	ldr	r1, [pc, #16]	; (100017c0 <_sbrk+0x2c>)
100017ae:	1818      	adds	r0, r3, r0
100017b0:	6013      	str	r3, [r2, #0]
100017b2:	4288      	cmp	r0, r1
100017b4:	d3f6      	bcc.n	100017a4 <_sbrk+0x10>
100017b6:	2001      	movs	r0, #1
100017b8:	4240      	negs	r0, r0
100017ba:	e7f5      	b.n	100017a8 <_sbrk+0x14>
100017bc:	20000f88 	.word	0x20000f88
100017c0:	20040000 	.word	0x20040000
100017c4:	2000190c 	.word	0x2000190c

100017c8 <exit>:
100017c8:	be00      	bkpt	0x0000
100017ca:	e7fd      	b.n	100017c8 <exit>

100017cc <panic>:
100017cc:	b40f      	push	{r0, r1, r2, r3}
100017ce:	b500      	push	{lr}
100017d0:	4808      	ldr	r0, [pc, #32]	; (100017f4 <panic+0x28>)
100017d2:	b083      	sub	sp, #12
100017d4:	f000 fd22 	bl	1000221c <__wrap_puts>
100017d8:	9b04      	ldr	r3, [sp, #16]
100017da:	2b00      	cmp	r3, #0
100017dc:	d007      	beq.n	100017ee <panic+0x22>
100017de:	a905      	add	r1, sp, #20
100017e0:	0018      	movs	r0, r3
100017e2:	9101      	str	r1, [sp, #4]
100017e4:	f000 fb84 	bl	10001ef0 <weak_raw_vprintf>
100017e8:	4803      	ldr	r0, [pc, #12]	; (100017f8 <panic+0x2c>)
100017ea:	f000 fd17 	bl	1000221c <__wrap_puts>
100017ee:	be00      	bkpt	0x0000
100017f0:	e7fd      	b.n	100017ee <panic+0x22>
100017f2:	46c0      	nop			; (mov r8, r8)
100017f4:	10005a50 	.word	0x10005a50
100017f8:	10005a60 	.word	0x10005a60

100017fc <hard_assertion_failure>:
100017fc:	b510      	push	{r4, lr}
100017fe:	4801      	ldr	r0, [pc, #4]	; (10001804 <hard_assertion_failure+0x8>)
10001800:	f7ff ffe4 	bl	100017cc <panic>
10001804:	10005a44 	.word	0x10005a44

10001808 <clocks_init>:
10001808:	b530      	push	{r4, r5, lr}
1000180a:	200c      	movs	r0, #12
1000180c:	b083      	sub	sp, #12
1000180e:	f000 f971 	bl	10001af4 <watchdog_start_tick>
10001812:	f7fe fe5b 	bl	100004cc <running_on_fpga>
10001816:	2800      	cmp	r0, #0
10001818:	d00e      	beq.n	10001838 <clocks_init+0x30>
1000181a:	4b9c      	ldr	r3, [pc, #624]	; (10001a8c <clocks_init+0x284>)
1000181c:	4a9c      	ldr	r2, [pc, #624]	; (10001a90 <clocks_init+0x288>)
1000181e:	601a      	str	r2, [r3, #0]
10001820:	605a      	str	r2, [r3, #4]
10001822:	609a      	str	r2, [r3, #8]
10001824:	60da      	str	r2, [r3, #12]
10001826:	611a      	str	r2, [r3, #16]
10001828:	615a      	str	r2, [r3, #20]
1000182a:	619a      	str	r2, [r3, #24]
1000182c:	61da      	str	r2, [r3, #28]
1000182e:	621a      	str	r2, [r3, #32]
10001830:	4a98      	ldr	r2, [pc, #608]	; (10001a94 <clocks_init+0x28c>)
10001832:	625a      	str	r2, [r3, #36]	; 0x24
10001834:	b003      	add	sp, #12
10001836:	bd30      	pop	{r4, r5, pc}
10001838:	4c97      	ldr	r4, [pc, #604]	; (10001a98 <clocks_init+0x290>)
1000183a:	67a0      	str	r0, [r4, #120]	; 0x78
1000183c:	f000 f962 	bl	10001b04 <xosc_init>
10001840:	2201      	movs	r2, #1
10001842:	4b96      	ldr	r3, [pc, #600]	; (10001a9c <clocks_init+0x294>)
10001844:	601a      	str	r2, [r3, #0]
10001846:	6c63      	ldr	r3, [r4, #68]	; 0x44
10001848:	2b01      	cmp	r3, #1
1000184a:	d1fc      	bne.n	10001846 <clocks_init+0x3e>
1000184c:	2203      	movs	r2, #3
1000184e:	4b94      	ldr	r3, [pc, #592]	; (10001aa0 <clocks_init+0x298>)
10001850:	601a      	str	r2, [r3, #0]
10001852:	4a91      	ldr	r2, [pc, #580]	; (10001a98 <clocks_init+0x290>)
10001854:	6b93      	ldr	r3, [r2, #56]	; 0x38
10001856:	2b01      	cmp	r3, #1
10001858:	d1fc      	bne.n	10001854 <clocks_init+0x4c>
1000185a:	22c0      	movs	r2, #192	; 0xc0
1000185c:	4b91      	ldr	r3, [pc, #580]	; (10001aa4 <clocks_init+0x29c>)
1000185e:	0192      	lsls	r2, r2, #6
10001860:	601a      	str	r2, [r3, #0]
10001862:	4b91      	ldr	r3, [pc, #580]	; (10001aa8 <clocks_init+0x2a0>)
10001864:	4991      	ldr	r1, [pc, #580]	; (10001aac <clocks_init+0x2a4>)
10001866:	601a      	str	r2, [r3, #0]
10001868:	0010      	movs	r0, r2
1000186a:	688b      	ldr	r3, [r1, #8]
1000186c:	4398      	bics	r0, r3
1000186e:	1e03      	subs	r3, r0, #0
10001870:	d1fa      	bne.n	10001868 <clocks_init+0x60>
10001872:	2402      	movs	r4, #2
10001874:	3306      	adds	r3, #6
10001876:	4a8e      	ldr	r2, [pc, #568]	; (10001ab0 <clocks_init+0x2a8>)
10001878:	2101      	movs	r1, #1
1000187a:	488e      	ldr	r0, [pc, #568]	; (10001ab4 <clocks_init+0x2ac>)
1000187c:	9400      	str	r4, [sp, #0]
1000187e:	f000 f955 	bl	10001b2c <pll_init>
10001882:	2305      	movs	r3, #5
10001884:	4a8c      	ldr	r2, [pc, #560]	; (10001ab8 <clocks_init+0x2b0>)
10001886:	9400      	str	r4, [sp, #0]
10001888:	2101      	movs	r1, #1
1000188a:	488c      	ldr	r0, [pc, #560]	; (10001abc <clocks_init+0x2b4>)
1000188c:	f000 f94e 	bl	10001b2c <pll_init>
10001890:	4b8b      	ldr	r3, [pc, #556]	; (10001ac0 <clocks_init+0x2b8>)
10001892:	685a      	ldr	r2, [r3, #4]
10001894:	2aff      	cmp	r2, #255	; 0xff
10001896:	d802      	bhi.n	1000189e <clocks_init+0x96>
10001898:	2280      	movs	r2, #128	; 0x80
1000189a:	0052      	lsls	r2, r2, #1
1000189c:	605a      	str	r2, [r3, #4]
1000189e:	2280      	movs	r2, #128	; 0x80
100018a0:	4c7a      	ldr	r4, [pc, #488]	; (10001a8c <clocks_init+0x284>)
100018a2:	4b7f      	ldr	r3, [pc, #508]	; (10001aa0 <clocks_init+0x298>)
100018a4:	6921      	ldr	r1, [r4, #16]
100018a6:	0112      	lsls	r2, r2, #4
100018a8:	4d85      	ldr	r5, [pc, #532]	; (10001ac0 <clocks_init+0x2b8>)
100018aa:	601a      	str	r2, [r3, #0]
100018ac:	2900      	cmp	r1, #0
100018ae:	d000      	beq.n	100018b2 <clocks_init+0xaa>
100018b0:	e0e5      	b.n	10001a7e <clocks_init+0x276>
100018b2:	21e0      	movs	r1, #224	; 0xe0
100018b4:	4b82      	ldr	r3, [pc, #520]	; (10001ac0 <clocks_init+0x2b8>)
100018b6:	2002      	movs	r0, #2
100018b8:	681a      	ldr	r2, [r3, #0]
100018ba:	4011      	ands	r1, r2
100018bc:	2280      	movs	r2, #128	; 0x80
100018be:	0152      	lsls	r2, r2, #5
100018c0:	432a      	orrs	r2, r5
100018c2:	6011      	str	r1, [r2, #0]
100018c4:	6819      	ldr	r1, [r3, #0]
100018c6:	4048      	eors	r0, r1
100018c8:	2103      	movs	r1, #3
100018ca:	4001      	ands	r1, r0
100018cc:	6011      	str	r1, [r2, #0]
100018ce:	2104      	movs	r1, #4
100018d0:	689a      	ldr	r2, [r3, #8]
100018d2:	4211      	tst	r1, r2
100018d4:	d0fc      	beq.n	100018d0 <clocks_init+0xc8>
100018d6:	2280      	movs	r2, #128	; 0x80
100018d8:	2180      	movs	r1, #128	; 0x80
100018da:	0192      	lsls	r2, r2, #6
100018dc:	432a      	orrs	r2, r5
100018de:	0109      	lsls	r1, r1, #4
100018e0:	6011      	str	r1, [r2, #0]
100018e2:	2280      	movs	r2, #128	; 0x80
100018e4:	0052      	lsls	r2, r2, #1
100018e6:	605a      	str	r2, [r3, #4]
100018e8:	4b76      	ldr	r3, [pc, #472]	; (10001ac4 <clocks_init+0x2bc>)
100018ea:	6123      	str	r3, [r4, #16]
100018ec:	4b76      	ldr	r3, [pc, #472]	; (10001ac8 <clocks_init+0x2c0>)
100018ee:	6859      	ldr	r1, [r3, #4]
100018f0:	29ff      	cmp	r1, #255	; 0xff
100018f2:	d800      	bhi.n	100018f6 <clocks_init+0xee>
100018f4:	e0c1      	b.n	10001a7a <clocks_init+0x272>
100018f6:	2203      	movs	r2, #3
100018f8:	4b68      	ldr	r3, [pc, #416]	; (10001a9c <clocks_init+0x294>)
100018fa:	4873      	ldr	r0, [pc, #460]	; (10001ac8 <clocks_init+0x2c0>)
100018fc:	601a      	str	r2, [r3, #0]
100018fe:	2101      	movs	r1, #1
10001900:	0003      	movs	r3, r0
10001902:	689a      	ldr	r2, [r3, #8]
10001904:	4211      	tst	r1, r2
10001906:	d0fc      	beq.n	10001902 <clocks_init+0xfa>
10001908:	25e0      	movs	r5, #224	; 0xe0
1000190a:	681a      	ldr	r2, [r3, #0]
1000190c:	4015      	ands	r5, r2
1000190e:	2280      	movs	r2, #128	; 0x80
10001910:	0152      	lsls	r2, r2, #5
10001912:	4302      	orrs	r2, r0
10001914:	6015      	str	r5, [r2, #0]
10001916:	681b      	ldr	r3, [r3, #0]
10001918:	404b      	eors	r3, r1
1000191a:	2103      	movs	r1, #3
1000191c:	4019      	ands	r1, r3
1000191e:	6011      	str	r1, [r2, #0]
10001920:	2102      	movs	r1, #2
10001922:	4a69      	ldr	r2, [pc, #420]	; (10001ac8 <clocks_init+0x2c0>)
10001924:	6893      	ldr	r3, [r2, #8]
10001926:	4219      	tst	r1, r3
10001928:	d0fc      	beq.n	10001924 <clocks_init+0x11c>
1000192a:	2380      	movs	r3, #128	; 0x80
1000192c:	2180      	movs	r1, #128	; 0x80
1000192e:	019b      	lsls	r3, r3, #6
10001930:	4303      	orrs	r3, r0
10001932:	0109      	lsls	r1, r1, #4
10001934:	6019      	str	r1, [r3, #0]
10001936:	2180      	movs	r1, #128	; 0x80
10001938:	4b64      	ldr	r3, [pc, #400]	; (10001acc <clocks_init+0x2c4>)
1000193a:	0049      	lsls	r1, r1, #1
1000193c:	6051      	str	r1, [r2, #4]
1000193e:	6163      	str	r3, [r4, #20]
10001940:	4b63      	ldr	r3, [pc, #396]	; (10001ad0 <clocks_init+0x2c8>)
10001942:	685a      	ldr	r2, [r3, #4]
10001944:	2aff      	cmp	r2, #255	; 0xff
10001946:	d800      	bhi.n	1000194a <clocks_init+0x142>
10001948:	6059      	str	r1, [r3, #4]
1000194a:	2280      	movs	r2, #128	; 0x80
1000194c:	4b61      	ldr	r3, [pc, #388]	; (10001ad4 <clocks_init+0x2cc>)
1000194e:	69e1      	ldr	r1, [r4, #28]
10001950:	0112      	lsls	r2, r2, #4
10001952:	4d5f      	ldr	r5, [pc, #380]	; (10001ad0 <clocks_init+0x2c8>)
10001954:	601a      	str	r2, [r3, #0]
10001956:	2900      	cmp	r1, #0
10001958:	d005      	beq.n	10001966 <clocks_init+0x15e>
1000195a:	6960      	ldr	r0, [r4, #20]
1000195c:	f000 fb1a 	bl	10001f94 <__wrap___aeabi_uidiv>
10001960:	3001      	adds	r0, #1
10001962:	3801      	subs	r0, #1
10001964:	d1fd      	bne.n	10001962 <clocks_init+0x15a>
10001966:	22e0      	movs	r2, #224	; 0xe0
10001968:	4959      	ldr	r1, [pc, #356]	; (10001ad0 <clocks_init+0x2c8>)
1000196a:	680b      	ldr	r3, [r1, #0]
1000196c:	401a      	ands	r2, r3
1000196e:	2380      	movs	r3, #128	; 0x80
10001970:	015b      	lsls	r3, r3, #5
10001972:	432b      	orrs	r3, r5
10001974:	601a      	str	r2, [r3, #0]
10001976:	2380      	movs	r3, #128	; 0x80
10001978:	2280      	movs	r2, #128	; 0x80
1000197a:	019b      	lsls	r3, r3, #6
1000197c:	432b      	orrs	r3, r5
1000197e:	0112      	lsls	r2, r2, #4
10001980:	601a      	str	r2, [r3, #0]
10001982:	2280      	movs	r2, #128	; 0x80
10001984:	4b42      	ldr	r3, [pc, #264]	; (10001a90 <clocks_init+0x288>)
10001986:	0052      	lsls	r2, r2, #1
10001988:	604a      	str	r2, [r1, #4]
1000198a:	61e3      	str	r3, [r4, #28]
1000198c:	4b52      	ldr	r3, [pc, #328]	; (10001ad8 <clocks_init+0x2d0>)
1000198e:	6859      	ldr	r1, [r3, #4]
10001990:	29ff      	cmp	r1, #255	; 0xff
10001992:	d800      	bhi.n	10001996 <clocks_init+0x18e>
10001994:	605a      	str	r2, [r3, #4]
10001996:	2280      	movs	r2, #128	; 0x80
10001998:	4b50      	ldr	r3, [pc, #320]	; (10001adc <clocks_init+0x2d4>)
1000199a:	6a21      	ldr	r1, [r4, #32]
1000199c:	0112      	lsls	r2, r2, #4
1000199e:	4d4e      	ldr	r5, [pc, #312]	; (10001ad8 <clocks_init+0x2d0>)
100019a0:	601a      	str	r2, [r3, #0]
100019a2:	2900      	cmp	r1, #0
100019a4:	d005      	beq.n	100019b2 <clocks_init+0x1aa>
100019a6:	6960      	ldr	r0, [r4, #20]
100019a8:	f000 faf4 	bl	10001f94 <__wrap___aeabi_uidiv>
100019ac:	3001      	adds	r0, #1
100019ae:	3801      	subs	r0, #1
100019b0:	d1fd      	bne.n	100019ae <clocks_init+0x1a6>
100019b2:	22e0      	movs	r2, #224	; 0xe0
100019b4:	4948      	ldr	r1, [pc, #288]	; (10001ad8 <clocks_init+0x2d0>)
100019b6:	680b      	ldr	r3, [r1, #0]
100019b8:	401a      	ands	r2, r3
100019ba:	2380      	movs	r3, #128	; 0x80
100019bc:	015b      	lsls	r3, r3, #5
100019be:	432b      	orrs	r3, r5
100019c0:	601a      	str	r2, [r3, #0]
100019c2:	2380      	movs	r3, #128	; 0x80
100019c4:	2280      	movs	r2, #128	; 0x80
100019c6:	019b      	lsls	r3, r3, #6
100019c8:	432b      	orrs	r3, r5
100019ca:	0112      	lsls	r2, r2, #4
100019cc:	601a      	str	r2, [r3, #0]
100019ce:	2380      	movs	r3, #128	; 0x80
100019d0:	005b      	lsls	r3, r3, #1
100019d2:	604b      	str	r3, [r1, #4]
100019d4:	4b2e      	ldr	r3, [pc, #184]	; (10001a90 <clocks_init+0x288>)
100019d6:	4a42      	ldr	r2, [pc, #264]	; (10001ae0 <clocks_init+0x2d8>)
100019d8:	6223      	str	r3, [r4, #32]
100019da:	4b42      	ldr	r3, [pc, #264]	; (10001ae4 <clocks_init+0x2dc>)
100019dc:	6859      	ldr	r1, [r3, #4]
100019de:	4291      	cmp	r1, r2
100019e0:	d801      	bhi.n	100019e6 <clocks_init+0x1de>
100019e2:	3201      	adds	r2, #1
100019e4:	605a      	str	r2, [r3, #4]
100019e6:	2280      	movs	r2, #128	; 0x80
100019e8:	4b3f      	ldr	r3, [pc, #252]	; (10001ae8 <clocks_init+0x2e0>)
100019ea:	6a61      	ldr	r1, [r4, #36]	; 0x24
100019ec:	0112      	lsls	r2, r2, #4
100019ee:	4d3d      	ldr	r5, [pc, #244]	; (10001ae4 <clocks_init+0x2dc>)
100019f0:	601a      	str	r2, [r3, #0]
100019f2:	2900      	cmp	r1, #0
100019f4:	d005      	beq.n	10001a02 <clocks_init+0x1fa>
100019f6:	6960      	ldr	r0, [r4, #20]
100019f8:	f000 facc 	bl	10001f94 <__wrap___aeabi_uidiv>
100019fc:	3001      	adds	r0, #1
100019fe:	3801      	subs	r0, #1
10001a00:	d1fd      	bne.n	100019fe <clocks_init+0x1f6>
10001a02:	22e0      	movs	r2, #224	; 0xe0
10001a04:	4937      	ldr	r1, [pc, #220]	; (10001ae4 <clocks_init+0x2dc>)
10001a06:	680b      	ldr	r3, [r1, #0]
10001a08:	401a      	ands	r2, r3
10001a0a:	2380      	movs	r3, #128	; 0x80
10001a0c:	015b      	lsls	r3, r3, #5
10001a0e:	432b      	orrs	r3, r5
10001a10:	601a      	str	r2, [r3, #0]
10001a12:	2380      	movs	r3, #128	; 0x80
10001a14:	2280      	movs	r2, #128	; 0x80
10001a16:	019b      	lsls	r3, r3, #6
10001a18:	432b      	orrs	r3, r5
10001a1a:	0112      	lsls	r2, r2, #4
10001a1c:	601a      	str	r2, [r3, #0]
10001a1e:	2380      	movs	r3, #128	; 0x80
10001a20:	02db      	lsls	r3, r3, #11
10001a22:	604b      	str	r3, [r1, #4]
10001a24:	4b1b      	ldr	r3, [pc, #108]	; (10001a94 <clocks_init+0x28c>)
10001a26:	6263      	str	r3, [r4, #36]	; 0x24
10001a28:	4b30      	ldr	r3, [pc, #192]	; (10001aec <clocks_init+0x2e4>)
10001a2a:	685a      	ldr	r2, [r3, #4]
10001a2c:	2aff      	cmp	r2, #255	; 0xff
10001a2e:	d802      	bhi.n	10001a36 <clocks_init+0x22e>
10001a30:	2280      	movs	r2, #128	; 0x80
10001a32:	0052      	lsls	r2, r2, #1
10001a34:	605a      	str	r2, [r3, #4]
10001a36:	2280      	movs	r2, #128	; 0x80
10001a38:	4b2d      	ldr	r3, [pc, #180]	; (10001af0 <clocks_init+0x2e8>)
10001a3a:	69a1      	ldr	r1, [r4, #24]
10001a3c:	0112      	lsls	r2, r2, #4
10001a3e:	4d2b      	ldr	r5, [pc, #172]	; (10001aec <clocks_init+0x2e4>)
10001a40:	601a      	str	r2, [r3, #0]
10001a42:	2900      	cmp	r1, #0
10001a44:	d005      	beq.n	10001a52 <clocks_init+0x24a>
10001a46:	6960      	ldr	r0, [r4, #20]
10001a48:	f000 faa4 	bl	10001f94 <__wrap___aeabi_uidiv>
10001a4c:	3001      	adds	r0, #1
10001a4e:	3801      	subs	r0, #1
10001a50:	d1fd      	bne.n	10001a4e <clocks_init+0x246>
10001a52:	22e0      	movs	r2, #224	; 0xe0
10001a54:	4925      	ldr	r1, [pc, #148]	; (10001aec <clocks_init+0x2e4>)
10001a56:	680b      	ldr	r3, [r1, #0]
10001a58:	401a      	ands	r2, r3
10001a5a:	2380      	movs	r3, #128	; 0x80
10001a5c:	015b      	lsls	r3, r3, #5
10001a5e:	432b      	orrs	r3, r5
10001a60:	601a      	str	r2, [r3, #0]
10001a62:	2380      	movs	r3, #128	; 0x80
10001a64:	2280      	movs	r2, #128	; 0x80
10001a66:	019b      	lsls	r3, r3, #6
10001a68:	432b      	orrs	r3, r5
10001a6a:	0112      	lsls	r2, r2, #4
10001a6c:	601a      	str	r2, [r3, #0]
10001a6e:	2380      	movs	r3, #128	; 0x80
10001a70:	005b      	lsls	r3, r3, #1
10001a72:	604b      	str	r3, [r1, #4]
10001a74:	4b15      	ldr	r3, [pc, #84]	; (10001acc <clocks_init+0x2c4>)
10001a76:	61a3      	str	r3, [r4, #24]
10001a78:	e6dc      	b.n	10001834 <clocks_init+0x2c>
10001a7a:	605a      	str	r2, [r3, #4]
10001a7c:	e73b      	b.n	100018f6 <clocks_init+0xee>
10001a7e:	6960      	ldr	r0, [r4, #20]
10001a80:	f000 fa88 	bl	10001f94 <__wrap___aeabi_uidiv>
10001a84:	3001      	adds	r0, #1
10001a86:	3801      	subs	r0, #1
10001a88:	d1fd      	bne.n	10001a86 <clocks_init+0x27e>
10001a8a:	e712      	b.n	100018b2 <clocks_init+0xaa>
10001a8c:	20000f2c 	.word	0x20000f2c
10001a90:	02dc6c00 	.word	0x02dc6c00
10001a94:	0000b71b 	.word	0x0000b71b
10001a98:	40008000 	.word	0x40008000
10001a9c:	4000b03c 	.word	0x4000b03c
10001aa0:	4000b030 	.word	0x4000b030
10001aa4:	4000e000 	.word	0x4000e000
10001aa8:	4000f000 	.word	0x4000f000
10001aac:	4000c000 	.word	0x4000c000
10001ab0:	59682f00 	.word	0x59682f00
10001ab4:	40028000 	.word	0x40028000
10001ab8:	1c9c3800 	.word	0x1c9c3800
10001abc:	4002c000 	.word	0x4002c000
10001ac0:	40008030 	.word	0x40008030
10001ac4:	00b71b00 	.word	0x00b71b00
10001ac8:	4000803c 	.word	0x4000803c
10001acc:	07735940 	.word	0x07735940
10001ad0:	40008054 	.word	0x40008054
10001ad4:	4000b054 	.word	0x4000b054
10001ad8:	40008060 	.word	0x40008060
10001adc:	4000b060 	.word	0x4000b060
10001ae0:	0003ffff 	.word	0x0003ffff
10001ae4:	4000806c 	.word	0x4000806c
10001ae8:	4000b06c 	.word	0x4000b06c
10001aec:	40008048 	.word	0x40008048
10001af0:	4000b048 	.word	0x4000b048

10001af4 <watchdog_start_tick>:
10001af4:	2380      	movs	r3, #128	; 0x80
10001af6:	009b      	lsls	r3, r3, #2
10001af8:	4318      	orrs	r0, r3
10001afa:	4b01      	ldr	r3, [pc, #4]	; (10001b00 <watchdog_start_tick+0xc>)
10001afc:	62d8      	str	r0, [r3, #44]	; 0x2c
10001afe:	4770      	bx	lr
10001b00:	40058000 	.word	0x40058000

10001b04 <xosc_init>:
10001b04:	23aa      	movs	r3, #170	; 0xaa
10001b06:	4a06      	ldr	r2, [pc, #24]	; (10001b20 <xosc_init+0x1c>)
10001b08:	011b      	lsls	r3, r3, #4
10001b0a:	6013      	str	r3, [r2, #0]
10001b0c:	232f      	movs	r3, #47	; 0x2f
10001b0e:	4905      	ldr	r1, [pc, #20]	; (10001b24 <xosc_init+0x20>)
10001b10:	60d3      	str	r3, [r2, #12]
10001b12:	4b05      	ldr	r3, [pc, #20]	; (10001b28 <xosc_init+0x24>)
10001b14:	6019      	str	r1, [r3, #0]
10001b16:	6853      	ldr	r3, [r2, #4]
10001b18:	2b00      	cmp	r3, #0
10001b1a:	dafc      	bge.n	10001b16 <xosc_init+0x12>
10001b1c:	4770      	bx	lr
10001b1e:	46c0      	nop			; (mov r8, r8)
10001b20:	40024000 	.word	0x40024000
10001b24:	00fab000 	.word	0x00fab000
10001b28:	40026000 	.word	0x40026000

10001b2c <pll_init>:
10001b2c:	b5f8      	push	{r3, r4, r5, r6, r7, lr}
10001b2e:	001d      	movs	r5, r3
10001b30:	ab06      	add	r3, sp, #24
10001b32:	781e      	ldrb	r6, [r3, #0]
10001b34:	2301      	movs	r3, #1
10001b36:	425b      	negs	r3, r3
10001b38:	6043      	str	r3, [r0, #4]
10001b3a:	2300      	movs	r3, #0
10001b3c:	0004      	movs	r4, r0
10001b3e:	6083      	str	r3, [r0, #8]
10001b40:	6001      	str	r1, [r0, #0]
10001b42:	200c      	movs	r0, #12
10001b44:	0017      	movs	r7, r2
10001b46:	f000 fa25 	bl	10001f94 <__wrap___aeabi_uidiv>
10001b4a:	490b      	ldr	r1, [pc, #44]	; (10001b78 <pll_init+0x4c>)
10001b4c:	4341      	muls	r1, r0
10001b4e:	0038      	movs	r0, r7
10001b50:	f000 fa20 	bl	10001f94 <__wrap___aeabi_uidiv>
10001b54:	22c0      	movs	r2, #192	; 0xc0
10001b56:	1d23      	adds	r3, r4, #4
10001b58:	0192      	lsls	r2, r2, #6
10001b5a:	431a      	orrs	r2, r3
10001b5c:	2321      	movs	r3, #33	; 0x21
10001b5e:	60a0      	str	r0, [r4, #8]
10001b60:	6013      	str	r3, [r2, #0]
10001b62:	6823      	ldr	r3, [r4, #0]
10001b64:	2b00      	cmp	r3, #0
10001b66:	dafc      	bge.n	10001b62 <pll_init+0x36>
10001b68:	2308      	movs	r3, #8
10001b6a:	0336      	lsls	r6, r6, #12
10001b6c:	042d      	lsls	r5, r5, #16
10001b6e:	4335      	orrs	r5, r6
10001b70:	60e5      	str	r5, [r4, #12]
10001b72:	6013      	str	r3, [r2, #0]
10001b74:	bdf8      	pop	{r3, r4, r5, r6, r7, pc}
10001b76:	46c0      	nop			; (mov r8, r8)
10001b78:	000f4240 	.word	0x000f4240

10001b7c <irq_set_enabled>:
10001b7c:	2301      	movs	r3, #1
10001b7e:	4083      	lsls	r3, r0
10001b80:	2900      	cmp	r1, #0
10001b82:	d102      	bne.n	10001b8a <irq_set_enabled+0xe>
10001b84:	4a03      	ldr	r2, [pc, #12]	; (10001b94 <irq_set_enabled+0x18>)
10001b86:	6013      	str	r3, [r2, #0]
10001b88:	4770      	bx	lr
10001b8a:	4a03      	ldr	r2, [pc, #12]	; (10001b98 <irq_set_enabled+0x1c>)
10001b8c:	6013      	str	r3, [r2, #0]
10001b8e:	4a03      	ldr	r2, [pc, #12]	; (10001b9c <irq_set_enabled+0x20>)
10001b90:	6013      	str	r3, [r2, #0]
10001b92:	e7f9      	b.n	10001b88 <irq_set_enabled+0xc>
10001b94:	e000e180 	.word	0xe000e180
10001b98:	e000e280 	.word	0xe000e280
10001b9c:	e000e100 	.word	0xe000e100

10001ba0 <irq_set_pending>:
10001ba0:	2301      	movs	r3, #1
10001ba2:	4083      	lsls	r3, r0
10001ba4:	4a01      	ldr	r2, [pc, #4]	; (10001bac <irq_set_pending+0xc>)
10001ba6:	6013      	str	r3, [r2, #0]
10001ba8:	4770      	bx	lr
10001baa:	46c0      	nop			; (mov r8, r8)
10001bac:	e000e200 	.word	0xe000e200

10001bb0 <irq_get_vtable_handler>:
10001bb0:	4b02      	ldr	r3, [pc, #8]	; (10001bbc <irq_get_vtable_handler+0xc>)
10001bb2:	3010      	adds	r0, #16
10001bb4:	689b      	ldr	r3, [r3, #8]
10001bb6:	0080      	lsls	r0, r0, #2
10001bb8:	58c0      	ldr	r0, [r0, r3]
10001bba:	4770      	bx	lr
10001bbc:	e000ed00 	.word	0xe000ed00

10001bc0 <irq_set_exclusive_handler>:
10001bc0:	b570      	push	{r4, r5, r6, lr}
10001bc2:	000d      	movs	r5, r1
10001bc4:	f3ef 8610 	mrs	r6, PRIMASK
10001bc8:	b672      	cpsid	i
10001bca:	4a0f      	ldr	r2, [pc, #60]	; (10001c08 <irq_set_exclusive_handler+0x48>)
10001bcc:	6813      	ldr	r3, [r2, #0]
10001bce:	2b00      	cmp	r3, #0
10001bd0:	d0fc      	beq.n	10001bcc <irq_set_exclusive_handler+0xc>
10001bd2:	f3bf 8f5f 	dmb	sy
10001bd6:	4b0d      	ldr	r3, [pc, #52]	; (10001c0c <irq_set_exclusive_handler+0x4c>)
10001bd8:	3010      	adds	r0, #16
10001bda:	689b      	ldr	r3, [r3, #8]
10001bdc:	0084      	lsls	r4, r0, #2
10001bde:	591b      	ldr	r3, [r3, r4]
10001be0:	4a0b      	ldr	r2, [pc, #44]	; (10001c10 <irq_set_exclusive_handler+0x50>)
10001be2:	4293      	cmp	r3, r2
10001be4:	d003      	beq.n	10001bee <irq_set_exclusive_handler+0x2e>
10001be6:	429d      	cmp	r5, r3
10001be8:	d001      	beq.n	10001bee <irq_set_exclusive_handler+0x2e>
10001bea:	f7ff fe07 	bl	100017fc <hard_assertion_failure>
10001bee:	4b07      	ldr	r3, [pc, #28]	; (10001c0c <irq_set_exclusive_handler+0x4c>)
10001bf0:	689b      	ldr	r3, [r3, #8]
10001bf2:	511d      	str	r5, [r3, r4]
10001bf4:	f3bf 8f5f 	dmb	sy
10001bf8:	f3bf 8f5f 	dmb	sy
10001bfc:	2200      	movs	r2, #0
10001bfe:	4b02      	ldr	r3, [pc, #8]	; (10001c08 <irq_set_exclusive_handler+0x48>)
10001c00:	601a      	str	r2, [r3, #0]
10001c02:	f386 8810 	msr	PRIMASK, r6
10001c06:	bd70      	pop	{r4, r5, r6, pc}
10001c08:	d0000124 	.word	0xd0000124
10001c0c:	e000ed00 	.word	0xe000ed00
10001c10:	100002cd 	.word	0x100002cd

10001c14 <irq_remove_handler>:
10001c14:	b5f0      	push	{r4, r5, r6, r7, lr}
10001c16:	46de      	mov	lr, fp
10001c18:	4657      	mov	r7, sl
10001c1a:	464e      	mov	r6, r9
10001c1c:	4645      	mov	r5, r8
10001c1e:	b5e0      	push	{r5, r6, r7, lr}
10001c20:	000c      	movs	r4, r1
10001c22:	b083      	sub	sp, #12
10001c24:	f3ef 8b10 	mrs	fp, PRIMASK
10001c28:	b672      	cpsid	i
10001c2a:	4a5b      	ldr	r2, [pc, #364]	; (10001d98 <irq_remove_handler+0x184>)
10001c2c:	6813      	ldr	r3, [r2, #0]
10001c2e:	2b00      	cmp	r3, #0
10001c30:	d0fc      	beq.n	10001c2c <irq_remove_handler+0x18>
10001c32:	f3bf 8f5f 	dmb	sy
10001c36:	2210      	movs	r2, #16
10001c38:	4690      	mov	r8, r2
10001c3a:	4480      	add	r8, r0
10001c3c:	4642      	mov	r2, r8
10001c3e:	4b57      	ldr	r3, [pc, #348]	; (10001d9c <irq_remove_handler+0x188>)
10001c40:	0097      	lsls	r7, r2, #2
10001c42:	689b      	ldr	r3, [r3, #8]
10001c44:	59dd      	ldr	r5, [r3, r7]
10001c46:	4b56      	ldr	r3, [pc, #344]	; (10001da0 <irq_remove_handler+0x18c>)
10001c48:	4699      	mov	r9, r3
10001c4a:	429d      	cmp	r5, r3
10001c4c:	d006      	beq.n	10001c5c <irq_remove_handler+0x48>
10001c4e:	42a5      	cmp	r5, r4
10001c50:	d100      	bne.n	10001c54 <irq_remove_handler+0x40>
10001c52:	e078      	b.n	10001d46 <irq_remove_handler+0x132>
10001c54:	4e53      	ldr	r6, [pc, #332]	; (10001da4 <irq_remove_handler+0x190>)
10001c56:	1bab      	subs	r3, r5, r6
10001c58:	2b2f      	cmp	r3, #47	; 0x2f
10001c5a:	d912      	bls.n	10001c82 <irq_remove_handler+0x6e>
10001c5c:	4b4f      	ldr	r3, [pc, #316]	; (10001d9c <irq_remove_handler+0x188>)
10001c5e:	689b      	ldr	r3, [r3, #8]
10001c60:	51dd      	str	r5, [r3, r7]
10001c62:	f3bf 8f5f 	dmb	sy
10001c66:	f3bf 8f5f 	dmb	sy
10001c6a:	2200      	movs	r2, #0
10001c6c:	4b4a      	ldr	r3, [pc, #296]	; (10001d98 <irq_remove_handler+0x184>)
10001c6e:	601a      	str	r2, [r3, #0]
10001c70:	f38b 8810 	msr	PRIMASK, fp
10001c74:	b003      	add	sp, #12
10001c76:	bc3c      	pop	{r2, r3, r4, r5}
10001c78:	4690      	mov	r8, r2
10001c7a:	4699      	mov	r9, r3
10001c7c:	46a2      	mov	sl, r4
10001c7e:	46ab      	mov	fp, r5
10001c80:	bdf0      	pop	{r4, r5, r6, r7, pc}
10001c82:	2301      	movs	r3, #1
10001c84:	4083      	lsls	r3, r0
10001c86:	469a      	mov	sl, r3
10001c88:	4652      	mov	r2, sl
10001c8a:	4b47      	ldr	r3, [pc, #284]	; (10001da8 <irq_remove_handler+0x194>)
10001c8c:	681b      	ldr	r3, [r3, #0]
10001c8e:	401a      	ands	r2, r3
10001c90:	9200      	str	r2, [sp, #0]
10001c92:	4652      	mov	r2, sl
10001c94:	4b45      	ldr	r3, [pc, #276]	; (10001dac <irq_remove_handler+0x198>)
10001c96:	601a      	str	r2, [r3, #0]
10001c98:	f3bf 8f5f 	dmb	sy
10001c9c:	f7fe fa7b 	bl	10000196 <__get_current_exception>
10001ca0:	9001      	str	r0, [sp, #4]
10001ca2:	2800      	cmp	r0, #0
10001ca4:	d144      	bne.n	10001d30 <irq_remove_handler+0x11c>
10001ca6:	2301      	movs	r3, #1
10001ca8:	0029      	movs	r1, r5
10001caa:	4399      	bics	r1, r3
10001cac:	688b      	ldr	r3, [r1, #8]
10001cae:	429c      	cmp	r4, r3
10001cb0:	d04e      	beq.n	10001d50 <irq_remove_handler+0x13c>
10001cb2:	2006      	movs	r0, #6
10001cb4:	5608      	ldrsb	r0, [r1, r0]
10001cb6:	2800      	cmp	r0, #0
10001cb8:	db33      	blt.n	10001d22 <irq_remove_handler+0x10e>
10001cba:	000a      	movs	r2, r1
10001cbc:	e004      	b.n	10001cc8 <irq_remove_handler+0xb4>
10001cbe:	2006      	movs	r0, #6
10001cc0:	5618      	ldrsb	r0, [r3, r0]
10001cc2:	001a      	movs	r2, r3
10001cc4:	2800      	cmp	r0, #0
10001cc6:	db2c      	blt.n	10001d22 <irq_remove_handler+0x10e>
10001cc8:	0043      	lsls	r3, r0, #1
10001cca:	181b      	adds	r3, r3, r0
10001ccc:	009b      	lsls	r3, r3, #2
10001cce:	18f3      	adds	r3, r6, r3
10001cd0:	6898      	ldr	r0, [r3, #8]
10001cd2:	4284      	cmp	r4, r0
10001cd4:	d1f3      	bne.n	10001cbe <irq_remove_handler+0xaa>
10001cd6:	2006      	movs	r0, #6
10001cd8:	5618      	ldrsb	r0, [r3, r0]
10001cda:	2800      	cmp	r0, #0
10001cdc:	db3b      	blt.n	10001d56 <irq_remove_handler+0x142>
10001cde:	0042      	lsls	r2, r0, #1
10001ce0:	1811      	adds	r1, r2, r0
10001ce2:	0089      	lsls	r1, r1, #2
10001ce4:	1874      	adds	r4, r6, r1
10001ce6:	4688      	mov	r8, r1
10001ce8:	68a1      	ldr	r1, [r4, #8]
10001cea:	6099      	str	r1, [r3, #8]
10001cec:	79e1      	ldrb	r1, [r4, #7]
10001cee:	71d9      	strb	r1, [r3, #7]
10001cf0:	2106      	movs	r1, #6
10001cf2:	5661      	ldrsb	r1, [r4, r1]
10001cf4:	7199      	strb	r1, [r3, #6]
10001cf6:	79a1      	ldrb	r1, [r4, #6]
10001cf8:	297f      	cmp	r1, #127	; 0x7f
10001cfa:	d826      	bhi.n	10001d4a <irq_remove_handler+0x136>
10001cfc:	88a4      	ldrh	r4, [r4, #4]
10001cfe:	1af1      	subs	r1, r6, r3
10001d00:	0564      	lsls	r4, r4, #21
10001d02:	1524      	asrs	r4, r4, #20
10001d04:	4444      	add	r4, r8
10001d06:	1909      	adds	r1, r1, r4
10001d08:	24e0      	movs	r4, #224	; 0xe0
10001d0a:	0509      	lsls	r1, r1, #20
10001d0c:	0d49      	lsrs	r1, r1, #21
10001d0e:	0224      	lsls	r4, r4, #8
10001d10:	4321      	orrs	r1, r4
10001d12:	8099      	strh	r1, [r3, #4]
10001d14:	1812      	adds	r2, r2, r0
10001d16:	4b26      	ldr	r3, [pc, #152]	; (10001db0 <irq_remove_handler+0x19c>)
10001d18:	0092      	lsls	r2, r2, #2
10001d1a:	18b6      	adds	r6, r6, r2
10001d1c:	781a      	ldrb	r2, [r3, #0]
10001d1e:	7018      	strb	r0, [r3, #0]
10001d20:	71b2      	strb	r2, [r6, #6]
10001d22:	9b00      	ldr	r3, [sp, #0]
10001d24:	2b00      	cmp	r3, #0
10001d26:	d108      	bne.n	10001d3a <irq_remove_handler+0x126>
10001d28:	4652      	mov	r2, sl
10001d2a:	4b20      	ldr	r3, [pc, #128]	; (10001dac <irq_remove_handler+0x198>)
10001d2c:	601a      	str	r2, [r3, #0]
10001d2e:	e795      	b.n	10001c5c <irq_remove_handler+0x48>
10001d30:	4580      	cmp	r8, r0
10001d32:	d0b8      	beq.n	10001ca6 <irq_remove_handler+0x92>
10001d34:	f7ff fd62 	bl	100017fc <hard_assertion_failure>
10001d38:	e7b5      	b.n	10001ca6 <irq_remove_handler+0x92>
10001d3a:	4652      	mov	r2, sl
10001d3c:	4b1d      	ldr	r3, [pc, #116]	; (10001db4 <irq_remove_handler+0x1a0>)
10001d3e:	601a      	str	r2, [r3, #0]
10001d40:	4b19      	ldr	r3, [pc, #100]	; (10001da8 <irq_remove_handler+0x194>)
10001d42:	601a      	str	r2, [r3, #0]
10001d44:	e78a      	b.n	10001c5c <irq_remove_handler+0x48>
10001d46:	001d      	movs	r5, r3
10001d48:	e788      	b.n	10001c5c <irq_remove_handler+0x48>
10001d4a:	21bd      	movs	r1, #189	; 0xbd
10001d4c:	0209      	lsls	r1, r1, #8
10001d4e:	e7e0      	b.n	10001d12 <irq_remove_handler+0xfe>
10001d50:	000b      	movs	r3, r1
10001d52:	2200      	movs	r2, #0
10001d54:	e7bf      	b.n	10001cd6 <irq_remove_handler+0xc2>
10001d56:	9801      	ldr	r0, [sp, #4]
10001d58:	2800      	cmp	r0, #0
10001d5a:	d10e      	bne.n	10001d7a <irq_remove_handler+0x166>
10001d5c:	2a00      	cmp	r2, #0
10001d5e:	d019      	beq.n	10001d94 <irq_remove_handler+0x180>
10001d60:	30ff      	adds	r0, #255	; 0xff
10001d62:	7190      	strb	r0, [r2, #6]
10001d64:	4814      	ldr	r0, [pc, #80]	; (10001db8 <irq_remove_handler+0x1a4>)
10001d66:	8090      	strh	r0, [r2, #4]
10001d68:	4a11      	ldr	r2, [pc, #68]	; (10001db0 <irq_remove_handler+0x19c>)
10001d6a:	1b89      	subs	r1, r1, r6
10001d6c:	7810      	ldrb	r0, [r2, #0]
10001d6e:	1089      	asrs	r1, r1, #2
10001d70:	7198      	strb	r0, [r3, #6]
10001d72:	4b12      	ldr	r3, [pc, #72]	; (10001dbc <irq_remove_handler+0x1a8>)
10001d74:	434b      	muls	r3, r1
10001d76:	7013      	strb	r3, [r2, #0]
10001d78:	e7d3      	b.n	10001d22 <irq_remove_handler+0x10e>
10001d7a:	4a11      	ldr	r2, [pc, #68]	; (10001dc0 <irq_remove_handler+0x1ac>)
10001d7c:	4911      	ldr	r1, [pc, #68]	; (10001dc4 <irq_remove_handler+0x1b0>)
10001d7e:	1ad2      	subs	r2, r2, r3
10001d80:	3a08      	subs	r2, #8
10001d82:	0250      	lsls	r0, r2, #9
10001d84:	0d40      	lsrs	r0, r0, #21
10001d86:	4301      	orrs	r1, r0
10001d88:	8099      	strh	r1, [r3, #4]
10001d8a:	490f      	ldr	r1, [pc, #60]	; (10001dc8 <irq_remove_handler+0x1b4>)
10001d8c:	0852      	lsrs	r2, r2, #1
10001d8e:	430a      	orrs	r2, r1
10001d90:	80da      	strh	r2, [r3, #6]
10001d92:	e7c6      	b.n	10001d22 <irq_remove_handler+0x10e>
10001d94:	464d      	mov	r5, r9
10001d96:	e7e7      	b.n	10001d68 <irq_remove_handler+0x154>
10001d98:	d0000124 	.word	0xd0000124
10001d9c:	e000ed00 	.word	0xe000ed00
10001da0:	100002cd 	.word	0x100002cd
10001da4:	20000244 	.word	0x20000244
10001da8:	e000e100 	.word	0xe000e100
10001dac:	e000e180 	.word	0xe000e180
10001db0:	20001640 	.word	0x20001640
10001db4:	e000e280 	.word	0xe000e280
10001db8:	ffffbd00 	.word	0xffffbd00
10001dbc:	aaaaaaab 	.word	0xaaaaaaab
10001dc0:	2000027e 	.word	0x2000027e
10001dc4:	fffff000 	.word	0xfffff000
10001dc8:	fffff800 	.word	0xfffff800

10001dcc <irq_add_tail_to_free_list>:
10001dcc:	b5f8      	push	{r3, r4, r5, r6, r7, lr}
10001dce:	2501      	movs	r5, #1
10001dd0:	0004      	movs	r4, r0
10001dd2:	4305      	orrs	r5, r0
10001dd4:	f7fe f9df 	bl	10000196 <__get_current_exception>
10001dd8:	f3ef 8610 	mrs	r6, PRIMASK
10001ddc:	b672      	cpsid	i
10001dde:	4a20      	ldr	r2, [pc, #128]	; (10001e60 <irq_add_tail_to_free_list+0x94>)
10001de0:	6813      	ldr	r3, [r2, #0]
10001de2:	2b00      	cmp	r3, #0
10001de4:	d0fc      	beq.n	10001de0 <irq_add_tail_to_free_list+0x14>
10001de6:	f3bf 8f5f 	dmb	sy
10001dea:	4a1e      	ldr	r2, [pc, #120]	; (10001e64 <irq_add_tail_to_free_list+0x98>)
10001dec:	491e      	ldr	r1, [pc, #120]	; (10001e68 <irq_add_tail_to_free_list+0x9c>)
10001dee:	1aa3      	subs	r3, r4, r2
10001df0:	109b      	asrs	r3, r3, #2
10001df2:	434b      	muls	r3, r1
10001df4:	491d      	ldr	r1, [pc, #116]	; (10001e6c <irq_add_tail_to_free_list+0xa0>)
10001df6:	0080      	lsls	r0, r0, #2
10001df8:	688f      	ldr	r7, [r1, #8]
10001dfa:	583f      	ldr	r7, [r7, r0]
10001dfc:	42bd      	cmp	r5, r7
10001dfe:	d026      	beq.n	10001e4e <irq_add_tail_to_free_list+0x82>
10001e00:	2106      	movs	r1, #6
10001e02:	5651      	ldrsb	r1, [r2, r1]
10001e04:	428b      	cmp	r3, r1
10001e06:	d026      	beq.n	10001e56 <irq_add_tail_to_free_list+0x8a>
10001e08:	2112      	movs	r1, #18
10001e0a:	5651      	ldrsb	r1, [r2, r1]
10001e0c:	428b      	cmp	r3, r1
10001e0e:	d024      	beq.n	10001e5a <irq_add_tail_to_free_list+0x8e>
10001e10:	211e      	movs	r1, #30
10001e12:	5651      	ldrsb	r1, [r2, r1]
10001e14:	428b      	cmp	r3, r1
10001e16:	d010      	beq.n	10001e3a <irq_add_tail_to_free_list+0x6e>
10001e18:	212a      	movs	r1, #42	; 0x2a
10001e1a:	5651      	ldrsb	r1, [r2, r1]
10001e1c:	2003      	movs	r0, #3
10001e1e:	428b      	cmp	r3, r1
10001e20:	d00c      	beq.n	10001e3c <irq_add_tail_to_free_list+0x70>
10001e22:	4a13      	ldr	r2, [pc, #76]	; (10001e70 <irq_add_tail_to_free_list+0xa4>)
10001e24:	7811      	ldrb	r1, [r2, #0]
10001e26:	7013      	strb	r3, [r2, #0]
10001e28:	71a1      	strb	r1, [r4, #6]
10001e2a:	f3bf 8f5f 	dmb	sy
10001e2e:	2200      	movs	r2, #0
10001e30:	4b0b      	ldr	r3, [pc, #44]	; (10001e60 <irq_add_tail_to_free_list+0x94>)
10001e32:	601a      	str	r2, [r3, #0]
10001e34:	f386 8810 	msr	PRIMASK, r6
10001e38:	bdf8      	pop	{r3, r4, r5, r6, r7, pc}
10001e3a:	2002      	movs	r0, #2
10001e3c:	0041      	lsls	r1, r0, #1
10001e3e:	1809      	adds	r1, r1, r0
10001e40:	0089      	lsls	r1, r1, #2
10001e42:	1852      	adds	r2, r2, r1
10001e44:	21ff      	movs	r1, #255	; 0xff
10001e46:	7191      	strb	r1, [r2, #6]
10001e48:	490a      	ldr	r1, [pc, #40]	; (10001e74 <irq_add_tail_to_free_list+0xa8>)
10001e4a:	8091      	strh	r1, [r2, #4]
10001e4c:	e7e9      	b.n	10001e22 <irq_add_tail_to_free_list+0x56>
10001e4e:	688a      	ldr	r2, [r1, #8]
10001e50:	4909      	ldr	r1, [pc, #36]	; (10001e78 <irq_add_tail_to_free_list+0xac>)
10001e52:	5011      	str	r1, [r2, r0]
10001e54:	e7e5      	b.n	10001e22 <irq_add_tail_to_free_list+0x56>
10001e56:	2000      	movs	r0, #0
10001e58:	e7f0      	b.n	10001e3c <irq_add_tail_to_free_list+0x70>
10001e5a:	2001      	movs	r0, #1
10001e5c:	e7ee      	b.n	10001e3c <irq_add_tail_to_free_list+0x70>
10001e5e:	46c0      	nop			; (mov r8, r8)
10001e60:	d0000124 	.word	0xd0000124
10001e64:	20000244 	.word	0x20000244
10001e68:	aaaaaaab 	.word	0xaaaaaaab
10001e6c:	e000ed00 	.word	0xe000ed00
10001e70:	20001640 	.word	0x20001640
10001e74:	ffffbd00 	.word	0xffffbd00
10001e78:	100002cd 	.word	0x100002cd

10001e7c <irq_init_priorities>:
10001e7c:	b5f0      	push	{r4, r5, r6, r7, lr}
10001e7e:	2200      	movs	r2, #0
10001e80:	2403      	movs	r4, #3
10001e82:	27ff      	movs	r7, #255	; 0xff
10001e84:	2680      	movs	r6, #128	; 0x80
10001e86:	0020      	movs	r0, r4
10001e88:	003d      	movs	r5, r7
10001e8a:	4b09      	ldr	r3, [pc, #36]	; (10001eb0 <irq_init_priorities+0x34>)
10001e8c:	0011      	movs	r1, r2
10001e8e:	469c      	mov	ip, r3
10001e90:	4010      	ands	r0, r2
10001e92:	00c0      	lsls	r0, r0, #3
10001e94:	4085      	lsls	r5, r0
10001e96:	43a1      	bics	r1, r4
10001e98:	4461      	add	r1, ip
10001e9a:	680b      	ldr	r3, [r1, #0]
10001e9c:	3201      	adds	r2, #1
10001e9e:	43ab      	bics	r3, r5
10001ea0:	0035      	movs	r5, r6
10001ea2:	4085      	lsls	r5, r0
10001ea4:	432b      	orrs	r3, r5
10001ea6:	600b      	str	r3, [r1, #0]
10001ea8:	2a20      	cmp	r2, #32
10001eaa:	d1ec      	bne.n	10001e86 <irq_init_priorities+0xa>
10001eac:	bdf0      	pop	{r4, r5, r6, r7, pc}
10001eae:	46c0      	nop			; (mov r8, r8)
10001eb0:	e000e400 	.word	0xe000e400

10001eb4 <_out_char>:
10001eb4:	b510      	push	{r4, lr}
10001eb6:	2800      	cmp	r0, #0
10001eb8:	d100      	bne.n	10001ebc <_out_char+0x8>
10001eba:	bd10      	pop	{r4, pc}
10001ebc:	4b0b      	ldr	r3, [pc, #44]	; (10001eec <_out_char+0x38>)
10001ebe:	681c      	ldr	r4, [r3, #0]
10001ec0:	68a2      	ldr	r2, [r4, #8]
10001ec2:	6893      	ldr	r3, [r2, #8]
10001ec4:	3b01      	subs	r3, #1
10001ec6:	6093      	str	r3, [r2, #8]
10001ec8:	2b00      	cmp	r3, #0
10001eca:	db04      	blt.n	10001ed6 <_out_char+0x22>
10001ecc:	6813      	ldr	r3, [r2, #0]
10001ece:	1c59      	adds	r1, r3, #1
10001ed0:	6011      	str	r1, [r2, #0]
10001ed2:	7018      	strb	r0, [r3, #0]
10001ed4:	e7f1      	b.n	10001eba <_out_char+0x6>
10001ed6:	6991      	ldr	r1, [r2, #24]
10001ed8:	428b      	cmp	r3, r1
10001eda:	db01      	blt.n	10001ee0 <_out_char+0x2c>
10001edc:	280a      	cmp	r0, #10
10001ede:	d1f5      	bne.n	10001ecc <_out_char+0x18>
10001ee0:	0001      	movs	r1, r0
10001ee2:	0020      	movs	r0, r4
10001ee4:	f002 ff7a 	bl	10004ddc <__swbuf_r>
10001ee8:	e7e7      	b.n	10001eba <_out_char+0x6>
10001eea:	46c0      	nop			; (mov r8, r8)
10001eec:	200002f0 	.word	0x200002f0

10001ef0 <weak_raw_vprintf>:
10001ef0:	b510      	push	{r4, lr}
10001ef2:	4a09      	ldr	r2, [pc, #36]	; (10001f18 <weak_raw_vprintf+0x28>)
10001ef4:	b084      	sub	sp, #16
10001ef6:	6814      	ldr	r4, [r2, #0]
10001ef8:	2c00      	cmp	r4, #0
10001efa:	d009      	beq.n	10001f10 <weak_raw_vprintf+0x20>
10001efc:	2201      	movs	r2, #1
10001efe:	9100      	str	r1, [sp, #0]
10001f00:	0003      	movs	r3, r0
10001f02:	4252      	negs	r2, r2
10001f04:	a903      	add	r1, sp, #12
10001f06:	4805      	ldr	r0, [pc, #20]	; (10001f1c <weak_raw_vprintf+0x2c>)
10001f08:	47a0      	blx	r4
10001f0a:	2001      	movs	r0, #1
10001f0c:	b004      	add	sp, #16
10001f0e:	bd10      	pop	{r4, pc}
10001f10:	f000 f984 	bl	1000221c <__wrap_puts>
10001f14:	2000      	movs	r0, #0
10001f16:	e7f9      	b.n	10001f0c <weak_raw_vprintf+0x1c>
10001f18:	2000160c 	.word	0x2000160c
10001f1c:	10001eb5 	.word	0x10001eb5

10001f20 <__aeabi_bits_init>:
10001f20:	4801      	ldr	r0, [pc, #4]	; (10001f28 <__aeabi_bits_init+0x8>)
10001f22:	2104      	movs	r1, #4
10001f24:	4b01      	ldr	r3, [pc, #4]	; (10001f2c <__aeabi_bits_init+0xc>)
10001f26:	4718      	bx	r3
10001f28:	20000290 	.word	0x20000290
10001f2c:	10001f51 	.word	0x10001f51

10001f30 <rom_func_lookup>:
10001f30:	2314      	movs	r3, #20
10001f32:	b510      	push	{r4, lr}
10001f34:	0001      	movs	r1, r0
10001f36:	8818      	ldrh	r0, [r3, #0]
10001f38:	3304      	adds	r3, #4
10001f3a:	881b      	ldrh	r3, [r3, #0]
10001f3c:	4798      	blx	r3
10001f3e:	bd10      	pop	{r4, pc}

10001f40 <rom_data_lookup>:
10001f40:	2316      	movs	r3, #22
10001f42:	b510      	push	{r4, lr}
10001f44:	0001      	movs	r1, r0
10001f46:	8818      	ldrh	r0, [r3, #0]
10001f48:	3302      	adds	r3, #2
10001f4a:	881b      	ldrh	r3, [r3, #0]
10001f4c:	4798      	blx	r3
10001f4e:	bd10      	pop	{r4, pc}

10001f50 <rom_funcs_lookup>:
10001f50:	b5f8      	push	{r3, r4, r5, r6, r7, lr}
10001f52:	4647      	mov	r7, r8
10001f54:	46ce      	mov	lr, r9
10001f56:	b580      	push	{r7, lr}
10001f58:	1e0f      	subs	r7, r1, #0
10001f5a:	d019      	beq.n	10001f90 <rom_funcs_lookup+0x40>
10001f5c:	2314      	movs	r3, #20
10001f5e:	4699      	mov	r9, r3
10001f60:	3304      	adds	r3, #4
10001f62:	0004      	movs	r4, r0
10001f64:	2500      	movs	r5, #0
10001f66:	2601      	movs	r6, #1
10001f68:	4698      	mov	r8, r3
10001f6a:	464b      	mov	r3, r9
10001f6c:	8818      	ldrh	r0, [r3, #0]
10001f6e:	4643      	mov	r3, r8
10001f70:	6821      	ldr	r1, [r4, #0]
10001f72:	881b      	ldrh	r3, [r3, #0]
10001f74:	4798      	blx	r3
10001f76:	c401      	stmia	r4!, {r0}
10001f78:	1e43      	subs	r3, r0, #1
10001f7a:	4198      	sbcs	r0, r3
10001f7c:	3501      	adds	r5, #1
10001f7e:	4240      	negs	r0, r0
10001f80:	4006      	ands	r6, r0
10001f82:	42af      	cmp	r7, r5
10001f84:	d1f1      	bne.n	10001f6a <rom_funcs_lookup+0x1a>
10001f86:	0030      	movs	r0, r6
10001f88:	bc0c      	pop	{r2, r3}
10001f8a:	4690      	mov	r8, r2
10001f8c:	4699      	mov	r9, r3
10001f8e:	bdf8      	pop	{r3, r4, r5, r6, r7, pc}
10001f90:	2601      	movs	r6, #1
10001f92:	e7f8      	b.n	10001f86 <rom_funcs_lookup+0x36>

10001f94 <__wrap___aeabi_uidiv>:
10001f94:	4a13      	ldr	r2, [pc, #76]	; (10001fe4 <divmod_u32u32_savestate+0x20>)
10001f96:	6f93      	ldr	r3, [r2, #120]	; 0x78
10001f98:	089b      	lsrs	r3, r3, #2
10001f9a:	d213      	bcs.n	10001fc4 <divmod_u32u32_savestate>

10001f9c <divmod_u32u32_unsafe>:
10001f9c:	6610      	str	r0, [r2, #96]	; 0x60
10001f9e:	6651      	str	r1, [r2, #100]	; 0x64
10001fa0:	2900      	cmp	r1, #0
10001fa2:	d005      	beq.n	10001fb0 <divmod_u32u32_unsafe+0x14>
10001fa4:	e7ff      	b.n	10001fa6 <divmod_u32u32_unsafe+0xa>
10001fa6:	e7ff      	b.n	10001fa8 <divmod_u32u32_unsafe+0xc>
10001fa8:	e7ff      	b.n	10001faa <divmod_u32u32_unsafe+0xe>
10001faa:	6f51      	ldr	r1, [r2, #116]	; 0x74
10001fac:	6f10      	ldr	r0, [r2, #112]	; 0x70
10001fae:	4770      	bx	lr
10001fb0:	b504      	push	{r2, lr}
10001fb2:	2800      	cmp	r0, #0
10001fb4:	d001      	beq.n	10001fba <divmod_u32u32_unsafe+0x1e>
10001fb6:	2000      	movs	r0, #0
10001fb8:	43c0      	mvns	r0, r0
10001fba:	f003 fcf5 	bl	100059a8 <____aeabi_idiv0_veneer>
10001fbe:	2100      	movs	r1, #0
10001fc0:	bd04      	pop	{r2, pc}
10001fc2:	46c0      	nop			; (mov r8, r8)

10001fc4 <divmod_u32u32_savestate>:
10001fc4:	6f93      	ldr	r3, [r2, #120]	; 0x78
10001fc6:	085b      	lsrs	r3, r3, #1
10001fc8:	d3fd      	bcc.n	10001fc6 <divmod_u32u32_savestate+0x2>
10001fca:	b5f0      	push	{r4, r5, r6, r7, lr}
10001fcc:	6e94      	ldr	r4, [r2, #104]	; 0x68
10001fce:	6ed5      	ldr	r5, [r2, #108]	; 0x6c
10001fd0:	6f57      	ldr	r7, [r2, #116]	; 0x74
10001fd2:	6f16      	ldr	r6, [r2, #112]	; 0x70
10001fd4:	f7ff ffe2 	bl	10001f9c <divmod_u32u32_unsafe>
10001fd8:	6694      	str	r4, [r2, #104]	; 0x68
10001fda:	66d5      	str	r5, [r2, #108]	; 0x6c
10001fdc:	6757      	str	r7, [r2, #116]	; 0x74
10001fde:	6716      	str	r6, [r2, #112]	; 0x70
10001fe0:	bdf0      	pop	{r4, r5, r6, r7, pc}
10001fe2:	0000      	.short	0x0000
10001fe4:	d0000000 	.word	0xd0000000

10001fe8 <__aeabi_double_init>:
10001fe8:	2313      	movs	r3, #19
10001fea:	b570      	push	{r4, r5, r6, lr}
10001fec:	781c      	ldrb	r4, [r3, #0]
10001fee:	2c01      	cmp	r4, #1
10001ff0:	d010      	beq.n	10002014 <__aeabi_double_init+0x2c>
10001ff2:	dd0b      	ble.n	1000200c <__aeabi_double_init+0x24>
10001ff4:	480c      	ldr	r0, [pc, #48]	; (10002028 <__aeabi_double_init+0x40>)
10001ff6:	f7ff ffa3 	bl	10001f40 <rom_data_lookup>
10001ffa:	4d0c      	ldr	r5, [pc, #48]	; (1000202c <__aeabi_double_init+0x44>)
10001ffc:	0001      	movs	r1, r0
10001ffe:	2280      	movs	r2, #128	; 0x80
10002000:	0028      	movs	r0, r5
10002002:	f000 f8a7 	bl	10002154 <__wrap___aeabi_memcpy>
10002006:	2c02      	cmp	r4, #2
10002008:	d001      	beq.n	1000200e <__aeabi_double_init+0x26>
1000200a:	bd70      	pop	{r4, r5, r6, pc}
1000200c:	4d07      	ldr	r5, [pc, #28]	; (1000202c <__aeabi_double_init+0x44>)
1000200e:	4a08      	ldr	r2, [pc, #32]	; (10002030 <__aeabi_double_init+0x48>)
10002010:	64aa      	str	r2, [r5, #72]	; 0x48
10002012:	e7fa      	b.n	1000200a <__aeabi_double_init+0x22>
10002014:	4d05      	ldr	r5, [pc, #20]	; (1000202c <__aeabi_double_init+0x44>)
10002016:	4a06      	ldr	r2, [pc, #24]	; (10002030 <__aeabi_double_init+0x48>)
10002018:	0029      	movs	r1, r5
1000201a:	002b      	movs	r3, r5
1000201c:	3180      	adds	r1, #128	; 0x80
1000201e:	c304      	stmia	r3!, {r2}
10002020:	428b      	cmp	r3, r1
10002022:	d1fc      	bne.n	1000201e <__aeabi_double_init+0x36>
10002024:	64aa      	str	r2, [r5, #72]	; 0x48
10002026:	e7f0      	b.n	1000200a <__aeabi_double_init+0x22>
10002028:	00004453 	.word	0x00004453
1000202c:	20001644 	.word	0x20001644
10002030:	10002035 	.word	0x10002035

10002034 <double_table_shim_on_use_helper>:
10002034:	b507      	push	{r0, r1, r2, lr}
10002036:	4660      	mov	r0, ip
10002038:	8801      	ldrh	r1, [r0, #0]
1000203a:	0a0a      	lsrs	r2, r1, #8
1000203c:	3002      	adds	r0, #2
1000203e:	2adf      	cmp	r2, #223	; 0xdf
10002040:	d1fa      	bne.n	10002038 <double_table_shim_on_use_helper+0x4>
10002042:	b2c9      	uxtb	r1, r1
10002044:	0882      	lsrs	r2, r0, #2
10002046:	d304      	bcc.n	10002052 <double_table_shim_on_use_helper+0x1e>
10002048:	8802      	ldrh	r2, [r0, #0]
1000204a:	8840      	ldrh	r0, [r0, #2]
1000204c:	0400      	lsls	r0, r0, #16
1000204e:	4310      	orrs	r0, r2
10002050:	e000      	b.n	10002054 <double_table_shim_on_use_helper+0x20>
10002052:	6800      	ldr	r0, [r0, #0]
10002054:	4a01      	ldr	r2, [pc, #4]	; (1000205c <double_table_shim_on_use_helper+0x28>)
10002056:	5050      	str	r0, [r2, r1]
10002058:	9003      	str	r0, [sp, #12]
1000205a:	bd07      	pop	{r0, r1, r2, pc}
1000205c:	20001644 	.word	0x20001644

10002060 <__wrap___aeabi_lmul>:
10002060:	4351      	muls	r1, r2
10002062:	4343      	muls	r3, r0
10002064:	18c9      	adds	r1, r1, r3
10002066:	468c      	mov	ip, r1
10002068:	0c11      	lsrs	r1, r2, #16
1000206a:	b283      	uxth	r3, r0
1000206c:	434b      	muls	r3, r1
1000206e:	b410      	push	{r4}
10002070:	0c04      	lsrs	r4, r0, #16
10002072:	4361      	muls	r1, r4
10002074:	b292      	uxth	r2, r2
10002076:	b280      	uxth	r0, r0
10002078:	4350      	muls	r0, r2
1000207a:	4362      	muls	r2, r4
1000207c:	041c      	lsls	r4, r3, #16
1000207e:	0c1b      	lsrs	r3, r3, #16
10002080:	1900      	adds	r0, r0, r4
10002082:	bc10      	pop	{r4}
10002084:	4159      	adcs	r1, r3
10002086:	0413      	lsls	r3, r2, #16
10002088:	0c12      	lsrs	r2, r2, #16
1000208a:	18c0      	adds	r0, r0, r3
1000208c:	4151      	adcs	r1, r2
1000208e:	4461      	add	r1, ip
10002090:	4770      	bx	lr
	...

10002094 <__aeabi_float_init>:
10002094:	2313      	movs	r3, #19
10002096:	b510      	push	{r4, lr}
10002098:	781c      	ldrb	r4, [r3, #0]
1000209a:	4813      	ldr	r0, [pc, #76]	; (100020e8 <__aeabi_float_init+0x54>)
1000209c:	f7ff ff50 	bl	10001f40 <rom_data_lookup>
100020a0:	2c01      	cmp	r4, #1
100020a2:	d00b      	beq.n	100020bc <__aeabi_float_init+0x28>
100020a4:	dd04      	ble.n	100020b0 <__aeabi_float_init+0x1c>
100020a6:	0001      	movs	r1, r0
100020a8:	2280      	movs	r2, #128	; 0x80
100020aa:	4810      	ldr	r0, [pc, #64]	; (100020ec <__aeabi_float_init+0x58>)
100020ac:	f000 f852 	bl	10002154 <__wrap___aeabi_memcpy>
100020b0:	480f      	ldr	r0, [pc, #60]	; (100020f0 <__aeabi_float_init+0x5c>)
100020b2:	f7ff ff3d 	bl	10001f30 <rom_func_lookup>
100020b6:	4b0f      	ldr	r3, [pc, #60]	; (100020f4 <__aeabi_float_init+0x60>)
100020b8:	6018      	str	r0, [r3, #0]
100020ba:	bd10      	pop	{r4, pc}
100020bc:	4c0b      	ldr	r4, [pc, #44]	; (100020ec <__aeabi_float_init+0x58>)
100020be:	0001      	movs	r1, r0
100020c0:	2254      	movs	r2, #84	; 0x54
100020c2:	0020      	movs	r0, r4
100020c4:	f000 f846 	bl	10002154 <__wrap___aeabi_memcpy>
100020c8:	4b0b      	ldr	r3, [pc, #44]	; (100020f8 <__aeabi_float_init+0x64>)
100020ca:	6563      	str	r3, [r4, #84]	; 0x54
100020cc:	65a3      	str	r3, [r4, #88]	; 0x58
100020ce:	65e3      	str	r3, [r4, #92]	; 0x5c
100020d0:	6623      	str	r3, [r4, #96]	; 0x60
100020d2:	6663      	str	r3, [r4, #100]	; 0x64
100020d4:	66a3      	str	r3, [r4, #104]	; 0x68
100020d6:	66e3      	str	r3, [r4, #108]	; 0x6c
100020d8:	6723      	str	r3, [r4, #112]	; 0x70
100020da:	6763      	str	r3, [r4, #116]	; 0x74
100020dc:	67a3      	str	r3, [r4, #120]	; 0x78
100020de:	67e3      	str	r3, [r4, #124]	; 0x7c
100020e0:	6223      	str	r3, [r4, #32]
100020e2:	61e3      	str	r3, [r4, #28]
100020e4:	e7e4      	b.n	100020b0 <__aeabi_float_init+0x1c>
100020e6:	46c0      	nop			; (mov r8, r8)
100020e8:	00004653 	.word	0x00004653
100020ec:	20001744 	.word	0x20001744
100020f0:	0000334c 	.word	0x0000334c
100020f4:	20001844 	.word	0x20001844
100020f8:	100020fd 	.word	0x100020fd

100020fc <float_table_shim_on_use_helper>:
100020fc:	b507      	push	{r0, r1, r2, lr}
100020fe:	4660      	mov	r0, ip
10002100:	8801      	ldrh	r1, [r0, #0]
10002102:	0a0a      	lsrs	r2, r1, #8
10002104:	3002      	adds	r0, #2
10002106:	2adf      	cmp	r2, #223	; 0xdf
10002108:	d1fa      	bne.n	10002100 <float_table_shim_on_use_helper+0x4>
1000210a:	b2c9      	uxtb	r1, r1
1000210c:	0882      	lsrs	r2, r0, #2
1000210e:	d304      	bcc.n	1000211a <float_table_shim_on_use_helper+0x1e>
10002110:	8802      	ldrh	r2, [r0, #0]
10002112:	8840      	ldrh	r0, [r0, #2]
10002114:	0400      	lsls	r0, r0, #16
10002116:	4310      	orrs	r0, r2
10002118:	e000      	b.n	1000211c <float_table_shim_on_use_helper+0x20>
1000211a:	6800      	ldr	r0, [r0, #0]
1000211c:	4a01      	ldr	r2, [pc, #4]	; (10002124 <float_table_shim_on_use_helper+0x28>)
1000211e:	5050      	str	r0, [r2, r1]
10002120:	9003      	str	r0, [sp, #12]
10002122:	bd07      	pop	{r0, r1, r2, pc}
10002124:	20001744 	.word	0x20001744

10002128 <__wrap_malloc>:
10002128:	b510      	push	{r4, lr}
1000212a:	f002 fb4f 	bl	100047cc <malloc>
1000212e:	bd10      	pop	{r4, pc}

10002130 <__wrap_calloc>:
10002130:	b510      	push	{r4, lr}
10002132:	f002 fb13 	bl	1000475c <calloc>
10002136:	bd10      	pop	{r4, pc}

10002138 <__aeabi_mem_init>:
10002138:	4801      	ldr	r0, [pc, #4]	; (10002140 <__aeabi_mem_init+0x8>)
1000213a:	2104      	movs	r1, #4
1000213c:	4b01      	ldr	r3, [pc, #4]	; (10002144 <__aeabi_mem_init+0xc>)
1000213e:	4718      	bx	r3
10002140:	200002a0 	.word	0x200002a0
10002144:	10001f51 	.word	0x10001f51

10002148 <__wrap_memset>:
10002148:	4b01      	ldr	r3, [pc, #4]	; (10002150 <__wrap_memset+0x8>)
1000214a:	681b      	ldr	r3, [r3, #0]
1000214c:	4718      	bx	r3
1000214e:	0000      	.short	0x0000
10002150:	200002a0 	.word	0x200002a0

10002154 <__wrap___aeabi_memcpy>:
10002154:	4b01      	ldr	r3, [pc, #4]	; (1000215c <__wrap___aeabi_memcpy+0x8>)
10002156:	685b      	ldr	r3, [r3, #4]
10002158:	4718      	bx	r3
1000215a:	0000      	.short	0x0000
1000215c:	200002a0 	.word	0x200002a0

10002160 <stdio_out_chars_crlf>:
10002160:	b5f8      	push	{r3, r4, r5, r6, r7, lr}
10002162:	4647      	mov	r7, r8
10002164:	46ce      	mov	lr, r9
10002166:	b580      	push	{r7, lr}
10002168:	7c43      	ldrb	r3, [r0, #17]
1000216a:	4680      	mov	r8, r0
1000216c:	000e      	movs	r6, r1
1000216e:	0017      	movs	r7, r2
10002170:	2b00      	cmp	r3, #0
10002172:	d048      	beq.n	10002206 <stdio_out_chars_crlf+0xa6>
10002174:	2a00      	cmp	r2, #0
10002176:	dd2e      	ble.n	100021d6 <stdio_out_chars_crlf+0x76>
10002178:	4b27      	ldr	r3, [pc, #156]	; (10002218 <stdio_out_chars_crlf+0xb8>)
1000217a:	2501      	movs	r5, #1
1000217c:	2400      	movs	r4, #0
1000217e:	2000      	movs	r0, #0
10002180:	4699      	mov	r9, r3
10002182:	e004      	b.n	1000218e <stdio_out_chars_crlf+0x2e>
10002184:	002b      	movs	r3, r5
10002186:	3401      	adds	r4, #1
10002188:	3501      	adds	r5, #1
1000218a:	429f      	cmp	r7, r3
1000218c:	dd19      	ble.n	100021c2 <stdio_out_chars_crlf+0x62>
1000218e:	2c00      	cmp	r4, #0
10002190:	d03e      	beq.n	10002210 <stdio_out_chars_crlf+0xb0>
10002192:	1e63      	subs	r3, r4, #1
10002194:	5cf3      	ldrb	r3, [r6, r3]
10002196:	3b0d      	subs	r3, #13
10002198:	4259      	negs	r1, r3
1000219a:	4159      	adcs	r1, r3
1000219c:	b2cb      	uxtb	r3, r1
1000219e:	5d32      	ldrb	r2, [r6, r4]
100021a0:	2a0a      	cmp	r2, #10
100021a2:	d1ef      	bne.n	10002184 <stdio_out_chars_crlf+0x24>
100021a4:	2b00      	cmp	r3, #0
100021a6:	d1ed      	bne.n	10002184 <stdio_out_chars_crlf+0x24>
100021a8:	4284      	cmp	r4, r0
100021aa:	dc26      	bgt.n	100021fa <stdio_out_chars_crlf+0x9a>
100021ac:	4643      	mov	r3, r8
100021ae:	4648      	mov	r0, r9
100021b0:	681b      	ldr	r3, [r3, #0]
100021b2:	2102      	movs	r1, #2
100021b4:	4798      	blx	r3
100021b6:	3401      	adds	r4, #1
100021b8:	0028      	movs	r0, r5
100021ba:	002b      	movs	r3, r5
100021bc:	3501      	adds	r5, #1
100021be:	429f      	cmp	r7, r3
100021c0:	dce5      	bgt.n	1000218e <stdio_out_chars_crlf+0x2e>
100021c2:	42b8      	cmp	r0, r7
100021c4:	db0b      	blt.n	100021de <stdio_out_chars_crlf+0x7e>
100021c6:	19f6      	adds	r6, r6, r7
100021c8:	3e01      	subs	r6, #1
100021ca:	7833      	ldrb	r3, [r6, #0]
100021cc:	3b0d      	subs	r3, #13
100021ce:	4259      	negs	r1, r3
100021d0:	4159      	adcs	r1, r3
100021d2:	4643      	mov	r3, r8
100021d4:	7419      	strb	r1, [r3, #16]
100021d6:	bc0c      	pop	{r2, r3}
100021d8:	4690      	mov	r8, r2
100021da:	4699      	mov	r9, r3
100021dc:	bdf8      	pop	{r3, r4, r5, r6, r7, pc}
100021de:	4643      	mov	r3, r8
100021e0:	1a39      	subs	r1, r7, r0
100021e2:	1830      	adds	r0, r6, r0
100021e4:	19f6      	adds	r6, r6, r7
100021e6:	681b      	ldr	r3, [r3, #0]
100021e8:	3e01      	subs	r6, #1
100021ea:	4798      	blx	r3
100021ec:	7833      	ldrb	r3, [r6, #0]
100021ee:	3b0d      	subs	r3, #13
100021f0:	4259      	negs	r1, r3
100021f2:	4159      	adcs	r1, r3
100021f4:	4643      	mov	r3, r8
100021f6:	7419      	strb	r1, [r3, #16]
100021f8:	e7ed      	b.n	100021d6 <stdio_out_chars_crlf+0x76>
100021fa:	4643      	mov	r3, r8
100021fc:	1a21      	subs	r1, r4, r0
100021fe:	681b      	ldr	r3, [r3, #0]
10002200:	1830      	adds	r0, r6, r0
10002202:	4798      	blx	r3
10002204:	e7d2      	b.n	100021ac <stdio_out_chars_crlf+0x4c>
10002206:	6803      	ldr	r3, [r0, #0]
10002208:	0011      	movs	r1, r2
1000220a:	0030      	movs	r0, r6
1000220c:	4798      	blx	r3
1000220e:	e7e2      	b.n	100021d6 <stdio_out_chars_crlf+0x76>
10002210:	4643      	mov	r3, r8
10002212:	7c1b      	ldrb	r3, [r3, #16]
10002214:	e7c3      	b.n	1000219e <stdio_out_chars_crlf+0x3e>
10002216:	46c0      	nop			; (mov r8, r8)
10002218:	10005aa8 	.word	0x10005aa8

1000221c <__wrap_puts>:
1000221c:	b5f0      	push	{r4, r5, r6, r7, lr}
1000221e:	46de      	mov	lr, fp
10002220:	464e      	mov	r6, r9
10002222:	4657      	mov	r7, sl
10002224:	4645      	mov	r5, r8
10002226:	b5e0      	push	{r5, r6, r7, lr}
10002228:	b083      	sub	sp, #12
1000222a:	0007      	movs	r7, r0
1000222c:	f002 fda4 	bl	10004d78 <strlen>
10002230:	23d0      	movs	r3, #208	; 0xd0
10002232:	ae01      	add	r6, sp, #4
10002234:	061b      	lsls	r3, r3, #24
10002236:	4680      	mov	r8, r0
10002238:	0031      	movs	r1, r6
1000223a:	4835      	ldr	r0, [pc, #212]	; (10002310 <__wrap_puts+0xf4>)
1000223c:	681c      	ldr	r4, [r3, #0]
1000223e:	f003 fbbb 	bl	100059b8 <__mutex_try_enter_veneer>
10002242:	4681      	mov	r9, r0
10002244:	2800      	cmp	r0, #0
10002246:	d107      	bne.n	10002258 <__wrap_puts+0x3c>
10002248:	9b01      	ldr	r3, [sp, #4]
1000224a:	429c      	cmp	r4, r3
1000224c:	d004      	beq.n	10002258 <__wrap_puts+0x3c>
1000224e:	4830      	ldr	r0, [pc, #192]	; (10002310 <__wrap_puts+0xf4>)
10002250:	f003 fbc2 	bl	100059d8 <__mutex_enter_blocking_veneer>
10002254:	2301      	movs	r3, #1
10002256:	4699      	mov	r9, r3
10002258:	4643      	mov	r3, r8
1000225a:	46c3      	mov	fp, r8
1000225c:	3301      	adds	r3, #1
1000225e:	d051      	beq.n	10002304 <__wrap_puts+0xe8>
10002260:	4b2c      	ldr	r3, [pc, #176]	; (10002314 <__wrap_puts+0xf8>)
10002262:	681c      	ldr	r4, [r3, #0]
10002264:	469a      	mov	sl, r3
10002266:	2c00      	cmp	r4, #0
10002268:	d040      	beq.n	100022ec <__wrap_puts+0xd0>
1000226a:	4d2b      	ldr	r5, [pc, #172]	; (10002318 <__wrap_puts+0xfc>)
1000226c:	e002      	b.n	10002274 <__wrap_puts+0x58>
1000226e:	68e4      	ldr	r4, [r4, #12]
10002270:	2c00      	cmp	r4, #0
10002272:	d020      	beq.n	100022b6 <__wrap_puts+0x9a>
10002274:	6823      	ldr	r3, [r4, #0]
10002276:	2b00      	cmp	r3, #0
10002278:	d0f9      	beq.n	1000226e <__wrap_puts+0x52>
1000227a:	682b      	ldr	r3, [r5, #0]
1000227c:	2b00      	cmp	r3, #0
1000227e:	d001      	beq.n	10002284 <__wrap_puts+0x68>
10002280:	42a3      	cmp	r3, r4
10002282:	d1f4      	bne.n	1000226e <__wrap_puts+0x52>
10002284:	465a      	mov	r2, fp
10002286:	0039      	movs	r1, r7
10002288:	0020      	movs	r0, r4
1000228a:	f7ff ff69 	bl	10002160 <stdio_out_chars_crlf>
1000228e:	230a      	movs	r3, #10
10002290:	7033      	strb	r3, [r6, #0]
10002292:	7c63      	ldrb	r3, [r4, #17]
10002294:	2b00      	cmp	r3, #0
10002296:	d030      	beq.n	100022fa <__wrap_puts+0xde>
10002298:	7c23      	ldrb	r3, [r4, #16]
1000229a:	2b00      	cmp	r3, #0
1000229c:	d121      	bne.n	100022e2 <__wrap_puts+0xc6>
1000229e:	2102      	movs	r1, #2
100022a0:	481e      	ldr	r0, [pc, #120]	; (1000231c <__wrap_puts+0x100>)
100022a2:	6823      	ldr	r3, [r4, #0]
100022a4:	4798      	blx	r3
100022a6:	7833      	ldrb	r3, [r6, #0]
100022a8:	3b0d      	subs	r3, #13
100022aa:	4259      	negs	r1, r3
100022ac:	4159      	adcs	r1, r3
100022ae:	7421      	strb	r1, [r4, #16]
100022b0:	68e4      	ldr	r4, [r4, #12]
100022b2:	2c00      	cmp	r4, #0
100022b4:	d1de      	bne.n	10002274 <__wrap_puts+0x58>
100022b6:	464b      	mov	r3, r9
100022b8:	2b00      	cmp	r3, #0
100022ba:	d11a      	bne.n	100022f2 <__wrap_puts+0xd6>
100022bc:	4653      	mov	r3, sl
100022be:	681c      	ldr	r4, [r3, #0]
100022c0:	2c00      	cmp	r4, #0
100022c2:	d006      	beq.n	100022d2 <__wrap_puts+0xb6>
100022c4:	6863      	ldr	r3, [r4, #4]
100022c6:	2b00      	cmp	r3, #0
100022c8:	d000      	beq.n	100022cc <__wrap_puts+0xb0>
100022ca:	4798      	blx	r3
100022cc:	68e4      	ldr	r4, [r4, #12]
100022ce:	2c00      	cmp	r4, #0
100022d0:	d1f8      	bne.n	100022c4 <__wrap_puts+0xa8>
100022d2:	4640      	mov	r0, r8
100022d4:	b003      	add	sp, #12
100022d6:	bc3c      	pop	{r2, r3, r4, r5}
100022d8:	4690      	mov	r8, r2
100022da:	4699      	mov	r9, r3
100022dc:	46a2      	mov	sl, r4
100022de:	46ab      	mov	fp, r5
100022e0:	bdf0      	pop	{r4, r5, r6, r7, pc}
100022e2:	2101      	movs	r1, #1
100022e4:	0030      	movs	r0, r6
100022e6:	6823      	ldr	r3, [r4, #0]
100022e8:	4798      	blx	r3
100022ea:	e7dc      	b.n	100022a6 <__wrap_puts+0x8a>
100022ec:	464b      	mov	r3, r9
100022ee:	2b00      	cmp	r3, #0
100022f0:	d0ef      	beq.n	100022d2 <__wrap_puts+0xb6>
100022f2:	4807      	ldr	r0, [pc, #28]	; (10002310 <__wrap_puts+0xf4>)
100022f4:	f003 fb50 	bl	10005998 <__mutex_exit_veneer>
100022f8:	e7e0      	b.n	100022bc <__wrap_puts+0xa0>
100022fa:	2101      	movs	r1, #1
100022fc:	0030      	movs	r0, r6
100022fe:	6823      	ldr	r3, [r4, #0]
10002300:	4798      	blx	r3
10002302:	e7b4      	b.n	1000226e <__wrap_puts+0x52>
10002304:	0038      	movs	r0, r7
10002306:	f002 fd37 	bl	10004d78 <strlen>
1000230a:	4683      	mov	fp, r0
1000230c:	e7a8      	b.n	10002260 <__wrap_puts+0x44>
1000230e:	46c0      	nop			; (mov r8, r8)
10002310:	20000b30 	.word	0x20000b30
10002314:	20000f80 	.word	0x20000f80
10002318:	20000f84 	.word	0x20000f84
1000231c:	10005aa8 	.word	0x10005aa8

10002320 <_read>:
10002320:	b5f0      	push	{r4, r5, r6, r7, lr}
10002322:	4646      	mov	r6, r8
10002324:	46de      	mov	lr, fp
10002326:	4657      	mov	r7, sl
10002328:	b5c0      	push	{r6, r7, lr}
1000232a:	4690      	mov	r8, r2
1000232c:	b082      	sub	sp, #8
1000232e:	000e      	movs	r6, r1
10002330:	2800      	cmp	r0, #0
10002332:	d12c      	bne.n	1000238e <_read+0x6e>
10002334:	4b17      	ldr	r3, [pc, #92]	; (10002394 <_read+0x74>)
10002336:	4d18      	ldr	r5, [pc, #96]	; (10002398 <_read+0x78>)
10002338:	681a      	ldr	r2, [r3, #0]
1000233a:	685b      	ldr	r3, [r3, #4]
1000233c:	4f17      	ldr	r7, [pc, #92]	; (1000239c <_read+0x7c>)
1000233e:	469a      	mov	sl, r3
10002340:	4b17      	ldr	r3, [pc, #92]	; (100023a0 <_read+0x80>)
10002342:	9201      	str	r2, [sp, #4]
10002344:	469b      	mov	fp, r3
10002346:	465b      	mov	r3, fp
10002348:	681c      	ldr	r4, [r3, #0]
1000234a:	2c00      	cmp	r4, #0
1000234c:	d105      	bne.n	1000235a <_read+0x3a>
1000234e:	e015      	b.n	1000237c <_read+0x5c>
10002350:	42a3      	cmp	r3, r4
10002352:	d005      	beq.n	10002360 <_read+0x40>
10002354:	68e4      	ldr	r4, [r4, #12]
10002356:	2c00      	cmp	r4, #0
10002358:	d010      	beq.n	1000237c <_read+0x5c>
1000235a:	682b      	ldr	r3, [r5, #0]
1000235c:	2b00      	cmp	r3, #0
1000235e:	d1f7      	bne.n	10002350 <_read+0x30>
10002360:	68a3      	ldr	r3, [r4, #8]
10002362:	2b00      	cmp	r3, #0
10002364:	d0f6      	beq.n	10002354 <_read+0x34>
10002366:	4641      	mov	r1, r8
10002368:	0030      	movs	r0, r6
1000236a:	4798      	blx	r3
1000236c:	2800      	cmp	r0, #0
1000236e:	ddf1      	ble.n	10002354 <_read+0x34>
10002370:	b002      	add	sp, #8
10002372:	bc1c      	pop	{r2, r3, r4}
10002374:	4690      	mov	r8, r2
10002376:	469a      	mov	sl, r3
10002378:	46a3      	mov	fp, r4
1000237a:	bdf0      	pop	{r4, r5, r6, r7, pc}
1000237c:	6a7b      	ldr	r3, [r7, #36]	; 0x24
1000237e:	459a      	cmp	sl, r3
10002380:	d8e1      	bhi.n	10002346 <_read+0x26>
10002382:	6aba      	ldr	r2, [r7, #40]	; 0x28
10002384:	9901      	ldr	r1, [sp, #4]
10002386:	428a      	cmp	r2, r1
10002388:	d201      	bcs.n	1000238e <_read+0x6e>
1000238a:	459a      	cmp	sl, r3
1000238c:	d0db      	beq.n	10002346 <_read+0x26>
1000238e:	2001      	movs	r0, #1
10002390:	4240      	negs	r0, r0
10002392:	e7ed      	b.n	10002370 <_read+0x50>
10002394:	10005a18 	.word	0x10005a18
10002398:	20000f84 	.word	0x20000f84
1000239c:	40054000 	.word	0x40054000
100023a0:	20000f80 	.word	0x20000f80

100023a4 <_write>:
100023a4:	b5f0      	push	{r4, r5, r6, r7, lr}
100023a6:	4646      	mov	r6, r8
100023a8:	46d6      	mov	lr, sl
100023aa:	464f      	mov	r7, r9
100023ac:	b5c0      	push	{r6, r7, lr}
100023ae:	4688      	mov	r8, r1
100023b0:	b082      	sub	sp, #8
100023b2:	0016      	movs	r6, r2
100023b4:	2801      	cmp	r0, #1
100023b6:	d13f      	bne.n	10002438 <_write+0x94>
100023b8:	23d0      	movs	r3, #208	; 0xd0
100023ba:	061b      	lsls	r3, r3, #24
100023bc:	681c      	ldr	r4, [r3, #0]
100023be:	4b20      	ldr	r3, [pc, #128]	; (10002440 <_write+0x9c>)
100023c0:	a901      	add	r1, sp, #4
100023c2:	0018      	movs	r0, r3
100023c4:	469a      	mov	sl, r3
100023c6:	f003 faf7 	bl	100059b8 <__mutex_try_enter_veneer>
100023ca:	1e07      	subs	r7, r0, #0
100023cc:	d106      	bne.n	100023dc <_write+0x38>
100023ce:	9b01      	ldr	r3, [sp, #4]
100023d0:	429c      	cmp	r4, r3
100023d2:	d003      	beq.n	100023dc <_write+0x38>
100023d4:	4650      	mov	r0, sl
100023d6:	f003 faff 	bl	100059d8 <__mutex_enter_blocking_veneer>
100023da:	3701      	adds	r7, #1
100023dc:	46b1      	mov	r9, r6
100023de:	1c73      	adds	r3, r6, #1
100023e0:	d025      	beq.n	1000242e <_write+0x8a>
100023e2:	4b18      	ldr	r3, [pc, #96]	; (10002444 <_write+0xa0>)
100023e4:	681c      	ldr	r4, [r3, #0]
100023e6:	2c00      	cmp	r4, #0
100023e8:	d014      	beq.n	10002414 <_write+0x70>
100023ea:	4d17      	ldr	r5, [pc, #92]	; (10002448 <_write+0xa4>)
100023ec:	e002      	b.n	100023f4 <_write+0x50>
100023ee:	68e4      	ldr	r4, [r4, #12]
100023f0:	2c00      	cmp	r4, #0
100023f2:	d00f      	beq.n	10002414 <_write+0x70>
100023f4:	6823      	ldr	r3, [r4, #0]
100023f6:	2b00      	cmp	r3, #0
100023f8:	d0f9      	beq.n	100023ee <_write+0x4a>
100023fa:	682b      	ldr	r3, [r5, #0]
100023fc:	2b00      	cmp	r3, #0
100023fe:	d001      	beq.n	10002404 <_write+0x60>
10002400:	42a3      	cmp	r3, r4
10002402:	d1f4      	bne.n	100023ee <_write+0x4a>
10002404:	0020      	movs	r0, r4
10002406:	464a      	mov	r2, r9
10002408:	4641      	mov	r1, r8
1000240a:	f7ff fea9 	bl	10002160 <stdio_out_chars_crlf>
1000240e:	68e4      	ldr	r4, [r4, #12]
10002410:	2c00      	cmp	r4, #0
10002412:	d1ef      	bne.n	100023f4 <_write+0x50>
10002414:	2f00      	cmp	r7, #0
10002416:	d106      	bne.n	10002426 <_write+0x82>
10002418:	0030      	movs	r0, r6
1000241a:	b002      	add	sp, #8
1000241c:	bc1c      	pop	{r2, r3, r4}
1000241e:	4690      	mov	r8, r2
10002420:	4699      	mov	r9, r3
10002422:	46a2      	mov	sl, r4
10002424:	bdf0      	pop	{r4, r5, r6, r7, pc}
10002426:	4650      	mov	r0, sl
10002428:	f003 fab6 	bl	10005998 <__mutex_exit_veneer>
1000242c:	e7f4      	b.n	10002418 <_write+0x74>
1000242e:	4640      	mov	r0, r8
10002430:	f002 fca2 	bl	10004d78 <strlen>
10002434:	4681      	mov	r9, r0
10002436:	e7d4      	b.n	100023e2 <_write+0x3e>
10002438:	2601      	movs	r6, #1
1000243a:	4276      	negs	r6, r6
1000243c:	e7ec      	b.n	10002418 <_write+0x74>
1000243e:	46c0      	nop			; (mov r8, r8)
10002440:	20000b30 	.word	0x20000b30
10002444:	20000f80 	.word	0x20000f80
10002448:	20000f84 	.word	0x20000f84

1000244c <stdio_set_driver_enabled>:
1000244c:	4b0d      	ldr	r3, [pc, #52]	; (10002484 <stdio_set_driver_enabled+0x38>)
1000244e:	681a      	ldr	r2, [r3, #0]
10002450:	2a00      	cmp	r2, #0
10002452:	d012      	beq.n	1000247a <stdio_set_driver_enabled+0x2e>
10002454:	4282      	cmp	r2, r0
10002456:	d103      	bne.n	10002460 <stdio_set_driver_enabled+0x14>
10002458:	e009      	b.n	1000246e <stdio_set_driver_enabled+0x22>
1000245a:	4298      	cmp	r0, r3
1000245c:	d007      	beq.n	1000246e <stdio_set_driver_enabled+0x22>
1000245e:	001a      	movs	r2, r3
10002460:	68d3      	ldr	r3, [r2, #12]
10002462:	2b00      	cmp	r3, #0
10002464:	d1f9      	bne.n	1000245a <stdio_set_driver_enabled+0xe>
10002466:	2900      	cmp	r1, #0
10002468:	d000      	beq.n	1000246c <stdio_set_driver_enabled+0x20>
1000246a:	60d0      	str	r0, [r2, #12]
1000246c:	4770      	bx	lr
1000246e:	2900      	cmp	r1, #0
10002470:	d1fc      	bne.n	1000246c <stdio_set_driver_enabled+0x20>
10002472:	68c3      	ldr	r3, [r0, #12]
10002474:	60d3      	str	r3, [r2, #12]
10002476:	60c1      	str	r1, [r0, #12]
10002478:	e7f8      	b.n	1000246c <stdio_set_driver_enabled+0x20>
1000247a:	2900      	cmp	r1, #0
1000247c:	d0f6      	beq.n	1000246c <stdio_set_driver_enabled+0x20>
1000247e:	6018      	str	r0, [r3, #0]
10002480:	e7f4      	b.n	1000246c <stdio_set_driver_enabled+0x20>
10002482:	46c0      	nop			; (mov r8, r8)
10002484:	20000f80 	.word	0x20000f80

10002488 <stdio_init_all>:
10002488:	b510      	push	{r4, lr}
1000248a:	f000 f8c5 	bl	10002618 <stdio_usb_init>
1000248e:	bd10      	pop	{r4, pc}

10002490 <stdio_usb_in_chars>:
10002490:	b570      	push	{r4, r5, r6, lr}
10002492:	4c18      	ldr	r4, [pc, #96]	; (100024f4 <stdio_usb_in_chars+0x64>)
10002494:	b082      	sub	sp, #8
10002496:	0005      	movs	r5, r0
10002498:	000e      	movs	r6, r1
1000249a:	0020      	movs	r0, r4
1000249c:	a901      	add	r1, sp, #4
1000249e:	f003 fa8b 	bl	100059b8 <__mutex_try_enter_veneer>
100024a2:	2800      	cmp	r0, #0
100024a4:	d108      	bne.n	100024b8 <stdio_usb_in_chars+0x28>
100024a6:	23d0      	movs	r3, #208	; 0xd0
100024a8:	061b      	lsls	r3, r3, #24
100024aa:	681b      	ldr	r3, [r3, #0]
100024ac:	9a01      	ldr	r2, [sp, #4]
100024ae:	4293      	cmp	r3, r2
100024b0:	d01c      	beq.n	100024ec <stdio_usb_in_chars+0x5c>
100024b2:	0020      	movs	r0, r4
100024b4:	f003 fa90 	bl	100059d8 <__mutex_enter_blocking_veneer>
100024b8:	2000      	movs	r0, #0
100024ba:	f001 fc4d 	bl	10003d58 <tud_cdc_n_connected>
100024be:	2800      	cmp	r0, #0
100024c0:	d107      	bne.n	100024d2 <stdio_usb_in_chars+0x42>
100024c2:	2503      	movs	r5, #3
100024c4:	426d      	negs	r5, r5
100024c6:	0020      	movs	r0, r4
100024c8:	f003 fa66 	bl	10005998 <__mutex_exit_veneer>
100024cc:	0028      	movs	r0, r5
100024ce:	b002      	add	sp, #8
100024d0:	bd70      	pop	{r4, r5, r6, pc}
100024d2:	2000      	movs	r0, #0
100024d4:	f001 fc58 	bl	10003d88 <tud_cdc_n_available>
100024d8:	2800      	cmp	r0, #0
100024da:	d0f2      	beq.n	100024c2 <stdio_usb_in_chars+0x32>
100024dc:	0029      	movs	r1, r5
100024de:	0032      	movs	r2, r6
100024e0:	2000      	movs	r0, #0
100024e2:	f001 fc5f 	bl	10003da4 <tud_cdc_n_read>
100024e6:	1e05      	subs	r5, r0, #0
100024e8:	d0eb      	beq.n	100024c2 <stdio_usb_in_chars+0x32>
100024ea:	e7ec      	b.n	100024c6 <stdio_usb_in_chars+0x36>
100024ec:	2503      	movs	r5, #3
100024ee:	426d      	negs	r5, r5
100024f0:	e7ec      	b.n	100024cc <stdio_usb_in_chars+0x3c>
100024f2:	46c0      	nop			; (mov r8, r8)
100024f4:	20001624 	.word	0x20001624

100024f8 <timer_task>:
100024f8:	b510      	push	{r4, lr}
100024fa:	201f      	movs	r0, #31
100024fc:	f7ff fb50 	bl	10001ba0 <irq_set_pending>
10002500:	20fa      	movs	r0, #250	; 0xfa
10002502:	2100      	movs	r1, #0
10002504:	0080      	lsls	r0, r0, #2
10002506:	bd10      	pop	{r4, pc}

10002508 <low_priority_worker_irq>:
10002508:	b510      	push	{r4, lr}
1000250a:	4c06      	ldr	r4, [pc, #24]	; (10002524 <low_priority_worker_irq+0x1c>)
1000250c:	2100      	movs	r1, #0
1000250e:	0020      	movs	r0, r4
10002510:	f003 fa52 	bl	100059b8 <__mutex_try_enter_veneer>
10002514:	2800      	cmp	r0, #0
10002516:	d004      	beq.n	10002522 <low_priority_worker_irq+0x1a>
10002518:	f000 fd6e 	bl	10002ff8 <tud_task>
1000251c:	0020      	movs	r0, r4
1000251e:	f003 fa3b 	bl	10005998 <__mutex_exit_veneer>
10002522:	bd10      	pop	{r4, pc}
10002524:	20001624 	.word	0x20001624

10002528 <stdio_usb_out_chars>:
10002528:	b5f0      	push	{r4, r5, r6, r7, lr}
1000252a:	464f      	mov	r7, r9
1000252c:	4646      	mov	r6, r8
1000252e:	46d6      	mov	lr, sl
10002530:	b5c0      	push	{r6, r7, lr}
10002532:	4b36      	ldr	r3, [pc, #216]	; (1000260c <stdio_usb_out_chars+0xe4>)
10002534:	b082      	sub	sp, #8
10002536:	0007      	movs	r7, r0
10002538:	000e      	movs	r6, r1
1000253a:	0018      	movs	r0, r3
1000253c:	a901      	add	r1, sp, #4
1000253e:	4699      	mov	r9, r3
10002540:	f003 fa3a 	bl	100059b8 <__mutex_try_enter_veneer>
10002544:	2800      	cmp	r0, #0
10002546:	d108      	bne.n	1000255a <stdio_usb_out_chars+0x32>
10002548:	23d0      	movs	r3, #208	; 0xd0
1000254a:	061b      	lsls	r3, r3, #24
1000254c:	681b      	ldr	r3, [r3, #0]
1000254e:	9a01      	ldr	r2, [sp, #4]
10002550:	4293      	cmp	r3, r2
10002552:	d041      	beq.n	100025d8 <stdio_usb_out_chars+0xb0>
10002554:	4648      	mov	r0, r9
10002556:	f003 fa3f 	bl	100059d8 <__mutex_enter_blocking_veneer>
1000255a:	2000      	movs	r0, #0
1000255c:	f001 fbfc 	bl	10003d58 <tud_cdc_n_connected>
10002560:	2800      	cmp	r0, #0
10002562:	d031      	beq.n	100025c8 <stdio_usb_out_chars+0xa0>
10002564:	2400      	movs	r4, #0
10002566:	2e00      	cmp	r6, #0
10002568:	dd33      	ble.n	100025d2 <stdio_usb_out_chars+0xaa>
1000256a:	4b29      	ldr	r3, [pc, #164]	; (10002610 <stdio_usb_out_chars+0xe8>)
1000256c:	469a      	mov	sl, r3
1000256e:	4698      	mov	r8, r3
10002570:	e012      	b.n	10002598 <stdio_usb_out_chars+0x70>
10002572:	2800      	cmp	r0, #0
10002574:	d147      	bne.n	10002606 <stdio_usb_out_chars+0xde>
10002576:	f000 fd3f 	bl	10002ff8 <tud_task>
1000257a:	2000      	movs	r0, #0
1000257c:	f001 fc9e 	bl	10003ebc <tud_cdc_n_write_flush>
10002580:	2000      	movs	r0, #0
10002582:	f001 fbe9 	bl	10003d58 <tud_cdc_n_connected>
10002586:	2800      	cmp	r0, #0
10002588:	d023      	beq.n	100025d2 <stdio_usb_out_chars+0xaa>
1000258a:	2000      	movs	r0, #0
1000258c:	f001 fce0 	bl	10003f50 <tud_cdc_n_write_available>
10002590:	2800      	cmp	r0, #0
10002592:	d027      	beq.n	100025e4 <stdio_usb_out_chars+0xbc>
10002594:	42a6      	cmp	r6, r4
10002596:	dd1c      	ble.n	100025d2 <stdio_usb_out_chars+0xaa>
10002598:	2000      	movs	r0, #0
1000259a:	1b35      	subs	r5, r6, r4
1000259c:	f001 fcd8 	bl	10003f50 <tud_cdc_n_write_available>
100025a0:	4285      	cmp	r5, r0
100025a2:	dce6      	bgt.n	10002572 <stdio_usb_out_chars+0x4a>
100025a4:	1939      	adds	r1, r7, r4
100025a6:	002a      	movs	r2, r5
100025a8:	2000      	movs	r0, #0
100025aa:	f001 fc33 	bl	10003e14 <tud_cdc_n_write>
100025ae:	0005      	movs	r5, r0
100025b0:	f000 fd22 	bl	10002ff8 <tud_task>
100025b4:	2000      	movs	r0, #0
100025b6:	f001 fc81 	bl	10003ebc <tud_cdc_n_write_flush>
100025ba:	f7fe fca5 	bl	10000f08 <time_us_64>
100025be:	4643      	mov	r3, r8
100025c0:	1964      	adds	r4, r4, r5
100025c2:	6018      	str	r0, [r3, #0]
100025c4:	6059      	str	r1, [r3, #4]
100025c6:	e7e5      	b.n	10002594 <stdio_usb_out_chars+0x6c>
100025c8:	2000      	movs	r0, #0
100025ca:	2100      	movs	r1, #0
100025cc:	4b10      	ldr	r3, [pc, #64]	; (10002610 <stdio_usb_out_chars+0xe8>)
100025ce:	6018      	str	r0, [r3, #0]
100025d0:	6059      	str	r1, [r3, #4]
100025d2:	4648      	mov	r0, r9
100025d4:	f003 f9e0 	bl	10005998 <__mutex_exit_veneer>
100025d8:	b002      	add	sp, #8
100025da:	bc1c      	pop	{r2, r3, r4}
100025dc:	4690      	mov	r8, r2
100025de:	4699      	mov	r9, r3
100025e0:	46a2      	mov	sl, r4
100025e2:	bdf0      	pop	{r4, r5, r6, r7, pc}
100025e4:	f7fe fc90 	bl	10000f08 <time_us_64>
100025e8:	4653      	mov	r3, sl
100025ea:	000d      	movs	r5, r1
100025ec:	681a      	ldr	r2, [r3, #0]
100025ee:	685b      	ldr	r3, [r3, #4]
100025f0:	2100      	movs	r1, #0
100025f2:	4684      	mov	ip, r0
100025f4:	4807      	ldr	r0, [pc, #28]	; (10002614 <stdio_usb_out_chars+0xec>)
100025f6:	1812      	adds	r2, r2, r0
100025f8:	414b      	adcs	r3, r1
100025fa:	429d      	cmp	r5, r3
100025fc:	d8e9      	bhi.n	100025d2 <stdio_usb_out_chars+0xaa>
100025fe:	d1c9      	bne.n	10002594 <stdio_usb_out_chars+0x6c>
10002600:	4594      	cmp	ip, r2
10002602:	d9c7      	bls.n	10002594 <stdio_usb_out_chars+0x6c>
10002604:	e7e5      	b.n	100025d2 <stdio_usb_out_chars+0xaa>
10002606:	0005      	movs	r5, r0
10002608:	e7cc      	b.n	100025a4 <stdio_usb_out_chars+0x7c>
1000260a:	46c0      	nop			; (mov r8, r8)
1000260c:	20001624 	.word	0x20001624
10002610:	20000b50 	.word	0x20000b50
10002614:	0007a120 	.word	0x0007a120

10002618 <stdio_usb_init>:
10002618:	b510      	push	{r4, lr}
1000261a:	4b1d      	ldr	r3, [pc, #116]	; (10002690 <stdio_usb_init+0x78>)
1000261c:	b084      	sub	sp, #16
1000261e:	781b      	ldrb	r3, [r3, #0]
10002620:	f001 fe6c 	bl	100042fc <tusb_init>
10002624:	491b      	ldr	r1, [pc, #108]	; (10002694 <stdio_usb_init+0x7c>)
10002626:	201f      	movs	r0, #31
10002628:	f7ff faca 	bl	10001bc0 <irq_set_exclusive_handler>
1000262c:	2101      	movs	r1, #1
1000262e:	201f      	movs	r0, #31
10002630:	f7ff faa4 	bl	10001b7c <irq_set_enabled>
10002634:	4818      	ldr	r0, [pc, #96]	; (10002698 <stdio_usb_init+0x80>)
10002636:	f7fe fd4f 	bl	100010d8 <mutex_init>
1000263a:	f7fe f93d 	bl	100008b8 <alarm_pool_get_default>
1000263e:	0004      	movs	r4, r0
10002640:	f7fe fc62 	bl	10000f08 <time_us_64>
10002644:	22fa      	movs	r2, #250	; 0xfa
10002646:	2300      	movs	r3, #0
10002648:	0092      	lsls	r2, r2, #2
1000264a:	1812      	adds	r2, r2, r0
1000264c:	414b      	adcs	r3, r1
1000264e:	4299      	cmp	r1, r3
10002650:	d918      	bls.n	10002684 <stdio_usb_init+0x6c>
10002652:	2201      	movs	r2, #1
10002654:	4252      	negs	r2, r2
10002656:	17d3      	asrs	r3, r2, #31
10002658:	2101      	movs	r1, #1
1000265a:	9102      	str	r1, [sp, #8]
1000265c:	2100      	movs	r1, #0
1000265e:	9101      	str	r1, [sp, #4]
10002660:	490e      	ldr	r1, [pc, #56]	; (1000269c <stdio_usb_init+0x84>)
10002662:	0020      	movs	r0, r4
10002664:	9100      	str	r1, [sp, #0]
10002666:	f7fe f92d 	bl	100008c4 <alarm_pool_add_alarm_at>
1000266a:	0004      	movs	r4, r0
1000266c:	1e63      	subs	r3, r4, #1
1000266e:	419c      	sbcs	r4, r3
10002670:	b2e4      	uxtb	r4, r4
10002672:	2800      	cmp	r0, #0
10002674:	d003      	beq.n	1000267e <stdio_usb_init+0x66>
10002676:	2101      	movs	r1, #1
10002678:	4809      	ldr	r0, [pc, #36]	; (100026a0 <stdio_usb_init+0x88>)
1000267a:	f7ff fee7 	bl	1000244c <stdio_set_driver_enabled>
1000267e:	0020      	movs	r0, r4
10002680:	b004      	add	sp, #16
10002682:	bd10      	pop	{r4, pc}
10002684:	4299      	cmp	r1, r3
10002686:	d1e7      	bne.n	10002658 <stdio_usb_init+0x40>
10002688:	4290      	cmp	r0, r2
1000268a:	d8e2      	bhi.n	10002652 <stdio_usb_init+0x3a>
1000268c:	e7e4      	b.n	10002658 <stdio_usb_init+0x40>
1000268e:	46c0      	nop			; (mov r8, r8)
10002690:	10005cec 	.word	0x10005cec
10002694:	10002509 	.word	0x10002509
10002698:	20001624 	.word	0x20001624
1000269c:	100024f9 	.word	0x100024f9
100026a0:	200002b0 	.word	0x200002b0

100026a4 <tud_descriptor_device_cb>:
100026a4:	4800      	ldr	r0, [pc, #0]	; (100026a8 <tud_descriptor_device_cb+0x4>)
100026a6:	4770      	bx	lr
100026a8:	10005b4c 	.word	0x10005b4c

100026ac <tud_descriptor_configuration_cb>:
100026ac:	4800      	ldr	r0, [pc, #0]	; (100026b0 <tud_descriptor_configuration_cb+0x4>)
100026ae:	4770      	bx	lr
100026b0:	10005b00 	.word	0x10005b00

100026b4 <tud_descriptor_string_cb>:
100026b4:	b510      	push	{r4, lr}
100026b6:	2800      	cmp	r0, #0
100026b8:	d106      	bne.n	100026c8 <tud_descriptor_string_cb+0x14>
100026ba:	4b12      	ldr	r3, [pc, #72]	; (10002704 <tud_descriptor_string_cb+0x50>)
100026bc:	4812      	ldr	r0, [pc, #72]	; (10002708 <tud_descriptor_string_cb+0x54>)
100026be:	8043      	strh	r3, [r0, #2]
100026c0:	3b06      	subs	r3, #6
100026c2:	3bff      	subs	r3, #255	; 0xff
100026c4:	8003      	strh	r3, [r0, #0]
100026c6:	bd10      	pop	{r4, pc}
100026c8:	2804      	cmp	r0, #4
100026ca:	d819      	bhi.n	10002700 <tud_descriptor_string_cb+0x4c>
100026cc:	4b0f      	ldr	r3, [pc, #60]	; (1000270c <tud_descriptor_string_cb+0x58>)
100026ce:	0080      	lsls	r0, r0, #2
100026d0:	58c4      	ldr	r4, [r0, r3]
100026d2:	2300      	movs	r3, #0
100026d4:	480c      	ldr	r0, [pc, #48]	; (10002708 <tud_descriptor_string_cb+0x54>)
100026d6:	1c82      	adds	r2, r0, #2
100026d8:	5ce1      	ldrb	r1, [r4, r3]
100026da:	2900      	cmp	r1, #0
100026dc:	d007      	beq.n	100026ee <tud_descriptor_string_cb+0x3a>
100026de:	3301      	adds	r3, #1
100026e0:	8011      	strh	r1, [r2, #0]
100026e2:	3202      	adds	r2, #2
100026e4:	2b13      	cmp	r3, #19
100026e6:	d1f7      	bne.n	100026d8 <tud_descriptor_string_cb+0x24>
100026e8:	23ca      	movs	r3, #202	; 0xca
100026ea:	009b      	lsls	r3, r3, #2
100026ec:	e7ea      	b.n	100026c4 <tud_descriptor_string_cb+0x10>
100026ee:	22ff      	movs	r2, #255	; 0xff
100026f0:	4013      	ands	r3, r2
100026f2:	3301      	adds	r3, #1
100026f4:	005a      	lsls	r2, r3, #1
100026f6:	23c0      	movs	r3, #192	; 0xc0
100026f8:	009b      	lsls	r3, r3, #2
100026fa:	4313      	orrs	r3, r2
100026fc:	b29b      	uxth	r3, r3
100026fe:	e7e1      	b.n	100026c4 <tud_descriptor_string_cb+0x10>
10002700:	2000      	movs	r0, #0
10002702:	e7e0      	b.n	100026c6 <tud_descriptor_string_cb+0x12>
10002704:	00000409 	.word	0x00000409
10002708:	20000f58 	.word	0x20000f58
1000270c:	10005b60 	.word	0x10005b60

10002710 <dcd_rp2040_irq>:
10002710:	b5f0      	push	{r4, r5, r6, r7, lr}
10002712:	4645      	mov	r5, r8
10002714:	46de      	mov	lr, fp
10002716:	4657      	mov	r7, sl
10002718:	464e      	mov	r6, r9
1000271a:	2398      	movs	r3, #152	; 0x98
1000271c:	2480      	movs	r4, #128	; 0x80
1000271e:	b5e0      	push	{r5, r6, r7, lr}
10002720:	4a41      	ldr	r2, [pc, #260]	; (10002828 <dcd_rp2040_irq+0x118>)
10002722:	0264      	lsls	r4, r4, #9
10002724:	58d3      	ldr	r3, [r2, r3]
10002726:	b085      	sub	sp, #20
10002728:	4698      	mov	r8, r3
1000272a:	4223      	tst	r3, r4
1000272c:	d024      	beq.n	10002778 <dcd_rp2040_irq+0x68>
1000272e:	2101      	movs	r1, #1
10002730:	2039      	movs	r0, #57	; 0x39
10002732:	2200      	movs	r2, #0
10002734:	4b3d      	ldr	r3, [pc, #244]	; (1000282c <dcd_rp2040_irq+0x11c>)
10002736:	5419      	strb	r1, [r3, r0]
10002738:	7159      	strb	r1, [r3, #5]
1000273a:	3147      	adds	r1, #71	; 0x47
1000273c:	545a      	strb	r2, [r3, r1]
1000273e:	751a      	strb	r2, [r3, #20]
10002740:	493b      	ldr	r1, [pc, #236]	; (10002830 <dcd_rp2040_irq+0x120>)
10002742:	3201      	adds	r2, #1
10002744:	2000      	movs	r0, #0
10002746:	f001 f8eb 	bl	10003920 <dcd_event_setup_received>
1000274a:	2280      	movs	r2, #128	; 0x80
1000274c:	4b39      	ldr	r3, [pc, #228]	; (10002834 <dcd_rp2040_irq+0x124>)
1000274e:	0292      	lsls	r2, r2, #10
10002750:	651a      	str	r2, [r3, #80]	; 0x50
10002752:	4b39      	ldr	r3, [pc, #228]	; (10002838 <dcd_rp2040_irq+0x128>)
10002754:	9303      	str	r3, [sp, #12]
10002756:	4643      	mov	r3, r8
10002758:	06db      	lsls	r3, r3, #27
1000275a:	d413      	bmi.n	10002784 <dcd_rp2040_irq+0x74>
1000275c:	2380      	movs	r3, #128	; 0x80
1000275e:	4642      	mov	r2, r8
10002760:	015b      	lsls	r3, r3, #5
10002762:	421a      	tst	r2, r3
10002764:	d13e      	bne.n	100027e4 <dcd_rp2040_irq+0xd4>
10002766:	4544      	cmp	r4, r8
10002768:	d158      	bne.n	1000281c <dcd_rp2040_irq+0x10c>
1000276a:	b005      	add	sp, #20
1000276c:	bc3c      	pop	{r2, r3, r4, r5}
1000276e:	4690      	mov	r8, r2
10002770:	4699      	mov	r9, r3
10002772:	46a2      	mov	sl, r4
10002774:	46ab      	mov	fp, r5
10002776:	bdf0      	pop	{r4, r5, r6, r7, pc}
10002778:	2310      	movs	r3, #16
1000277a:	9303      	str	r3, [sp, #12]
1000277c:	4643      	mov	r3, r8
1000277e:	2400      	movs	r4, #0
10002780:	06db      	lsls	r3, r3, #27
10002782:	d5eb      	bpl.n	1000275c <dcd_rp2040_irq+0x4c>
10002784:	4b28      	ldr	r3, [pc, #160]	; (10002828 <dcd_rp2040_irq+0x118>)
10002786:	6d9f      	ldr	r7, [r3, #88]	; 0x58
10002788:	2f00      	cmp	r7, #0
1000278a:	d025      	beq.n	100027d8 <dcd_rp2040_irq+0xc8>
1000278c:	469a      	mov	sl, r3
1000278e:	4b29      	ldr	r3, [pc, #164]	; (10002834 <dcd_rp2040_irq+0x124>)
10002790:	2600      	movs	r6, #0
10002792:	2501      	movs	r5, #1
10002794:	469b      	mov	fp, r3
10002796:	e003      	b.n	100027a0 <dcd_rp2040_irq+0x90>
10002798:	006d      	lsls	r5, r5, #1
1000279a:	3601      	adds	r6, #1
1000279c:	2e20      	cmp	r6, #32
1000279e:	d01b      	beq.n	100027d8 <dcd_rp2040_irq+0xc8>
100027a0:	423d      	tst	r5, r7
100027a2:	d0f9      	beq.n	10002798 <dcd_rp2040_irq+0x88>
100027a4:	4653      	mov	r3, sl
100027a6:	6ddb      	ldr	r3, [r3, #92]	; 0x5c
100027a8:	465b      	mov	r3, fp
100027aa:	2468      	movs	r4, #104	; 0x68
100027ac:	2201      	movs	r2, #1
100027ae:	659d      	str	r5, [r3, #88]	; 0x58
100027b0:	0873      	lsrs	r3, r6, #1
100027b2:	435c      	muls	r4, r3
100027b4:	2334      	movs	r3, #52	; 0x34
100027b6:	4691      	mov	r9, r2
100027b8:	43b2      	bics	r2, r6
100027ba:	4353      	muls	r3, r2
100027bc:	18e4      	adds	r4, r4, r3
100027be:	4b1b      	ldr	r3, [pc, #108]	; (1000282c <dcd_rp2040_irq+0x11c>)
100027c0:	469c      	mov	ip, r3
100027c2:	4464      	add	r4, ip
100027c4:	0020      	movs	r0, r4
100027c6:	f000 fa3f 	bl	10002c48 <_hw_endpoint_xfer_continue>
100027ca:	2800      	cmp	r0, #0
100027cc:	d11a      	bne.n	10002804 <dcd_rp2040_irq+0xf4>
100027ce:	43af      	bics	r7, r5
100027d0:	3601      	adds	r6, #1
100027d2:	006d      	lsls	r5, r5, #1
100027d4:	2f00      	cmp	r7, #0
100027d6:	d1e1      	bne.n	1000279c <dcd_rp2040_irq+0x8c>
100027d8:	2380      	movs	r3, #128	; 0x80
100027da:	4642      	mov	r2, r8
100027dc:	015b      	lsls	r3, r3, #5
100027de:	9c03      	ldr	r4, [sp, #12]
100027e0:	421a      	tst	r2, r3
100027e2:	d0c0      	beq.n	10002766 <dcd_rp2040_irq+0x56>
100027e4:	2200      	movs	r2, #0
100027e6:	4915      	ldr	r1, [pc, #84]	; (1000283c <dcd_rp2040_irq+0x12c>)
100027e8:	2000      	movs	r0, #0
100027ea:	700a      	strb	r2, [r1, #0]
100027ec:	490e      	ldr	r1, [pc, #56]	; (10002828 <dcd_rp2040_irq+0x118>)
100027ee:	431c      	orrs	r4, r3
100027f0:	600a      	str	r2, [r1, #0]
100027f2:	3201      	adds	r2, #1
100027f4:	2101      	movs	r1, #1
100027f6:	f001 f823 	bl	10003840 <dcd_event_bus_signal>
100027fa:	2280      	movs	r2, #128	; 0x80
100027fc:	4b0d      	ldr	r3, [pc, #52]	; (10002834 <dcd_rp2040_irq+0x124>)
100027fe:	0312      	lsls	r2, r2, #12
10002800:	651a      	str	r2, [r3, #80]	; 0x50
10002802:	e7b0      	b.n	10002766 <dcd_rp2040_irq+0x56>
10002804:	464b      	mov	r3, r9
10002806:	69e2      	ldr	r2, [r4, #28]
10002808:	7921      	ldrb	r1, [r4, #4]
1000280a:	2000      	movs	r0, #0
1000280c:	9300      	str	r3, [sp, #0]
1000280e:	2300      	movs	r3, #0
10002810:	f001 f8b4 	bl	1000397c <dcd_event_xfer_complete>
10002814:	0020      	movs	r0, r4
10002816:	f000 f9e3 	bl	10002be0 <hw_endpoint_reset_transfer>
1000281a:	e7d8      	b.n	100027ce <dcd_rp2040_irq+0xbe>
1000281c:	4641      	mov	r1, r8
1000281e:	4808      	ldr	r0, [pc, #32]	; (10002840 <dcd_rp2040_irq+0x130>)
10002820:	4061      	eors	r1, r4
10002822:	f7fe ffd3 	bl	100017cc <panic>
10002826:	46c0      	nop			; (mov r8, r8)
10002828:	50110000 	.word	0x50110000
1000282c:	20000f8c 	.word	0x20000f8c
10002830:	50100000 	.word	0x50100000
10002834:	50113000 	.word	0x50113000
10002838:	00010010 	.word	0x00010010
1000283c:	2000163e 	.word	0x2000163e
10002840:	10005b9c 	.word	0x10005b9c

10002844 <dcd_int_enable>:
10002844:	b510      	push	{r4, lr}
10002846:	2101      	movs	r1, #1
10002848:	2005      	movs	r0, #5
1000284a:	f7ff f997 	bl	10001b7c <irq_set_enabled>
1000284e:	bd10      	pop	{r4, pc}

10002850 <dcd_set_address>:
10002850:	4b09      	ldr	r3, [pc, #36]	; (10002878 <dcd_set_address+0x28>)
10002852:	b510      	push	{r4, lr}
10002854:	2201      	movs	r2, #1
10002856:	7019      	strb	r1, [r3, #0]
10002858:	2139      	movs	r1, #57	; 0x39
1000285a:	2300      	movs	r3, #0
1000285c:	4807      	ldr	r0, [pc, #28]	; (1000287c <dcd_set_address+0x2c>)
1000285e:	5442      	strb	r2, [r0, r1]
10002860:	7142      	strb	r2, [r0, #5]
10002862:	3247      	adds	r2, #71	; 0x47
10002864:	5483      	strb	r3, [r0, r2]
10002866:	7503      	strb	r3, [r0, #20]
10002868:	2200      	movs	r2, #0
1000286a:	3034      	adds	r0, #52	; 0x34
1000286c:	3301      	adds	r3, #1
1000286e:	2100      	movs	r1, #0
10002870:	f000 fa7a 	bl	10002d68 <_hw_endpoint_xfer>
10002874:	bd10      	pop	{r4, pc}
10002876:	46c0      	nop			; (mov r8, r8)
10002878:	2000163e 	.word	0x2000163e
1000287c:	20000f8c 	.word	0x20000f8c

10002880 <dcd_connect>:
10002880:	2280      	movs	r2, #128	; 0x80
10002882:	4b02      	ldr	r3, [pc, #8]	; (1000288c <dcd_connect+0xc>)
10002884:	0252      	lsls	r2, r2, #9
10002886:	64da      	str	r2, [r3, #76]	; 0x4c
10002888:	4770      	bx	lr
1000288a:	46c0      	nop			; (mov r8, r8)
1000288c:	50112000 	.word	0x50112000

10002890 <dcd_init>:
10002890:	b5f8      	push	{r3, r4, r5, r6, r7, lr}
10002892:	0005      	movs	r5, r0
10002894:	f000 f97c 	bl	10002b90 <rp2040_usb_init>
10002898:	491e      	ldr	r1, [pc, #120]	; (10002914 <dcd_init+0x84>)
1000289a:	2005      	movs	r0, #5
1000289c:	f7ff f990 	bl	10001bc0 <irq_set_exclusive_handler>
100028a0:	22d0      	movs	r2, #208	; 0xd0
100028a2:	4c1d      	ldr	r4, [pc, #116]	; (10002918 <dcd_init+0x88>)
100028a4:	00d2      	lsls	r2, r2, #3
100028a6:	2100      	movs	r1, #0
100028a8:	0020      	movs	r0, r4
100028aa:	f7ff fc4d 	bl	10002148 <__wrap_memset>
100028ae:	2300      	movs	r3, #0
100028b0:	4a1a      	ldr	r2, [pc, #104]	; (1000291c <dcd_init+0x8c>)
100028b2:	491b      	ldr	r1, [pc, #108]	; (10002920 <dcd_init+0x90>)
100028b4:	7013      	strb	r3, [r2, #0]
100028b6:	4a1b      	ldr	r2, [pc, #108]	; (10002924 <dcd_init+0x94>)
100028b8:	2040      	movs	r0, #64	; 0x40
100028ba:	6011      	str	r1, [r2, #0]
100028bc:	2780      	movs	r7, #128	; 0x80
100028be:	2201      	movs	r2, #1
100028c0:	2638      	movs	r6, #56	; 0x38
100028c2:	4919      	ldr	r1, [pc, #100]	; (10002928 <dcd_init+0x98>)
100028c4:	70e2      	strb	r2, [r4, #3]
100028c6:	7162      	strb	r2, [r4, #5]
100028c8:	62e0      	str	r0, [r4, #44]	; 0x2c
100028ca:	60e1      	str	r1, [r4, #12]
100028cc:	600b      	str	r3, [r1, #0]
100028ce:	55a7      	strb	r7, [r4, r6]
100028d0:	3e03      	subs	r6, #3
100028d2:	55a2      	strb	r2, [r4, r6]
100028d4:	6620      	str	r0, [r4, #96]	; 0x60
100028d6:	3602      	adds	r6, #2
100028d8:	3024      	adds	r0, #36	; 0x24
100028da:	55a3      	strb	r3, [r4, r6]
100028dc:	5423      	strb	r3, [r4, r0]
100028de:	4913      	ldr	r1, [pc, #76]	; (1000292c <dcd_init+0x9c>)
100028e0:	4813      	ldr	r0, [pc, #76]	; (10002930 <dcd_init+0xa0>)
100028e2:	3e01      	subs	r6, #1
100028e4:	55a3      	strb	r3, [r4, r6]
100028e6:	3603      	adds	r6, #3
100028e8:	55a2      	strb	r2, [r4, r6]
100028ea:	60a3      	str	r3, [r4, #8]
100028ec:	6121      	str	r1, [r4, #16]
100028ee:	7022      	strb	r2, [r4, #0]
100028f0:	6420      	str	r0, [r4, #64]	; 0x40
100028f2:	6003      	str	r3, [r0, #0]
100028f4:	63e3      	str	r3, [r4, #60]	; 0x3c
100028f6:	3334      	adds	r3, #52	; 0x34
100028f8:	54e2      	strb	r2, [r4, r3]
100028fa:	4b0e      	ldr	r3, [pc, #56]	; (10002934 <dcd_init+0xa4>)
100028fc:	6461      	str	r1, [r4, #68]	; 0x44
100028fe:	641a      	str	r2, [r3, #64]	; 0x40
10002900:	2280      	movs	r2, #128	; 0x80
10002902:	0592      	lsls	r2, r2, #22
10002904:	64da      	str	r2, [r3, #76]	; 0x4c
10002906:	2290      	movs	r2, #144	; 0x90
10002908:	490b      	ldr	r1, [pc, #44]	; (10002938 <dcd_init+0xa8>)
1000290a:	0028      	movs	r0, r5
1000290c:	5099      	str	r1, [r3, r2]
1000290e:	f7ff ffb7 	bl	10002880 <dcd_connect>
10002912:	bdf8      	pop	{r3, r4, r5, r6, r7, pc}
10002914:	10002711 	.word	0x10002711
10002918:	20000f8c 	.word	0x20000f8c
1000291c:	2000163e 	.word	0x2000163e
10002920:	50100180 	.word	0x50100180
10002924:	20001610 	.word	0x20001610
10002928:	50100084 	.word	0x50100084
1000292c:	50100100 	.word	0x50100100
10002930:	50100080 	.word	0x50100080
10002934:	50110000 	.word	0x50110000
10002938:	00011010 	.word	0x00011010

1000293c <dcd_edpt0_status_complete>:
1000293c:	780b      	ldrb	r3, [r1, #0]
1000293e:	065b      	lsls	r3, r3, #25
10002940:	d102      	bne.n	10002948 <dcd_edpt0_status_complete+0xc>
10002942:	784b      	ldrb	r3, [r1, #1]
10002944:	2b05      	cmp	r3, #5
10002946:	d009      	beq.n	1000295c <dcd_edpt0_status_complete+0x20>
10002948:	2101      	movs	r1, #1
1000294a:	2039      	movs	r0, #57	; 0x39
1000294c:	2200      	movs	r2, #0
1000294e:	4b06      	ldr	r3, [pc, #24]	; (10002968 <dcd_edpt0_status_complete+0x2c>)
10002950:	7159      	strb	r1, [r3, #5]
10002952:	5419      	strb	r1, [r3, r0]
10002954:	3147      	adds	r1, #71	; 0x47
10002956:	751a      	strb	r2, [r3, #20]
10002958:	545a      	strb	r2, [r3, r1]
1000295a:	4770      	bx	lr
1000295c:	4b03      	ldr	r3, [pc, #12]	; (1000296c <dcd_edpt0_status_complete+0x30>)
1000295e:	781a      	ldrb	r2, [r3, #0]
10002960:	4b03      	ldr	r3, [pc, #12]	; (10002970 <dcd_edpt0_status_complete+0x34>)
10002962:	601a      	str	r2, [r3, #0]
10002964:	e7f0      	b.n	10002948 <dcd_edpt0_status_complete+0xc>
10002966:	46c0      	nop			; (mov r8, r8)
10002968:	20000f8c 	.word	0x20000f8c
1000296c:	2000163e 	.word	0x2000163e
10002970:	50110000 	.word	0x50110000

10002974 <dcd_edpt_open>:
10002974:	b5f0      	push	{r4, r5, r6, r7, lr}
10002976:	4647      	mov	r7, r8
10002978:	46ce      	mov	lr, r9
1000297a:	b580      	push	{r7, lr}
1000297c:	788b      	ldrb	r3, [r1, #2]
1000297e:	790a      	ldrb	r2, [r1, #4]
10002980:	469c      	mov	ip, r3
10002982:	2307      	movs	r3, #7
10002984:	7948      	ldrb	r0, [r1, #5]
10002986:	78c9      	ldrb	r1, [r1, #3]
10002988:	4003      	ands	r3, r0
1000298a:	0789      	lsls	r1, r1, #30
1000298c:	021b      	lsls	r3, r3, #8
1000298e:	0f89      	lsrs	r1, r1, #30
10002990:	4313      	orrs	r3, r2
10002992:	b2ca      	uxtb	r2, r1
10002994:	4691      	mov	r9, r2
10002996:	207f      	movs	r0, #127	; 0x7f
10002998:	4662      	mov	r2, ip
1000299a:	b083      	sub	sp, #12
1000299c:	4010      	ands	r0, r2
1000299e:	466c      	mov	r4, sp
100029a0:	4662      	mov	r2, ip
100029a2:	2768      	movs	r7, #104	; 0x68
100029a4:	2607      	movs	r6, #7
100029a6:	71e2      	strb	r2, [r4, #7]
100029a8:	4347      	muls	r7, r0
100029aa:	2234      	movs	r2, #52	; 0x34
100029ac:	46b8      	mov	r8, r7
100029ae:	4667      	mov	r7, ip
100029b0:	57a6      	ldrsb	r6, [r4, r6]
100029b2:	4d3b      	ldr	r5, [pc, #236]	; (10002aa0 <dcd_edpt_open+0x12c>)
100029b4:	0ff4      	lsrs	r4, r6, #31
100029b6:	4362      	muls	r2, r4
100029b8:	4442      	add	r2, r8
100029ba:	18aa      	adds	r2, r5, r2
100029bc:	7117      	strb	r7, [r2, #4]
100029be:	43f7      	mvns	r7, r6
100029c0:	0fff      	lsrs	r7, r7, #31
100029c2:	70d7      	strb	r7, [r2, #3]
100029c4:	4247      	negs	r7, r0
100029c6:	4147      	adcs	r7, r0
100029c8:	7054      	strb	r4, [r2, #1]
100029ca:	7090      	strb	r0, [r2, #2]
100029cc:	7157      	strb	r7, [r2, #5]
100029ce:	464a      	mov	r2, r9
100029d0:	2a01      	cmp	r2, #1
100029d2:	d059      	beq.n	10002a88 <dcd_edpt_open+0x114>
100029d4:	2b40      	cmp	r3, #64	; 0x40
100029d6:	d85a      	bhi.n	10002a8e <dcd_edpt_open+0x11a>
100029d8:	2768      	movs	r7, #104	; 0x68
100029da:	2234      	movs	r2, #52	; 0x34
100029dc:	4347      	muls	r7, r0
100029de:	46bc      	mov	ip, r7
100029e0:	4362      	muls	r2, r4
100029e2:	4462      	add	r2, ip
100029e4:	18aa      	adds	r2, r5, r2
100029e6:	62d3      	str	r3, [r2, #44]	; 0x2c
100029e8:	3230      	adds	r2, #48	; 0x30
100029ea:	7011      	strb	r1, [r2, #0]
100029ec:	2e00      	cmp	r6, #0
100029ee:	db39      	blt.n	10002a64 <dcd_edpt_open+0xf0>
100029f0:	4a2c      	ldr	r2, [pc, #176]	; (10002aa4 <dcd_edpt_open+0x130>)
100029f2:	00c1      	lsls	r1, r0, #3
100029f4:	4690      	mov	r8, r2
100029f6:	19ea      	adds	r2, r5, r7
100029f8:	4441      	add	r1, r8
100029fa:	60d1      	str	r1, [r2, #12]
100029fc:	2200      	movs	r2, #0
100029fe:	600a      	str	r2, [r1, #0]
10002a00:	2800      	cmp	r0, #0
10002a02:	d039      	beq.n	10002a78 <dcd_edpt_open+0x104>
10002a04:	4a28      	ldr	r2, [pc, #160]	; (10002aa8 <dcd_edpt_open+0x134>)
10002a06:	00c1      	lsls	r1, r0, #3
10002a08:	4694      	mov	ip, r2
10002a0a:	4461      	add	r1, ip
10002a0c:	2234      	movs	r2, #52	; 0x34
10002a0e:	2668      	movs	r6, #104	; 0x68
10002a10:	4362      	muls	r2, r4
10002a12:	4346      	muls	r6, r0
10002a14:	1992      	adds	r2, r2, r6
10002a16:	4e25      	ldr	r6, [pc, #148]	; (10002aac <dcd_edpt_open+0x138>)
10002a18:	18aa      	adds	r2, r5, r2
10002a1a:	46b4      	mov	ip, r6
10002a1c:	6836      	ldr	r6, [r6, #0]
10002a1e:	6091      	str	r1, [r2, #8]
10002a20:	6116      	str	r6, [r2, #16]
10002a22:	2b40      	cmp	r3, #64	; 0x40
10002a24:	d200      	bcs.n	10002a28 <dcd_edpt_open+0xb4>
10002a26:	2340      	movs	r3, #64	; 0x40
10002a28:	223f      	movs	r2, #63	; 0x3f
10002a2a:	18f3      	adds	r3, r6, r3
10002a2c:	4213      	tst	r3, r2
10002a2e:	d001      	beq.n	10002a34 <dcd_edpt_open+0xc0>
10002a30:	4393      	bics	r3, r2
10002a32:	3340      	adds	r3, #64	; 0x40
10002a34:	4662      	mov	r2, ip
10002a36:	6013      	str	r3, [r2, #0]
10002a38:	4b1d      	ldr	r3, [pc, #116]	; (10002ab0 <dcd_edpt_open+0x13c>)
10002a3a:	464a      	mov	r2, r9
10002a3c:	405e      	eors	r6, r3
10002a3e:	23a0      	movs	r3, #160	; 0xa0
10002a40:	061b      	lsls	r3, r3, #24
10002a42:	4333      	orrs	r3, r6
10002a44:	0697      	lsls	r7, r2, #26
10002a46:	431f      	orrs	r7, r3
10002a48:	600f      	str	r7, [r1, #0]
10002a4a:	2334      	movs	r3, #52	; 0x34
10002a4c:	435c      	muls	r4, r3
10002a4e:	3334      	adds	r3, #52	; 0x34
10002a50:	4358      	muls	r0, r3
10002a52:	3b67      	subs	r3, #103	; 0x67
10002a54:	1820      	adds	r0, r4, r0
10002a56:	542b      	strb	r3, [r5, r0]
10002a58:	2001      	movs	r0, #1
10002a5a:	b003      	add	sp, #12
10002a5c:	bc0c      	pop	{r2, r3}
10002a5e:	4690      	mov	r8, r2
10002a60:	4699      	mov	r9, r3
10002a62:	bdf0      	pop	{r4, r5, r6, r7, pc}
10002a64:	4913      	ldr	r1, [pc, #76]	; (10002ab4 <dcd_edpt_open+0x140>)
10002a66:	00c2      	lsls	r2, r0, #3
10002a68:	4688      	mov	r8, r1
10002a6a:	19e9      	adds	r1, r5, r7
10002a6c:	4442      	add	r2, r8
10002a6e:	640a      	str	r2, [r1, #64]	; 0x40
10002a70:	2100      	movs	r1, #0
10002a72:	6011      	str	r1, [r2, #0]
10002a74:	2800      	cmp	r0, #0
10002a76:	d10e      	bne.n	10002a96 <dcd_edpt_open+0x122>
10002a78:	2334      	movs	r3, #52	; 0x34
10002a7a:	2200      	movs	r2, #0
10002a7c:	4363      	muls	r3, r4
10002a7e:	18eb      	adds	r3, r5, r3
10002a80:	609a      	str	r2, [r3, #8]
10002a82:	4a0d      	ldr	r2, [pc, #52]	; (10002ab8 <dcd_edpt_open+0x144>)
10002a84:	611a      	str	r2, [r3, #16]
10002a86:	e7e0      	b.n	10002a4a <dcd_edpt_open+0xd6>
10002a88:	4a0c      	ldr	r2, [pc, #48]	; (10002abc <dcd_edpt_open+0x148>)
10002a8a:	4293      	cmp	r3, r2
10002a8c:	d9a4      	bls.n	100029d8 <dcd_edpt_open+0x64>
10002a8e:	0019      	movs	r1, r3
10002a90:	480b      	ldr	r0, [pc, #44]	; (10002ac0 <dcd_edpt_open+0x14c>)
10002a92:	f7fe fe9b 	bl	100017cc <panic>
10002a96:	4a06      	ldr	r2, [pc, #24]	; (10002ab0 <dcd_edpt_open+0x13c>)
10002a98:	00c1      	lsls	r1, r0, #3
10002a9a:	4694      	mov	ip, r2
10002a9c:	4461      	add	r1, ip
10002a9e:	e7b5      	b.n	10002a0c <dcd_edpt_open+0x98>
10002aa0:	20000f8c 	.word	0x20000f8c
10002aa4:	50100084 	.word	0x50100084
10002aa8:	50100004 	.word	0x50100004
10002aac:	20001610 	.word	0x20001610
10002ab0:	50100000 	.word	0x50100000
10002ab4:	50100080 	.word	0x50100080
10002ab8:	50100100 	.word	0x50100100
10002abc:	000003ff 	.word	0x000003ff
10002ac0:	10005b74 	.word	0x10005b74

10002ac4 <dcd_edpt_xfer>:
10002ac4:	b510      	push	{r4, lr}
10002ac6:	000c      	movs	r4, r1
10002ac8:	2034      	movs	r0, #52	; 0x34
10002aca:	0011      	movs	r1, r2
10002acc:	001a      	movs	r2, r3
10002ace:	09e3      	lsrs	r3, r4, #7
10002ad0:	4358      	muls	r0, r3
10002ad2:	237f      	movs	r3, #127	; 0x7f
10002ad4:	401c      	ands	r4, r3
10002ad6:	3b17      	subs	r3, #23
10002ad8:	4363      	muls	r3, r4
10002ada:	18c0      	adds	r0, r0, r3
10002adc:	4b03      	ldr	r3, [pc, #12]	; (10002aec <dcd_edpt_xfer+0x28>)
10002ade:	1818      	adds	r0, r3, r0
10002ae0:	2301      	movs	r3, #1
10002ae2:	f000 f941 	bl	10002d68 <_hw_endpoint_xfer>
10002ae6:	2001      	movs	r0, #1
10002ae8:	bd10      	pop	{r4, pc}
10002aea:	46c0      	nop			; (mov r8, r8)
10002aec:	20000f8c 	.word	0x20000f8c

10002af0 <dcd_edpt_stall>:
10002af0:	b570      	push	{r4, r5, r6, lr}
10002af2:	257f      	movs	r5, #127	; 0x7f
10002af4:	2034      	movs	r0, #52	; 0x34
10002af6:	2368      	movs	r3, #104	; 0x68
10002af8:	400d      	ands	r5, r1
10002afa:	09ce      	lsrs	r6, r1, #7
10002afc:	436b      	muls	r3, r5
10002afe:	4370      	muls	r0, r6
10002b00:	4c0c      	ldr	r4, [pc, #48]	; (10002b34 <dcd_edpt_stall+0x44>)
10002b02:	18c0      	adds	r0, r0, r3
10002b04:	1820      	adds	r0, r4, r0
10002b06:	7883      	ldrb	r3, [r0, #2]
10002b08:	2b00      	cmp	r3, #0
10002b0a:	d105      	bne.n	10002b18 <dcd_edpt_stall+0x28>
10002b0c:	7843      	ldrb	r3, [r0, #1]
10002b0e:	425a      	negs	r2, r3
10002b10:	4153      	adcs	r3, r2
10002b12:	4a09      	ldr	r2, [pc, #36]	; (10002b38 <dcd_edpt_stall+0x48>)
10002b14:	3301      	adds	r3, #1
10002b16:	6693      	str	r3, [r2, #104]	; 0x68
10002b18:	2280      	movs	r2, #128	; 0x80
10002b1a:	4908      	ldr	r1, [pc, #32]	; (10002b3c <dcd_edpt_stall+0x4c>)
10002b1c:	0112      	lsls	r2, r2, #4
10002b1e:	f000 f869 	bl	10002bf4 <_hw_endpoint_buffer_control_update32>
10002b22:	2368      	movs	r3, #104	; 0x68
10002b24:	2134      	movs	r1, #52	; 0x34
10002b26:	435d      	muls	r5, r3
10002b28:	4371      	muls	r1, r6
10002b2a:	1949      	adds	r1, r1, r5
10002b2c:	1861      	adds	r1, r4, r1
10002b2e:	3b67      	subs	r3, #103	; 0x67
10002b30:	750b      	strb	r3, [r1, #20]
10002b32:	bd70      	pop	{r4, r5, r6, pc}
10002b34:	20000f8c 	.word	0x20000f8c
10002b38:	50112000 	.word	0x50112000
10002b3c:	fffff7ff 	.word	0xfffff7ff

10002b40 <dcd_edpt_clear_stall>:
10002b40:	b570      	push	{r4, r5, r6, lr}
10002b42:	257f      	movs	r5, #127	; 0x7f
10002b44:	2034      	movs	r0, #52	; 0x34
10002b46:	2368      	movs	r3, #104	; 0x68
10002b48:	400d      	ands	r5, r1
10002b4a:	09ce      	lsrs	r6, r1, #7
10002b4c:	436b      	muls	r3, r5
10002b4e:	4370      	muls	r0, r6
10002b50:	4c0c      	ldr	r4, [pc, #48]	; (10002b84 <dcd_edpt_clear_stall+0x44>)
10002b52:	18c0      	adds	r0, r0, r3
10002b54:	1820      	adds	r0, r4, r0
10002b56:	7883      	ldrb	r3, [r0, #2]
10002b58:	2b00      	cmp	r3, #0
10002b5a:	d105      	bne.n	10002b68 <dcd_edpt_clear_stall+0x28>
10002b5c:	7843      	ldrb	r3, [r0, #1]
10002b5e:	425a      	negs	r2, r3
10002b60:	4153      	adcs	r3, r2
10002b62:	4a09      	ldr	r2, [pc, #36]	; (10002b88 <dcd_edpt_clear_stall+0x48>)
10002b64:	3301      	adds	r3, #1
10002b66:	6693      	str	r3, [r2, #104]	; 0x68
10002b68:	2200      	movs	r2, #0
10002b6a:	4908      	ldr	r1, [pc, #32]	; (10002b8c <dcd_edpt_clear_stall+0x4c>)
10002b6c:	f000 f842 	bl	10002bf4 <_hw_endpoint_buffer_control_update32>
10002b70:	2368      	movs	r3, #104	; 0x68
10002b72:	2134      	movs	r1, #52	; 0x34
10002b74:	435d      	muls	r5, r3
10002b76:	2300      	movs	r3, #0
10002b78:	4371      	muls	r1, r6
10002b7a:	1949      	adds	r1, r1, r5
10002b7c:	1861      	adds	r1, r4, r1
10002b7e:	750b      	strb	r3, [r1, #20]
10002b80:	bd70      	pop	{r4, r5, r6, pc}
10002b82:	46c0      	nop			; (mov r8, r8)
10002b84:	20000f8c 	.word	0x20000f8c
10002b88:	50113000 	.word	0x50113000
10002b8c:	fffff7ff 	.word	0xfffff7ff

10002b90 <rp2040_usb_init>:
10002b90:	2280      	movs	r2, #128	; 0x80
10002b92:	4b0e      	ldr	r3, [pc, #56]	; (10002bcc <rp2040_usb_init+0x3c>)
10002b94:	0452      	lsls	r2, r2, #17
10002b96:	b510      	push	{r4, lr}
10002b98:	601a      	str	r2, [r3, #0]
10002b9a:	4b0d      	ldr	r3, [pc, #52]	; (10002bd0 <rp2040_usb_init+0x40>)
10002b9c:	490d      	ldr	r1, [pc, #52]	; (10002bd4 <rp2040_usb_init+0x44>)
10002b9e:	601a      	str	r2, [r3, #0]
10002ba0:	0010      	movs	r0, r2
10002ba2:	688b      	ldr	r3, [r1, #8]
10002ba4:	4398      	bics	r0, r3
10002ba6:	d1fb      	bne.n	10002ba0 <rp2040_usb_init+0x10>
10002ba8:	4c0b      	ldr	r4, [pc, #44]	; (10002bd8 <rp2040_usb_init+0x48>)
10002baa:	229c      	movs	r2, #156	; 0x9c
10002bac:	2100      	movs	r1, #0
10002bae:	0020      	movs	r0, r4
10002bb0:	f7ff faca 	bl	10002148 <__wrap_memset>
10002bb4:	2280      	movs	r2, #128	; 0x80
10002bb6:	2100      	movs	r1, #0
10002bb8:	0152      	lsls	r2, r2, #5
10002bba:	4808      	ldr	r0, [pc, #32]	; (10002bdc <rp2040_usb_init+0x4c>)
10002bbc:	f7ff fac4 	bl	10002148 <__wrap_memset>
10002bc0:	2309      	movs	r3, #9
10002bc2:	6763      	str	r3, [r4, #116]	; 0x74
10002bc4:	3303      	adds	r3, #3
10002bc6:	67a3      	str	r3, [r4, #120]	; 0x78
10002bc8:	bd10      	pop	{r4, pc}
10002bca:	46c0      	nop			; (mov r8, r8)
10002bcc:	4000e000 	.word	0x4000e000
10002bd0:	4000f000 	.word	0x4000f000
10002bd4:	4000c000 	.word	0x4000c000
10002bd8:	50110000 	.word	0x50110000
10002bdc:	50100000 	.word	0x50100000

10002be0 <hw_endpoint_reset_transfer>:
10002be0:	2300      	movs	r3, #0
10002be2:	2232      	movs	r2, #50	; 0x32
10002be4:	7503      	strb	r3, [r0, #20]
10002be6:	7543      	strb	r3, [r0, #21]
10002be8:	5483      	strb	r3, [r0, r2]
10002bea:	6183      	str	r3, [r0, #24]
10002bec:	61c3      	str	r3, [r0, #28]
10002bee:	6203      	str	r3, [r0, #32]
10002bf0:	6283      	str	r3, [r0, #40]	; 0x28
10002bf2:	4770      	bx	lr

10002bf4 <_hw_endpoint_buffer_control_update32>:
10002bf4:	b510      	push	{r4, lr}
10002bf6:	68c3      	ldr	r3, [r0, #12]
10002bf8:	2900      	cmp	r1, #0
10002bfa:	d001      	beq.n	10002c00 <_hw_endpoint_buffer_control_update32+0xc>
10002bfc:	681c      	ldr	r4, [r3, #0]
10002bfe:	4021      	ands	r1, r4
10002c00:	2a00      	cmp	r2, #0
10002c02:	d011      	beq.n	10002c28 <_hw_endpoint_buffer_control_update32+0x34>
10002c04:	2480      	movs	r4, #128	; 0x80
10002c06:	00e4      	lsls	r4, r4, #3
10002c08:	4311      	orrs	r1, r2
10002c0a:	4222      	tst	r2, r4
10002c0c:	d00c      	beq.n	10002c28 <_hw_endpoint_buffer_control_update32+0x34>
10002c0e:	681a      	ldr	r2, [r3, #0]
10002c10:	4222      	tst	r2, r4
10002c12:	d10b      	bne.n	10002c2c <_hw_endpoint_buffer_control_update32+0x38>
10002c14:	4a09      	ldr	r2, [pc, #36]	; (10002c3c <_hw_endpoint_buffer_control_update32+0x48>)
10002c16:	400a      	ands	r2, r1
10002c18:	601a      	str	r2, [r3, #0]
10002c1a:	e7ff      	b.n	10002c1c <_hw_endpoint_buffer_control_update32+0x28>
10002c1c:	e7ff      	b.n	10002c1e <_hw_endpoint_buffer_control_update32+0x2a>
10002c1e:	e7ff      	b.n	10002c20 <_hw_endpoint_buffer_control_update32+0x2c>
10002c20:	e7ff      	b.n	10002c22 <_hw_endpoint_buffer_control_update32+0x2e>
10002c22:	e7ff      	b.n	10002c24 <_hw_endpoint_buffer_control_update32+0x30>
10002c24:	e7ff      	b.n	10002c26 <_hw_endpoint_buffer_control_update32+0x32>
10002c26:	68c3      	ldr	r3, [r0, #12]
10002c28:	6019      	str	r1, [r3, #0]
10002c2a:	bd10      	pop	{r4, pc}
10002c2c:	7843      	ldrb	r3, [r0, #1]
10002c2e:	4a04      	ldr	r2, [pc, #16]	; (10002c40 <_hw_endpoint_buffer_control_update32+0x4c>)
10002c30:	009b      	lsls	r3, r3, #2
10002c32:	7881      	ldrb	r1, [r0, #2]
10002c34:	589a      	ldr	r2, [r3, r2]
10002c36:	4803      	ldr	r0, [pc, #12]	; (10002c44 <_hw_endpoint_buffer_control_update32+0x50>)
10002c38:	f7fe fdc8 	bl	100017cc <panic>
10002c3c:	fffffbff 	.word	0xfffffbff
10002c40:	200002c4 	.word	0x200002c4
10002c44:	10005bb0 	.word	0x10005bb0

10002c48 <_hw_endpoint_xfer_continue>:
10002c48:	b5f0      	push	{r4, r5, r6, r7, lr}
10002c4a:	46c6      	mov	lr, r8
10002c4c:	b500      	push	{lr}
10002c4e:	7d43      	ldrb	r3, [r0, #21]
10002c50:	b082      	sub	sp, #8
10002c52:	0004      	movs	r4, r0
10002c54:	4698      	mov	r8, r3
10002c56:	2b00      	cmp	r3, #0
10002c58:	d100      	bne.n	10002c5c <_hw_endpoint_xfer_continue+0x14>
10002c5a:	e06e      	b.n	10002d3a <_hw_endpoint_xfer_continue+0xf2>
10002c5c:	68c3      	ldr	r3, [r0, #12]
10002c5e:	78c0      	ldrb	r0, [r0, #3]
10002c60:	681d      	ldr	r5, [r3, #0]
10002c62:	05ad      	lsls	r5, r5, #22
10002c64:	0dad      	lsrs	r5, r5, #22
10002c66:	2800      	cmp	r0, #0
10002c68:	d13d      	bne.n	10002ce6 <_hw_endpoint_xfer_continue+0x9e>
10002c6a:	69e3      	ldr	r3, [r4, #28]
10002c6c:	18e9      	adds	r1, r5, r3
10002c6e:	61e1      	str	r1, [r4, #28]
10002c70:	69a2      	ldr	r2, [r4, #24]
10002c72:	1a55      	subs	r5, r2, r1
10002c74:	2d40      	cmp	r5, #64	; 0x40
10002c76:	d834      	bhi.n	10002ce2 <_hw_endpoint_xfer_continue+0x9a>
10002c78:	186b      	adds	r3, r5, r1
10002c7a:	1a9b      	subs	r3, r3, r2
10002c7c:	425e      	negs	r6, r3
10002c7e:	415e      	adcs	r6, r3
10002c80:	1c33      	adds	r3, r6, #0
10002c82:	466e      	mov	r6, sp
10002c84:	2724      	movs	r7, #36	; 0x24
10002c86:	71f3      	strb	r3, [r6, #7]
10002c88:	79f3      	ldrb	r3, [r6, #7]
10002c8a:	6225      	str	r5, [r4, #32]
10002c8c:	55e3      	strb	r3, [r4, r7]
10002c8e:	428a      	cmp	r2, r1
10002c90:	d350      	bcc.n	10002d34 <_hw_endpoint_xfer_continue+0xec>
10002c92:	d04d      	beq.n	10002d30 <_hw_endpoint_xfer_continue+0xe8>
10002c94:	2800      	cmp	r0, #0
10002c96:	d03f      	beq.n	10002d18 <_hw_endpoint_xfer_continue+0xd0>
10002c98:	2280      	movs	r2, #128	; 0x80
10002c9a:	00d2      	lsls	r2, r2, #3
10002c9c:	4315      	orrs	r5, r2
10002c9e:	7962      	ldrb	r2, [r4, #5]
10002ca0:	0011      	movs	r1, r2
10002ca2:	1e48      	subs	r0, r1, #1
10002ca4:	4181      	sbcs	r1, r0
10002ca6:	0349      	lsls	r1, r1, #13
10002ca8:	430d      	orrs	r5, r1
10002caa:	2101      	movs	r1, #1
10002cac:	404a      	eors	r2, r1
10002cae:	7162      	strb	r2, [r4, #5]
10002cb0:	2b00      	cmp	r3, #0
10002cb2:	d002      	beq.n	10002cba <_hw_endpoint_xfer_continue+0x72>
10002cb4:	2380      	movs	r3, #128	; 0x80
10002cb6:	01db      	lsls	r3, r3, #7
10002cb8:	431d      	orrs	r5, r3
10002cba:	68e2      	ldr	r2, [r4, #12]
10002cbc:	6813      	ldr	r3, [r2, #0]
10002cbe:	055b      	lsls	r3, r3, #21
10002cc0:	d440      	bmi.n	10002d44 <_hw_endpoint_xfer_continue+0xfc>
10002cc2:	4b24      	ldr	r3, [pc, #144]	; (10002d54 <_hw_endpoint_xfer_continue+0x10c>)
10002cc4:	402b      	ands	r3, r5
10002cc6:	6013      	str	r3, [r2, #0]
10002cc8:	e7ff      	b.n	10002cca <_hw_endpoint_xfer_continue+0x82>
10002cca:	e7ff      	b.n	10002ccc <_hw_endpoint_xfer_continue+0x84>
10002ccc:	e7ff      	b.n	10002cce <_hw_endpoint_xfer_continue+0x86>
10002cce:	e7ff      	b.n	10002cd0 <_hw_endpoint_xfer_continue+0x88>
10002cd0:	e7ff      	b.n	10002cd2 <_hw_endpoint_xfer_continue+0x8a>
10002cd2:	e7ff      	b.n	10002cd4 <_hw_endpoint_xfer_continue+0x8c>
10002cd4:	2000      	movs	r0, #0
10002cd6:	68e3      	ldr	r3, [r4, #12]
10002cd8:	601d      	str	r5, [r3, #0]
10002cda:	b002      	add	sp, #8
10002cdc:	bc04      	pop	{r2}
10002cde:	4690      	mov	r8, r2
10002ce0:	bdf0      	pop	{r4, r5, r6, r7, pc}
10002ce2:	2540      	movs	r5, #64	; 0x40
10002ce4:	e7c8      	b.n	10002c78 <_hw_endpoint_xfer_continue+0x30>
10002ce6:	69e2      	ldr	r2, [r4, #28]
10002ce8:	6aa3      	ldr	r3, [r4, #40]	; 0x28
10002cea:	4694      	mov	ip, r2
10002cec:	4463      	add	r3, ip
10002cee:	0018      	movs	r0, r3
10002cf0:	6921      	ldr	r1, [r4, #16]
10002cf2:	002a      	movs	r2, r5
10002cf4:	f7ff fa2e 	bl	10002154 <__wrap___aeabi_memcpy>
10002cf8:	69e3      	ldr	r3, [r4, #28]
10002cfa:	78e0      	ldrb	r0, [r4, #3]
10002cfc:	18e9      	adds	r1, r5, r3
10002cfe:	61e1      	str	r1, [r4, #28]
10002d00:	2800      	cmp	r0, #0
10002d02:	d0b5      	beq.n	10002c70 <_hw_endpoint_xfer_continue+0x28>
10002d04:	6a23      	ldr	r3, [r4, #32]
10002d06:	429d      	cmp	r5, r3
10002d08:	d2b2      	bcs.n	10002c70 <_hw_endpoint_xfer_continue+0x28>
10002d0a:	2300      	movs	r3, #0
10002d0c:	2201      	movs	r2, #1
10002d0e:	6223      	str	r3, [r4, #32]
10002d10:	3324      	adds	r3, #36	; 0x24
10002d12:	61a1      	str	r1, [r4, #24]
10002d14:	54e2      	strb	r2, [r4, r3]
10002d16:	e7e0      	b.n	10002cda <_hw_endpoint_xfer_continue+0x92>
10002d18:	6aa3      	ldr	r3, [r4, #40]	; 0x28
10002d1a:	002a      	movs	r2, r5
10002d1c:	469c      	mov	ip, r3
10002d1e:	6920      	ldr	r0, [r4, #16]
10002d20:	4461      	add	r1, ip
10002d22:	f7ff fa17 	bl	10002154 <__wrap___aeabi_memcpy>
10002d26:	2384      	movs	r3, #132	; 0x84
10002d28:	021b      	lsls	r3, r3, #8
10002d2a:	431d      	orrs	r5, r3
10002d2c:	5de3      	ldrb	r3, [r4, r7]
10002d2e:	e7b6      	b.n	10002c9e <_hw_endpoint_xfer_continue+0x56>
10002d30:	4640      	mov	r0, r8
10002d32:	e7d2      	b.n	10002cda <_hw_endpoint_xfer_continue+0x92>
10002d34:	4808      	ldr	r0, [pc, #32]	; (10002d58 <_hw_endpoint_xfer_continue+0x110>)
10002d36:	f7fe fd49 	bl	100017cc <panic>
10002d3a:	7881      	ldrb	r1, [r0, #2]
10002d3c:	4a07      	ldr	r2, [pc, #28]	; (10002d5c <_hw_endpoint_xfer_continue+0x114>)
10002d3e:	4808      	ldr	r0, [pc, #32]	; (10002d60 <_hw_endpoint_xfer_continue+0x118>)
10002d40:	f7fe fd44 	bl	100017cc <panic>
10002d44:	7863      	ldrb	r3, [r4, #1]
10002d46:	4a05      	ldr	r2, [pc, #20]	; (10002d5c <_hw_endpoint_xfer_continue+0x114>)
10002d48:	009b      	lsls	r3, r3, #2
10002d4a:	78a1      	ldrb	r1, [r4, #2]
10002d4c:	589a      	ldr	r2, [r3, r2]
10002d4e:	4805      	ldr	r0, [pc, #20]	; (10002d64 <_hw_endpoint_xfer_continue+0x11c>)
10002d50:	f7fe fd3c 	bl	100017cc <panic>
10002d54:	fffffbff 	.word	0xfffffbff
10002d58:	10005bfc 	.word	0x10005bfc
10002d5c:	200002c4 	.word	0x200002c4
10002d60:	10005bd0 	.word	0x10005bd0
10002d64:	10005bb0 	.word	0x10005bb0

10002d68 <_hw_endpoint_xfer>:
10002d68:	b5f8      	push	{r3, r4, r5, r6, r7, lr}
10002d6a:	001f      	movs	r7, r3
10002d6c:	0004      	movs	r4, r0
10002d6e:	7d43      	ldrb	r3, [r0, #21]
10002d70:	2f00      	cmp	r7, #0
10002d72:	d143      	bne.n	10002dfc <_hw_endpoint_xfer+0x94>
10002d74:	2b00      	cmp	r3, #0
10002d76:	d100      	bne.n	10002d7a <_hw_endpoint_xfer+0x12>
10002d78:	e0c3      	b.n	10002f02 <_hw_endpoint_xfer+0x19a>
10002d7a:	68c3      	ldr	r3, [r0, #12]
10002d7c:	78c2      	ldrb	r2, [r0, #3]
10002d7e:	681e      	ldr	r6, [r3, #0]
10002d80:	05b6      	lsls	r6, r6, #22
10002d82:	0db6      	lsrs	r6, r6, #22
10002d84:	2a00      	cmp	r2, #0
10002d86:	d000      	beq.n	10002d8a <_hw_endpoint_xfer+0x22>
10002d88:	e081      	b.n	10002e8e <_hw_endpoint_xfer+0x126>
10002d8a:	69c3      	ldr	r3, [r0, #28]
10002d8c:	18f1      	adds	r1, r6, r3
10002d8e:	61c1      	str	r1, [r0, #28]
10002d90:	69a0      	ldr	r0, [r4, #24]
10002d92:	1a45      	subs	r5, r0, r1
10002d94:	2d40      	cmp	r5, #64	; 0x40
10002d96:	d900      	bls.n	10002d9a <_hw_endpoint_xfer+0x32>
10002d98:	e077      	b.n	10002e8a <_hw_endpoint_xfer+0x122>
10002d9a:	186b      	adds	r3, r5, r1
10002d9c:	1a1b      	subs	r3, r3, r0
10002d9e:	425f      	negs	r7, r3
10002da0:	415f      	adcs	r7, r3
10002da2:	2624      	movs	r6, #36	; 0x24
10002da4:	b2fb      	uxtb	r3, r7
10002da6:	6225      	str	r5, [r4, #32]
10002da8:	55a3      	strb	r3, [r4, r6]
10002daa:	4288      	cmp	r0, r1
10002dac:	d200      	bcs.n	10002db0 <_hw_endpoint_xfer+0x48>
10002dae:	e09d      	b.n	10002eec <_hw_endpoint_xfer+0x184>
10002db0:	d023      	beq.n	10002dfa <_hw_endpoint_xfer+0x92>
10002db2:	2a00      	cmp	r2, #0
10002db4:	d100      	bne.n	10002db8 <_hw_endpoint_xfer+0x50>
10002db6:	e08d      	b.n	10002ed4 <_hw_endpoint_xfer+0x16c>
10002db8:	2280      	movs	r2, #128	; 0x80
10002dba:	00d2      	lsls	r2, r2, #3
10002dbc:	4315      	orrs	r5, r2
10002dbe:	7962      	ldrb	r2, [r4, #5]
10002dc0:	0011      	movs	r1, r2
10002dc2:	1e48      	subs	r0, r1, #1
10002dc4:	4181      	sbcs	r1, r0
10002dc6:	0349      	lsls	r1, r1, #13
10002dc8:	430d      	orrs	r5, r1
10002dca:	2101      	movs	r1, #1
10002dcc:	404a      	eors	r2, r1
10002dce:	7162      	strb	r2, [r4, #5]
10002dd0:	2b00      	cmp	r3, #0
10002dd2:	d002      	beq.n	10002dda <_hw_endpoint_xfer+0x72>
10002dd4:	2380      	movs	r3, #128	; 0x80
10002dd6:	01db      	lsls	r3, r3, #7
10002dd8:	431d      	orrs	r5, r3
10002dda:	68e2      	ldr	r2, [r4, #12]
10002ddc:	6813      	ldr	r3, [r2, #0]
10002dde:	055b      	lsls	r3, r3, #21
10002de0:	d500      	bpl.n	10002de4 <_hw_endpoint_xfer+0x7c>
10002de2:	e086      	b.n	10002ef2 <_hw_endpoint_xfer+0x18a>
10002de4:	4b49      	ldr	r3, [pc, #292]	; (10002f0c <_hw_endpoint_xfer+0x1a4>)
10002de6:	402b      	ands	r3, r5
10002de8:	6013      	str	r3, [r2, #0]
10002dea:	e7ff      	b.n	10002dec <_hw_endpoint_xfer+0x84>
10002dec:	e7ff      	b.n	10002dee <_hw_endpoint_xfer+0x86>
10002dee:	e7ff      	b.n	10002df0 <_hw_endpoint_xfer+0x88>
10002df0:	e7ff      	b.n	10002df2 <_hw_endpoint_xfer+0x8a>
10002df2:	e7ff      	b.n	10002df4 <_hw_endpoint_xfer+0x8c>
10002df4:	e7ff      	b.n	10002df6 <_hw_endpoint_xfer+0x8e>
10002df6:	68e3      	ldr	r3, [r4, #12]
10002df8:	601d      	str	r5, [r3, #0]
10002dfa:	bdf8      	pop	{r3, r4, r5, r6, r7, pc}
10002dfc:	2b00      	cmp	r3, #0
10002dfe:	d132      	bne.n	10002e66 <_hw_endpoint_xfer+0xfe>
10002e00:	2300      	movs	r3, #0
10002e02:	0015      	movs	r5, r2
10002e04:	61a2      	str	r2, [r4, #24]
10002e06:	61e3      	str	r3, [r4, #28]
10002e08:	2a40      	cmp	r2, #64	; 0x40
10002e0a:	d836      	bhi.n	10002e7a <_hw_endpoint_xfer+0x112>
10002e0c:	2380      	movs	r3, #128	; 0x80
10002e0e:	00db      	lsls	r3, r3, #3
10002e10:	4313      	orrs	r3, r2
10002e12:	2201      	movs	r2, #1
10002e14:	2624      	movs	r6, #36	; 0x24
10002e16:	2000      	movs	r0, #0
10002e18:	7562      	strb	r2, [r4, #21]
10002e1a:	3224      	adds	r2, #36	; 0x24
10002e1c:	6225      	str	r5, [r4, #32]
10002e1e:	62a1      	str	r1, [r4, #40]	; 0x28
10002e20:	55a7      	strb	r7, [r4, r6]
10002e22:	54a0      	strb	r0, [r4, r2]
10002e24:	78e2      	ldrb	r2, [r4, #3]
10002e26:	2a00      	cmp	r2, #0
10002e28:	d04b      	beq.n	10002ec2 <_hw_endpoint_xfer+0x15a>
10002e2a:	7962      	ldrb	r2, [r4, #5]
10002e2c:	0011      	movs	r1, r2
10002e2e:	1e48      	subs	r0, r1, #1
10002e30:	4181      	sbcs	r1, r0
10002e32:	0349      	lsls	r1, r1, #13
10002e34:	430b      	orrs	r3, r1
10002e36:	2101      	movs	r1, #1
10002e38:	404a      	eors	r2, r1
10002e3a:	7162      	strb	r2, [r4, #5]
10002e3c:	2f00      	cmp	r7, #0
10002e3e:	d002      	beq.n	10002e46 <_hw_endpoint_xfer+0xde>
10002e40:	2280      	movs	r2, #128	; 0x80
10002e42:	01d2      	lsls	r2, r2, #7
10002e44:	4313      	orrs	r3, r2
10002e46:	68e1      	ldr	r1, [r4, #12]
10002e48:	680a      	ldr	r2, [r1, #0]
10002e4a:	0552      	lsls	r2, r2, #21
10002e4c:	d451      	bmi.n	10002ef2 <_hw_endpoint_xfer+0x18a>
10002e4e:	4a2f      	ldr	r2, [pc, #188]	; (10002f0c <_hw_endpoint_xfer+0x1a4>)
10002e50:	401a      	ands	r2, r3
10002e52:	600a      	str	r2, [r1, #0]
10002e54:	e7ff      	b.n	10002e56 <_hw_endpoint_xfer+0xee>
10002e56:	e7ff      	b.n	10002e58 <_hw_endpoint_xfer+0xf0>
10002e58:	e7ff      	b.n	10002e5a <_hw_endpoint_xfer+0xf2>
10002e5a:	e7ff      	b.n	10002e5c <_hw_endpoint_xfer+0xf4>
10002e5c:	e7ff      	b.n	10002e5e <_hw_endpoint_xfer+0xf6>
10002e5e:	e7ff      	b.n	10002e60 <_hw_endpoint_xfer+0xf8>
10002e60:	68e2      	ldr	r2, [r4, #12]
10002e62:	6013      	str	r3, [r2, #0]
10002e64:	e7c9      	b.n	10002dfa <_hw_endpoint_xfer+0x92>
10002e66:	2300      	movs	r3, #0
10002e68:	7503      	strb	r3, [r0, #20]
10002e6a:	2032      	movs	r0, #50	; 0x32
10002e6c:	5423      	strb	r3, [r4, r0]
10002e6e:	2300      	movs	r3, #0
10002e70:	0015      	movs	r5, r2
10002e72:	61a2      	str	r2, [r4, #24]
10002e74:	61e3      	str	r3, [r4, #28]
10002e76:	2a40      	cmp	r2, #64	; 0x40
10002e78:	d9c8      	bls.n	10002e0c <_hw_endpoint_xfer+0xa4>
10002e7a:	3d40      	subs	r5, #64	; 0x40
10002e7c:	426f      	negs	r7, r5
10002e7e:	416f      	adcs	r7, r5
10002e80:	2388      	movs	r3, #136	; 0x88
10002e82:	b2ff      	uxtb	r7, r7
10002e84:	00db      	lsls	r3, r3, #3
10002e86:	2540      	movs	r5, #64	; 0x40
10002e88:	e7c3      	b.n	10002e12 <_hw_endpoint_xfer+0xaa>
10002e8a:	2540      	movs	r5, #64	; 0x40
10002e8c:	e785      	b.n	10002d9a <_hw_endpoint_xfer+0x32>
10002e8e:	69c2      	ldr	r2, [r0, #28]
10002e90:	6a83      	ldr	r3, [r0, #40]	; 0x28
10002e92:	4694      	mov	ip, r2
10002e94:	4463      	add	r3, ip
10002e96:	0018      	movs	r0, r3
10002e98:	0032      	movs	r2, r6
10002e9a:	6921      	ldr	r1, [r4, #16]
10002e9c:	f7ff f95a 	bl	10002154 <__wrap___aeabi_memcpy>
10002ea0:	69e3      	ldr	r3, [r4, #28]
10002ea2:	78e2      	ldrb	r2, [r4, #3]
10002ea4:	18f1      	adds	r1, r6, r3
10002ea6:	61e1      	str	r1, [r4, #28]
10002ea8:	2a00      	cmp	r2, #0
10002eaa:	d100      	bne.n	10002eae <_hw_endpoint_xfer+0x146>
10002eac:	e770      	b.n	10002d90 <_hw_endpoint_xfer+0x28>
10002eae:	6a23      	ldr	r3, [r4, #32]
10002eb0:	429e      	cmp	r6, r3
10002eb2:	d300      	bcc.n	10002eb6 <_hw_endpoint_xfer+0x14e>
10002eb4:	e76c      	b.n	10002d90 <_hw_endpoint_xfer+0x28>
10002eb6:	2201      	movs	r2, #1
10002eb8:	2324      	movs	r3, #36	; 0x24
10002eba:	61a1      	str	r1, [r4, #24]
10002ebc:	6227      	str	r7, [r4, #32]
10002ebe:	54e2      	strb	r2, [r4, r3]
10002ec0:	e79b      	b.n	10002dfa <_hw_endpoint_xfer+0x92>
10002ec2:	002a      	movs	r2, r5
10002ec4:	6920      	ldr	r0, [r4, #16]
10002ec6:	f7ff f945 	bl	10002154 <__wrap___aeabi_memcpy>
10002eca:	2384      	movs	r3, #132	; 0x84
10002ecc:	021b      	lsls	r3, r3, #8
10002ece:	432b      	orrs	r3, r5
10002ed0:	5da7      	ldrb	r7, [r4, r6]
10002ed2:	e7aa      	b.n	10002e2a <_hw_endpoint_xfer+0xc2>
10002ed4:	6aa3      	ldr	r3, [r4, #40]	; 0x28
10002ed6:	002a      	movs	r2, r5
10002ed8:	469c      	mov	ip, r3
10002eda:	6920      	ldr	r0, [r4, #16]
10002edc:	4461      	add	r1, ip
10002ede:	f7ff f939 	bl	10002154 <__wrap___aeabi_memcpy>
10002ee2:	2384      	movs	r3, #132	; 0x84
10002ee4:	021b      	lsls	r3, r3, #8
10002ee6:	431d      	orrs	r5, r3
10002ee8:	5da3      	ldrb	r3, [r4, r6]
10002eea:	e768      	b.n	10002dbe <_hw_endpoint_xfer+0x56>
10002eec:	4808      	ldr	r0, [pc, #32]	; (10002f10 <_hw_endpoint_xfer+0x1a8>)
10002eee:	f7fe fc6d 	bl	100017cc <panic>
10002ef2:	7863      	ldrb	r3, [r4, #1]
10002ef4:	4a07      	ldr	r2, [pc, #28]	; (10002f14 <_hw_endpoint_xfer+0x1ac>)
10002ef6:	009b      	lsls	r3, r3, #2
10002ef8:	78a1      	ldrb	r1, [r4, #2]
10002efa:	589a      	ldr	r2, [r3, r2]
10002efc:	4806      	ldr	r0, [pc, #24]	; (10002f18 <_hw_endpoint_xfer+0x1b0>)
10002efe:	f7fe fc65 	bl	100017cc <panic>
10002f02:	7881      	ldrb	r1, [r0, #2]
10002f04:	4a03      	ldr	r2, [pc, #12]	; (10002f14 <_hw_endpoint_xfer+0x1ac>)
10002f06:	4805      	ldr	r0, [pc, #20]	; (10002f1c <_hw_endpoint_xfer+0x1b4>)
10002f08:	f7fe fc60 	bl	100017cc <panic>
10002f0c:	fffffbff 	.word	0xfffffbff
10002f10:	10005bfc 	.word	0x10005bfc
10002f14:	200002c4 	.word	0x200002c4
10002f18:	10005bb0 	.word	0x10005bb0
10002f1c:	10005bd0 	.word	0x10005bd0

10002f20 <tud_mounted>:
10002f20:	4b02      	ldr	r3, [pc, #8]	; (10002f2c <tud_mounted+0xc>)
10002f22:	7858      	ldrb	r0, [r3, #1]
10002f24:	1e43      	subs	r3, r0, #1
10002f26:	4198      	sbcs	r0, r3
10002f28:	b2c0      	uxtb	r0, r0
10002f2a:	4770      	bx	lr
10002f2c:	20000ed8 	.word	0x20000ed8

10002f30 <tud_suspended>:
10002f30:	4b02      	ldr	r3, [pc, #8]	; (10002f3c <tud_suspended+0xc>)
10002f32:	7818      	ldrb	r0, [r3, #0]
10002f34:	0740      	lsls	r0, r0, #29
10002f36:	0fc0      	lsrs	r0, r0, #31
10002f38:	4770      	bx	lr
10002f3a:	46c0      	nop			; (mov r8, r8)
10002f3c:	20000ed8 	.word	0x20000ed8

10002f40 <tud_init>:
10002f40:	b5f8      	push	{r3, r4, r5, r6, r7, lr}
10002f42:	2237      	movs	r2, #55	; 0x37
10002f44:	2100      	movs	r1, #0
10002f46:	4823      	ldr	r0, [pc, #140]	; (10002fd4 <tud_init+0x94>)
10002f48:	f7ff f8fe 	bl	10002148 <__wrap_memset>
10002f4c:	4c22      	ldr	r4, [pc, #136]	; (10002fd8 <tud_init+0x98>)
10002f4e:	0020      	movs	r0, r4
10002f50:	f7fe f8c2 	bl	100010d8 <mutex_init>
10002f54:	4b21      	ldr	r3, [pc, #132]	; (10002fdc <tud_init+0x9c>)
10002f56:	601c      	str	r4, [r3, #0]
10002f58:	4c21      	ldr	r4, [pc, #132]	; (10002fe0 <tud_init+0xa0>)
10002f5a:	0020      	movs	r0, r4
10002f5c:	3018      	adds	r0, #24
10002f5e:	f7fe f8c7 	bl	100010f0 <critical_section_init>
10002f62:	0020      	movs	r0, r4
10002f64:	f001 fbe4 	bl	10004730 <tu_fifo_clear>
10002f68:	4b1e      	ldr	r3, [pc, #120]	; (10002fe4 <tud_init+0xa4>)
10002f6a:	601c      	str	r4, [r3, #0]
10002f6c:	4b1e      	ldr	r3, [pc, #120]	; (10002fe8 <tud_init+0xa8>)
10002f6e:	2b00      	cmp	r3, #0
10002f70:	d026      	beq.n	10002fc0 <tud_init+0x80>
10002f72:	4d1e      	ldr	r5, [pc, #120]	; (10002fec <tud_init+0xac>)
10002f74:	2400      	movs	r4, #0
10002f76:	0028      	movs	r0, r5
10002f78:	e000      	b.n	10002f7c <tud_init+0x3c>
10002f7a:	bf00      	nop
10002f7c:	4e1c      	ldr	r6, [pc, #112]	; (10002ff0 <tud_init+0xb0>)
10002f7e:	782b      	ldrb	r3, [r5, #0]
10002f80:	6030      	str	r0, [r6, #0]
10002f82:	4f1c      	ldr	r7, [pc, #112]	; (10002ff4 <tud_init+0xb4>)
10002f84:	e00a      	b.n	10002f9c <tud_init+0x5c>
10002f86:	00e3      	lsls	r3, r4, #3
10002f88:	1b1b      	subs	r3, r3, r4
10002f8a:	6832      	ldr	r2, [r6, #0]
10002f8c:	009b      	lsls	r3, r3, #2
10002f8e:	589b      	ldr	r3, [r3, r2]
10002f90:	4798      	blx	r3
10002f92:	3401      	adds	r4, #1
10002f94:	782b      	ldrb	r3, [r5, #0]
10002f96:	b2e4      	uxtb	r4, r4
10002f98:	42a3      	cmp	r3, r4
10002f9a:	db09      	blt.n	10002fb0 <tud_init+0x70>
10002f9c:	429c      	cmp	r4, r3
10002f9e:	d3f2      	bcc.n	10002f86 <tud_init+0x46>
10002fa0:	d114      	bne.n	10002fcc <tud_init+0x8c>
10002fa2:	003b      	movs	r3, r7
10002fa4:	4798      	blx	r3
10002fa6:	3401      	adds	r4, #1
10002fa8:	782b      	ldrb	r3, [r5, #0]
10002faa:	b2e4      	uxtb	r4, r4
10002fac:	42a3      	cmp	r3, r4
10002fae:	daf5      	bge.n	10002f9c <tud_init+0x5c>
10002fb0:	2000      	movs	r0, #0
10002fb2:	f7ff fc6d 	bl	10002890 <dcd_init>
10002fb6:	2000      	movs	r0, #0
10002fb8:	f7ff fc44 	bl	10002844 <dcd_int_enable>
10002fbc:	2001      	movs	r0, #1
10002fbe:	bdf8      	pop	{r3, r4, r5, r6, r7, pc}
10002fc0:	f000 ffd4 	bl	10003f6c <cdcd_init>
10002fc4:	4b09      	ldr	r3, [pc, #36]	; (10002fec <tud_init+0xac>)
10002fc6:	781b      	ldrb	r3, [r3, #0]
10002fc8:	2b00      	cmp	r3, #0
10002fca:	d0f1      	beq.n	10002fb0 <tud_init+0x70>
10002fcc:	2300      	movs	r3, #0
10002fce:	681b      	ldr	r3, [r3, #0]
10002fd0:	deff      	udf	#255	; 0xff
10002fd2:	46c0      	nop			; (mov r8, r8)
10002fd4:	20000ed8 	.word	0x20000ed8
10002fd8:	20000e90 	.word	0x20000e90
10002fdc:	20000f10 	.word	0x20000f10
10002fe0:	200002cc 	.word	0x200002cc
10002fe4:	20000f14 	.word	0x20000f14
10002fe8:	00000000 	.word	0x00000000
10002fec:	2000163c 	.word	0x2000163c
10002ff0:	20000ba8 	.word	0x20000ba8
10002ff4:	10003f6d 	.word	0x10003f6d

10002ff8 <tud_task>:
10002ff8:	b5f0      	push	{r4, r5, r6, r7, lr}
10002ffa:	46de      	mov	lr, fp
10002ffc:	4657      	mov	r7, sl
10002ffe:	464e      	mov	r6, r9
10003000:	4645      	mov	r5, r8
10003002:	b5e0      	push	{r5, r6, r7, lr}
10003004:	b08b      	sub	sp, #44	; 0x2c
10003006:	f001 f989 	bl	1000431c <tusb_inited>
1000300a:	2800      	cmp	r0, #0
1000300c:	d100      	bne.n	10003010 <tud_task+0x18>
1000300e:	e171      	b.n	100032f4 <tud_task+0x2fc>
10003010:	4bcd      	ldr	r3, [pc, #820]	; (10003348 <tud_task+0x350>)
10003012:	ac07      	add	r4, sp, #28
10003014:	469b      	mov	fp, r3
10003016:	465b      	mov	r3, fp
10003018:	681e      	ldr	r6, [r3, #0]
1000301a:	69b2      	ldr	r2, [r6, #24]
1000301c:	f3ef 8110 	mrs	r1, PRIMASK
10003020:	b672      	cpsid	i
10003022:	6813      	ldr	r3, [r2, #0]
10003024:	2b00      	cmp	r3, #0
10003026:	d0fc      	beq.n	10003022 <tud_task+0x2a>
10003028:	f3bf 8f5f 	dmb	sy
1000302c:	61f1      	str	r1, [r6, #28]
1000302e:	0030      	movs	r0, r6
10003030:	0021      	movs	r1, r4
10003032:	f001 f9d7 	bl	100043e4 <tu_fifo_read>
10003036:	69b2      	ldr	r2, [r6, #24]
10003038:	0005      	movs	r5, r0
1000303a:	69f3      	ldr	r3, [r6, #28]
1000303c:	f3bf 8f5f 	dmb	sy
10003040:	2100      	movs	r1, #0
10003042:	6011      	str	r1, [r2, #0]
10003044:	f383 8810 	msr	PRIMASK, r3
10003048:	2800      	cmp	r0, #0
1000304a:	d100      	bne.n	1000304e <tud_task+0x56>
1000304c:	e152      	b.n	100032f4 <tud_task+0x2fc>
1000304e:	7863      	ldrb	r3, [r4, #1]
10003050:	2b08      	cmp	r3, #8
10003052:	d8e0      	bhi.n	10003016 <tud_task+0x1e>
10003054:	4abd      	ldr	r2, [pc, #756]	; (1000334c <tud_task+0x354>)
10003056:	009b      	lsls	r3, r3, #2
10003058:	58d3      	ldr	r3, [r2, r3]
1000305a:	469f      	mov	pc, r3
1000305c:	6863      	ldr	r3, [r4, #4]
1000305e:	2b00      	cmp	r3, #0
10003060:	d0d9      	beq.n	10003016 <tud_task+0x1e>
10003062:	68a0      	ldr	r0, [r4, #8]
10003064:	4798      	blx	r3
10003066:	e7d6      	b.n	10003016 <tud_task+0x1e>
10003068:	227f      	movs	r2, #127	; 0x7f
1000306a:	7921      	ldrb	r1, [r4, #4]
1000306c:	4bb8      	ldr	r3, [pc, #736]	; (10003350 <tud_task+0x358>)
1000306e:	400a      	ands	r2, r1
10003070:	0055      	lsls	r5, r2, #1
10003072:	09c8      	lsrs	r0, r1, #7
10003074:	195b      	adds	r3, r3, r5
10003076:	181b      	adds	r3, r3, r0
10003078:	0018      	movs	r0, r3
1000307a:	2601      	movs	r6, #1
1000307c:	3020      	adds	r0, #32
1000307e:	7945      	ldrb	r5, [r0, #5]
10003080:	43b5      	bics	r5, r6
10003082:	7145      	strb	r5, [r0, #5]
10003084:	7945      	ldrb	r5, [r0, #5]
10003086:	3603      	adds	r6, #3
10003088:	43b5      	bics	r5, r6
1000308a:	7145      	strb	r5, [r0, #5]
1000308c:	2a00      	cmp	r2, #0
1000308e:	d100      	bne.n	10003092 <tud_task+0x9a>
10003090:	e17b      	b.n	1000338a <tud_task+0x392>
10003092:	4ab0      	ldr	r2, [pc, #704]	; (10003354 <tud_task+0x35c>)
10003094:	7cdb      	ldrb	r3, [r3, #19]
10003096:	2a00      	cmp	r2, #0
10003098:	d100      	bne.n	1000309c <tud_task+0xa4>
1000309a:	e134      	b.n	10003306 <tud_task+0x30e>
1000309c:	4aae      	ldr	r2, [pc, #696]	; (10003358 <tud_task+0x360>)
1000309e:	7812      	ldrb	r2, [r2, #0]
100030a0:	4293      	cmp	r3, r2
100030a2:	d300      	bcc.n	100030a6 <tud_task+0xae>
100030a4:	e12d      	b.n	10003302 <tud_task+0x30a>
100030a6:	00da      	lsls	r2, r3, #3
100030a8:	1ad3      	subs	r3, r2, r3
100030aa:	4aac      	ldr	r2, [pc, #688]	; (1000335c <tud_task+0x364>)
100030ac:	009b      	lsls	r3, r3, #2
100030ae:	6812      	ldr	r2, [r2, #0]
100030b0:	18d3      	adds	r3, r2, r3
100030b2:	2b00      	cmp	r3, #0
100030b4:	d100      	bne.n	100030b8 <tud_task+0xc0>
100030b6:	e11d      	b.n	100032f4 <tud_task+0x2fc>
100030b8:	695d      	ldr	r5, [r3, #20]
100030ba:	e127      	b.n	1000330c <tud_task+0x314>
100030bc:	2201      	movs	r2, #1
100030be:	4ea4      	ldr	r6, [pc, #656]	; (10003350 <tud_task+0x358>)
100030c0:	2000      	movs	r0, #0
100030c2:	7833      	ldrb	r3, [r6, #0]
100030c4:	4313      	orrs	r3, r2
100030c6:	7033      	strb	r3, [r6, #0]
100030c8:	7823      	ldrb	r3, [r4, #0]
100030ca:	469a      	mov	sl, r3
100030cc:	f000 fdbc 	bl	10003c48 <usbd_control_set_complete_callback>
100030d0:	7927      	ldrb	r7, [r4, #4]
100030d2:	067b      	lsls	r3, r7, #25
100030d4:	0f9b      	lsrs	r3, r3, #30
100030d6:	2b03      	cmp	r3, #3
100030d8:	d100      	bne.n	100030dc <tud_task+0xe4>
100030da:	e12b      	b.n	10003334 <tud_task+0x33c>
100030dc:	2360      	movs	r3, #96	; 0x60
100030de:	403b      	ands	r3, r7
100030e0:	2b40      	cmp	r3, #64	; 0x40
100030e2:	d100      	bne.n	100030e6 <tud_task+0xee>
100030e4:	e157      	b.n	10003396 <tud_task+0x39e>
100030e6:	06ff      	lsls	r7, r7, #27
100030e8:	0eff      	lsrs	r7, r7, #27
100030ea:	2f01      	cmp	r7, #1
100030ec:	d100      	bne.n	100030f0 <tud_task+0xf8>
100030ee:	e163      	b.n	100033b8 <tud_task+0x3c0>
100030f0:	2f00      	cmp	r7, #0
100030f2:	d100      	bne.n	100030f6 <tud_task+0xfe>
100030f4:	e18e      	b.n	10003414 <tud_task+0x41c>
100030f6:	2f02      	cmp	r7, #2
100030f8:	d000      	beq.n	100030fc <tud_task+0x104>
100030fa:	e11b      	b.n	10003334 <tud_task+0x33c>
100030fc:	227f      	movs	r2, #127	; 0x7f
100030fe:	7a21      	ldrb	r1, [r4, #8]
10003100:	400a      	ands	r2, r1
10003102:	4690      	mov	r8, r2
10003104:	2a08      	cmp	r2, #8
10003106:	d900      	bls.n	1000310a <tud_task+0x112>
10003108:	e114      	b.n	10003334 <tud_task+0x33c>
1000310a:	09ca      	lsrs	r2, r1, #7
1000310c:	4691      	mov	r9, r2
1000310e:	2b00      	cmp	r3, #0
10003110:	d100      	bne.n	10003114 <tud_task+0x11c>
10003112:	e193      	b.n	1000343c <tud_task+0x444>
10003114:	4643      	mov	r3, r8
10003116:	005b      	lsls	r3, r3, #1
10003118:	2500      	movs	r5, #0
1000311a:	4698      	mov	r8, r3
1000311c:	4446      	add	r6, r8
1000311e:	4a8d      	ldr	r2, [pc, #564]	; (10003354 <tud_task+0x35c>)
10003120:	444e      	add	r6, r9
10003122:	7cf3      	ldrb	r3, [r6, #19]
10003124:	2a00      	cmp	r2, #0
10003126:	d100      	bne.n	1000312a <tud_task+0x132>
10003128:	e22b      	b.n	10003582 <tud_task+0x58a>
1000312a:	4a8b      	ldr	r2, [pc, #556]	; (10003358 <tud_task+0x360>)
1000312c:	7812      	ldrb	r2, [r2, #0]
1000312e:	4293      	cmp	r3, r2
10003130:	d300      	bcc.n	10003134 <tud_task+0x13c>
10003132:	e224      	b.n	1000357e <tud_task+0x586>
10003134:	4a89      	ldr	r2, [pc, #548]	; (1000335c <tud_task+0x364>)
10003136:	00de      	lsls	r6, r3, #3
10003138:	1af3      	subs	r3, r6, r3
1000313a:	6816      	ldr	r6, [r2, #0]
1000313c:	009b      	lsls	r3, r3, #2
1000313e:	18f6      	adds	r6, r6, r3
10003140:	2e00      	cmp	r6, #0
10003142:	d100      	bne.n	10003146 <tud_task+0x14e>
10003144:	e212      	b.n	1000356c <tud_task+0x574>
10003146:	6930      	ldr	r0, [r6, #16]
10003148:	f000 fd7e 	bl	10003c48 <usbd_control_set_complete_callback>
1000314c:	68f3      	ldr	r3, [r6, #12]
1000314e:	a908      	add	r1, sp, #32
10003150:	4650      	mov	r0, sl
10003152:	4798      	blx	r3
10003154:	2800      	cmp	r0, #0
10003156:	d100      	bne.n	1000315a <tud_task+0x162>
10003158:	e208      	b.n	1000356c <tud_task+0x574>
1000315a:	2260      	movs	r2, #96	; 0x60
1000315c:	7923      	ldrb	r3, [r4, #4]
1000315e:	421a      	tst	r2, r3
10003160:	d000      	beq.n	10003164 <tud_task+0x16c>
10003162:	e758      	b.n	10003016 <tud_task+0x1e>
10003164:	2000      	movs	r0, #0
10003166:	f000 fd6f 	bl	10003c48 <usbd_control_set_complete_callback>
1000316a:	e754      	b.n	10003016 <tud_task+0x1e>
1000316c:	4b7c      	ldr	r3, [pc, #496]	; (10003360 <tud_task+0x368>)
1000316e:	2b00      	cmp	r3, #0
10003170:	d100      	bne.n	10003174 <tud_task+0x17c>
10003172:	e750      	b.n	10003016 <tud_task+0x1e>
10003174:	e000      	b.n	10003178 <tud_task+0x180>
10003176:	bf00      	nop
10003178:	e74d      	b.n	10003016 <tud_task+0x1e>
1000317a:	4b7a      	ldr	r3, [pc, #488]	; (10003364 <tud_task+0x36c>)
1000317c:	2b00      	cmp	r3, #0
1000317e:	d100      	bne.n	10003182 <tud_task+0x18a>
10003180:	e749      	b.n	10003016 <tud_task+0x1e>
10003182:	4b73      	ldr	r3, [pc, #460]	; (10003350 <tud_task+0x358>)
10003184:	7818      	ldrb	r0, [r3, #0]
10003186:	0700      	lsls	r0, r0, #28
10003188:	0fc0      	lsrs	r0, r0, #31
1000318a:	e000      	b.n	1000318e <tud_task+0x196>
1000318c:	bf00      	nop
1000318e:	e742      	b.n	10003016 <tud_task+0x1e>
10003190:	4f71      	ldr	r7, [pc, #452]	; (10003358 <tud_task+0x360>)
10003192:	4b70      	ldr	r3, [pc, #448]	; (10003354 <tud_task+0x35c>)
10003194:	783a      	ldrb	r2, [r7, #0]
10003196:	2500      	movs	r5, #0
10003198:	2b00      	cmp	r3, #0
1000319a:	d100      	bne.n	1000319e <tud_task+0x1a6>
1000319c:	e0a4      	b.n	100032e8 <tud_task+0x2f0>
1000319e:	4e6f      	ldr	r6, [pc, #444]	; (1000335c <tud_task+0x364>)
100031a0:	e007      	b.n	100031b2 <tud_task+0x1ba>
100031a2:	42aa      	cmp	r2, r5
100031a4:	d000      	beq.n	100031a8 <tud_task+0x1b0>
100031a6:	e0a2      	b.n	100032ee <tud_task+0x2f6>
100031a8:	3501      	adds	r5, #1
100031aa:	b2ed      	uxtb	r5, r5
100031ac:	42aa      	cmp	r2, r5
100031ae:	da00      	bge.n	100031b2 <tud_task+0x1ba>
100031b0:	e731      	b.n	10003016 <tud_task+0x1e>
100031b2:	42aa      	cmp	r2, r5
100031b4:	d9f5      	bls.n	100031a2 <tud_task+0x1aa>
100031b6:	6831      	ldr	r1, [r6, #0]
100031b8:	00eb      	lsls	r3, r5, #3
100031ba:	468c      	mov	ip, r1
100031bc:	1b5b      	subs	r3, r3, r5
100031be:	009b      	lsls	r3, r3, #2
100031c0:	4463      	add	r3, ip
100031c2:	699b      	ldr	r3, [r3, #24]
100031c4:	2b00      	cmp	r3, #0
100031c6:	d0ef      	beq.n	100031a8 <tud_task+0x1b0>
100031c8:	7820      	ldrb	r0, [r4, #0]
100031ca:	4798      	blx	r3
100031cc:	783a      	ldrb	r2, [r7, #0]
100031ce:	e7eb      	b.n	100031a8 <tud_task+0x1b0>
100031d0:	4d5f      	ldr	r5, [pc, #380]	; (10003350 <tud_task+0x358>)
100031d2:	2237      	movs	r2, #55	; 0x37
100031d4:	2100      	movs	r1, #0
100031d6:	0028      	movs	r0, r5
100031d8:	7826      	ldrb	r6, [r4, #0]
100031da:	f7fe ffb5 	bl	10002148 <__wrap_memset>
100031de:	1ce8      	adds	r0, r5, #3
100031e0:	2210      	movs	r2, #16
100031e2:	21ff      	movs	r1, #255	; 0xff
100031e4:	f7fe ffb0 	bl	10002148 <__wrap_memset>
100031e8:	0028      	movs	r0, r5
100031ea:	2212      	movs	r2, #18
100031ec:	21ff      	movs	r1, #255	; 0xff
100031ee:	3013      	adds	r0, #19
100031f0:	f7fe ffaa 	bl	10002148 <__wrap_memset>
100031f4:	f000 fd1e 	bl	10003c34 <usbd_control_reset>
100031f8:	4f57      	ldr	r7, [pc, #348]	; (10003358 <tud_task+0x360>)
100031fa:	4a56      	ldr	r2, [pc, #344]	; (10003354 <tud_task+0x35c>)
100031fc:	783b      	ldrb	r3, [r7, #0]
100031fe:	2500      	movs	r5, #0
10003200:	2a00      	cmp	r2, #0
10003202:	d068      	beq.n	100032d6 <tud_task+0x2de>
10003204:	4a55      	ldr	r2, [pc, #340]	; (1000335c <tud_task+0x364>)
10003206:	4690      	mov	r8, r2
10003208:	4a57      	ldr	r2, [pc, #348]	; (10003368 <tud_task+0x370>)
1000320a:	4691      	mov	r9, r2
1000320c:	e00e      	b.n	1000322c <tud_task+0x234>
1000320e:	4642      	mov	r2, r8
10003210:	6812      	ldr	r2, [r2, #0]
10003212:	00eb      	lsls	r3, r5, #3
10003214:	4694      	mov	ip, r2
10003216:	1b5b      	subs	r3, r3, r5
10003218:	009b      	lsls	r3, r3, #2
1000321a:	4463      	add	r3, ip
1000321c:	685b      	ldr	r3, [r3, #4]
1000321e:	0030      	movs	r0, r6
10003220:	4798      	blx	r3
10003222:	3501      	adds	r5, #1
10003224:	783b      	ldrb	r3, [r7, #0]
10003226:	b2ed      	uxtb	r5, r5
10003228:	42ab      	cmp	r3, r5
1000322a:	db0a      	blt.n	10003242 <tud_task+0x24a>
1000322c:	42ab      	cmp	r3, r5
1000322e:	d8ee      	bhi.n	1000320e <tud_task+0x216>
10003230:	d157      	bne.n	100032e2 <tud_task+0x2ea>
10003232:	464b      	mov	r3, r9
10003234:	0030      	movs	r0, r6
10003236:	4798      	blx	r3
10003238:	3501      	adds	r5, #1
1000323a:	783b      	ldrb	r3, [r7, #0]
1000323c:	b2ed      	uxtb	r5, r5
1000323e:	42ab      	cmp	r3, r5
10003240:	daf4      	bge.n	1000322c <tud_task+0x234>
10003242:	4b4a      	ldr	r3, [pc, #296]	; (1000336c <tud_task+0x374>)
10003244:	2b00      	cmp	r3, #0
10003246:	d100      	bne.n	1000324a <tud_task+0x252>
10003248:	e6e5      	b.n	10003016 <tud_task+0x1e>
1000324a:	e000      	b.n	1000324e <tud_task+0x256>
1000324c:	bf00      	nop
1000324e:	e6e2      	b.n	10003016 <tud_task+0x1e>
10003250:	4e3f      	ldr	r6, [pc, #252]	; (10003350 <tud_task+0x358>)
10003252:	7823      	ldrb	r3, [r4, #0]
10003254:	2237      	movs	r2, #55	; 0x37
10003256:	2100      	movs	r1, #0
10003258:	0030      	movs	r0, r6
1000325a:	4698      	mov	r8, r3
1000325c:	f7fe ff74 	bl	10002148 <__wrap_memset>
10003260:	2210      	movs	r2, #16
10003262:	21ff      	movs	r1, #255	; 0xff
10003264:	1cf0      	adds	r0, r6, #3
10003266:	f7fe ff6f 	bl	10002148 <__wrap_memset>
1000326a:	0030      	movs	r0, r6
1000326c:	2212      	movs	r2, #18
1000326e:	21ff      	movs	r1, #255	; 0xff
10003270:	3013      	adds	r0, #19
10003272:	f7fe ff69 	bl	10002148 <__wrap_memset>
10003276:	f000 fcdd 	bl	10003c34 <usbd_control_reset>
1000327a:	4f37      	ldr	r7, [pc, #220]	; (10003358 <tud_task+0x360>)
1000327c:	4a35      	ldr	r2, [pc, #212]	; (10003354 <tud_task+0x35c>)
1000327e:	783b      	ldrb	r3, [r7, #0]
10003280:	2500      	movs	r5, #0
10003282:	2a00      	cmp	r2, #0
10003284:	d100      	bne.n	10003288 <tud_task+0x290>
10003286:	e077      	b.n	10003378 <tud_task+0x380>
10003288:	4a34      	ldr	r2, [pc, #208]	; (1000335c <tud_task+0x364>)
1000328a:	4691      	mov	r9, r2
1000328c:	4a36      	ldr	r2, [pc, #216]	; (10003368 <tud_task+0x370>)
1000328e:	4692      	mov	sl, r2
10003290:	0032      	movs	r2, r6
10003292:	003e      	movs	r6, r7
10003294:	4647      	mov	r7, r8
10003296:	4690      	mov	r8, r2
10003298:	e00e      	b.n	100032b8 <tud_task+0x2c0>
1000329a:	464a      	mov	r2, r9
1000329c:	6812      	ldr	r2, [r2, #0]
1000329e:	00eb      	lsls	r3, r5, #3
100032a0:	4694      	mov	ip, r2
100032a2:	1b5b      	subs	r3, r3, r5
100032a4:	009b      	lsls	r3, r3, #2
100032a6:	4463      	add	r3, ip
100032a8:	685b      	ldr	r3, [r3, #4]
100032aa:	0038      	movs	r0, r7
100032ac:	4798      	blx	r3
100032ae:	3501      	adds	r5, #1
100032b0:	7833      	ldrb	r3, [r6, #0]
100032b2:	b2ed      	uxtb	r5, r5
100032b4:	42ab      	cmp	r3, r5
100032b6:	db0a      	blt.n	100032ce <tud_task+0x2d6>
100032b8:	42ab      	cmp	r3, r5
100032ba:	d8ee      	bhi.n	1000329a <tud_task+0x2a2>
100032bc:	d111      	bne.n	100032e2 <tud_task+0x2ea>
100032be:	4653      	mov	r3, sl
100032c0:	0038      	movs	r0, r7
100032c2:	4798      	blx	r3
100032c4:	3501      	adds	r5, #1
100032c6:	7833      	ldrb	r3, [r6, #0]
100032c8:	b2ed      	uxtb	r5, r5
100032ca:	42ab      	cmp	r3, r5
100032cc:	daf4      	bge.n	100032b8 <tud_task+0x2c0>
100032ce:	4646      	mov	r6, r8
100032d0:	7923      	ldrb	r3, [r4, #4]
100032d2:	70b3      	strb	r3, [r6, #2]
100032d4:	e69f      	b.n	10003016 <tud_task+0x1e>
100032d6:	0030      	movs	r0, r6
100032d8:	f000 fe84 	bl	10003fe4 <cdcd_reset>
100032dc:	783b      	ldrb	r3, [r7, #0]
100032de:	2b00      	cmp	r3, #0
100032e0:	d0af      	beq.n	10003242 <tud_task+0x24a>
100032e2:	2300      	movs	r3, #0
100032e4:	685b      	ldr	r3, [r3, #4]
100032e6:	deff      	udf	#255	; 0xff
100032e8:	2a00      	cmp	r2, #0
100032ea:	d100      	bne.n	100032ee <tud_task+0x2f6>
100032ec:	e693      	b.n	10003016 <tud_task+0x1e>
100032ee:	2300      	movs	r3, #0
100032f0:	699b      	ldr	r3, [r3, #24]
100032f2:	deff      	udf	#255	; 0xff
100032f4:	b00b      	add	sp, #44	; 0x2c
100032f6:	bc3c      	pop	{r2, r3, r4, r5}
100032f8:	4690      	mov	r8, r2
100032fa:	4699      	mov	r9, r3
100032fc:	46a2      	mov	sl, r4
100032fe:	46ab      	mov	fp, r5
10003300:	bdf0      	pop	{r4, r5, r6, r7, pc}
10003302:	1a9b      	subs	r3, r3, r2
10003304:	b2db      	uxtb	r3, r3
10003306:	2b00      	cmp	r3, #0
10003308:	d1f4      	bne.n	100032f4 <tud_task+0x2fc>
1000330a:	4d19      	ldr	r5, [pc, #100]	; (10003370 <tud_task+0x378>)
1000330c:	7962      	ldrb	r2, [r4, #5]
1000330e:	7820      	ldrb	r0, [r4, #0]
10003310:	68a3      	ldr	r3, [r4, #8]
10003312:	47a8      	blx	r5
10003314:	e67f      	b.n	10003016 <tud_task+0x1e>
10003316:	4b17      	ldr	r3, [pc, #92]	; (10003374 <tud_task+0x37c>)
10003318:	2b00      	cmp	r3, #0
1000331a:	d00b      	beq.n	10003334 <tud_task+0x33c>
1000331c:	e000      	b.n	10003320 <tud_task+0x328>
1000331e:	bf00      	nop
10003320:	1e02      	subs	r2, r0, #0
10003322:	d007      	beq.n	10003334 <tud_task+0x33c>
10003324:	7813      	ldrb	r3, [r2, #0]
10003326:	a908      	add	r1, sp, #32
10003328:	4650      	mov	r0, sl
1000332a:	f000 fc2d 	bl	10003b88 <tud_control_xfer>
1000332e:	2800      	cmp	r0, #0
10003330:	d000      	beq.n	10003334 <tud_task+0x33c>
10003332:	e670      	b.n	10003016 <tud_task+0x1e>
10003334:	7820      	ldrb	r0, [r4, #0]
10003336:	2100      	movs	r1, #0
10003338:	f7ff fbda 	bl	10002af0 <dcd_edpt_stall>
1000333c:	7820      	ldrb	r0, [r4, #0]
1000333e:	2180      	movs	r1, #128	; 0x80
10003340:	f7ff fbd6 	bl	10002af0 <dcd_edpt_stall>
10003344:	e667      	b.n	10003016 <tud_task+0x1e>
10003346:	46c0      	nop			; (mov r8, r8)
10003348:	20000f14 	.word	0x20000f14
1000334c:	10005c28 	.word	0x10005c28
10003350:	20000ed8 	.word	0x20000ed8
10003354:	00000000 	.word	0x00000000
10003358:	2000163c 	.word	0x2000163c
1000335c:	20000ba8 	.word	0x20000ba8
	...
10003368:	10003fe5 	.word	0x10003fe5
1000336c:	00000000 	.word	0x00000000
10003370:	100041b9 	.word	0x100041b9
10003374:	00000000 	.word	0x00000000
10003378:	4640      	mov	r0, r8
1000337a:	f000 fe33 	bl	10003fe4 <cdcd_reset>
1000337e:	783b      	ldrb	r3, [r7, #0]
10003380:	2b00      	cmp	r3, #0
10003382:	d0a5      	beq.n	100032d0 <tud_task+0x2d8>
10003384:	2300      	movs	r3, #0
10003386:	685b      	ldr	r3, [r3, #4]
10003388:	deff      	udf	#255	; 0xff
1000338a:	7962      	ldrb	r2, [r4, #5]
1000338c:	7820      	ldrb	r0, [r4, #0]
1000338e:	68a3      	ldr	r3, [r4, #8]
10003390:	f000 fc6e 	bl	10003c70 <usbd_control_xfer_cb>
10003394:	e63f      	b.n	10003016 <tud_task+0x1e>
10003396:	4bc7      	ldr	r3, [pc, #796]	; (100036b4 <tud_task+0x6bc>)
10003398:	2b00      	cmp	r3, #0
1000339a:	d0cb      	beq.n	10003334 <tud_task+0x33c>
1000339c:	48c6      	ldr	r0, [pc, #792]	; (100036b8 <tud_task+0x6c0>)
1000339e:	2800      	cmp	r0, #0
100033a0:	d001      	beq.n	100033a6 <tud_task+0x3ae>
100033a2:	f000 fc51 	bl	10003c48 <usbd_control_set_complete_callback>
100033a6:	a908      	add	r1, sp, #32
100033a8:	4650      	mov	r0, sl
100033aa:	e000      	b.n	100033ae <tud_task+0x3b6>
100033ac:	bf00      	nop
100033ae:	0005      	movs	r5, r0
100033b0:	2d00      	cmp	r5, #0
100033b2:	d000      	beq.n	100033b6 <tud_task+0x3be>
100033b4:	e62f      	b.n	10003016 <tud_task+0x1e>
100033b6:	e7bd      	b.n	10003334 <tud_task+0x33c>
100033b8:	7a23      	ldrb	r3, [r4, #8]
100033ba:	2b0f      	cmp	r3, #15
100033bc:	d8ba      	bhi.n	10003334 <tud_task+0x33c>
100033be:	4abf      	ldr	r2, [pc, #764]	; (100036bc <tud_task+0x6c4>)
100033c0:	18f6      	adds	r6, r6, r3
100033c2:	78f3      	ldrb	r3, [r6, #3]
100033c4:	2a00      	cmp	r2, #0
100033c6:	d033      	beq.n	10003430 <tud_task+0x438>
100033c8:	4abd      	ldr	r2, [pc, #756]	; (100036c0 <tud_task+0x6c8>)
100033ca:	7812      	ldrb	r2, [r2, #0]
100033cc:	4293      	cmp	r3, r2
100033ce:	d22d      	bcs.n	1000342c <tud_task+0x434>
100033d0:	4abc      	ldr	r2, [pc, #752]	; (100036c4 <tud_task+0x6cc>)
100033d2:	00dd      	lsls	r5, r3, #3
100033d4:	1aeb      	subs	r3, r5, r3
100033d6:	6815      	ldr	r5, [r2, #0]
100033d8:	009b      	lsls	r3, r3, #2
100033da:	18ed      	adds	r5, r5, r3
100033dc:	2d00      	cmp	r5, #0
100033de:	d0a9      	beq.n	10003334 <tud_task+0x33c>
100033e0:	6928      	ldr	r0, [r5, #16]
100033e2:	f000 fc31 	bl	10003c48 <usbd_control_set_complete_callback>
100033e6:	68eb      	ldr	r3, [r5, #12]
100033e8:	a908      	add	r1, sp, #32
100033ea:	4650      	mov	r0, sl
100033ec:	4798      	blx	r3
100033ee:	2800      	cmp	r0, #0
100033f0:	d000      	beq.n	100033f4 <tud_task+0x3fc>
100033f2:	e610      	b.n	10003016 <tud_task+0x1e>
100033f4:	2360      	movs	r3, #96	; 0x60
100033f6:	7922      	ldrb	r2, [r4, #4]
100033f8:	4013      	ands	r3, r2
100033fa:	d19b      	bne.n	10003334 <tud_task+0x33c>
100033fc:	7962      	ldrb	r2, [r4, #5]
100033fe:	2a0a      	cmp	r2, #10
10003400:	d198      	bne.n	10003334 <tud_task+0x33c>
10003402:	aa06      	add	r2, sp, #24
10003404:	3202      	adds	r2, #2
10003406:	7013      	strb	r3, [r2, #0]
10003408:	a908      	add	r1, sp, #32
1000340a:	3301      	adds	r3, #1
1000340c:	4650      	mov	r0, sl
1000340e:	f000 fbbb 	bl	10003b88 <tud_control_xfer>
10003412:	e600      	b.n	10003016 <tud_task+0x1e>
10003414:	2b20      	cmp	r3, #32
10003416:	d100      	bne.n	1000341a <tud_task+0x422>
10003418:	e0b8      	b.n	1000358c <tud_task+0x594>
1000341a:	2b00      	cmp	r3, #0
1000341c:	d18a      	bne.n	10003334 <tud_task+0x33c>
1000341e:	7963      	ldrb	r3, [r4, #5]
10003420:	2b09      	cmp	r3, #9
10003422:	d887      	bhi.n	10003334 <tud_task+0x33c>
10003424:	4aa8      	ldr	r2, [pc, #672]	; (100036c8 <tud_task+0x6d0>)
10003426:	009b      	lsls	r3, r3, #2
10003428:	58d3      	ldr	r3, [r2, r3]
1000342a:	469f      	mov	pc, r3
1000342c:	1a9b      	subs	r3, r3, r2
1000342e:	b2db      	uxtb	r3, r3
10003430:	2b00      	cmp	r3, #0
10003432:	d000      	beq.n	10003436 <tud_task+0x43e>
10003434:	e77e      	b.n	10003334 <tud_task+0x33c>
10003436:	48a5      	ldr	r0, [pc, #660]	; (100036cc <tud_task+0x6d4>)
10003438:	4da5      	ldr	r5, [pc, #660]	; (100036d0 <tud_task+0x6d8>)
1000343a:	e7d2      	b.n	100033e2 <tud_task+0x3ea>
1000343c:	7963      	ldrb	r3, [r4, #5]
1000343e:	9300      	str	r3, [sp, #0]
10003440:	2b01      	cmp	r3, #1
10003442:	d100      	bne.n	10003446 <tud_task+0x44e>
10003444:	e0db      	b.n	100035fe <tud_task+0x606>
10003446:	2b00      	cmp	r3, #0
10003448:	d100      	bne.n	1000344c <tud_task+0x454>
1000344a:	e0c6      	b.n	100035da <tud_task+0x5e2>
1000344c:	2b03      	cmp	r3, #3
1000344e:	d000      	beq.n	10003452 <tud_task+0x45a>
10003450:	e770      	b.n	10003334 <tud_task+0x33c>
10003452:	88e3      	ldrh	r3, [r4, #6]
10003454:	2b00      	cmp	r3, #0
10003456:	d100      	bne.n	1000345a <tud_task+0x462>
10003458:	e16a      	b.n	10003730 <tud_task+0x738>
1000345a:	4643      	mov	r3, r8
1000345c:	005b      	lsls	r3, r3, #1
1000345e:	4698      	mov	r8, r3
10003460:	a908      	add	r1, sp, #32
10003462:	4650      	mov	r0, sl
10003464:	f000 fb78 	bl	10003b58 <tud_control_status>
10003468:	e658      	b.n	1000311c <tud_task+0x124>
1000346a:	79a3      	ldrb	r3, [r4, #6]
1000346c:	9304      	str	r3, [sp, #16]
1000346e:	001a      	movs	r2, r3
10003470:	7873      	ldrb	r3, [r6, #1]
10003472:	2b00      	cmp	r3, #0
10003474:	d102      	bne.n	1000347c <tud_task+0x484>
10003476:	2a00      	cmp	r2, #0
10003478:	d000      	beq.n	1000347c <tud_task+0x484>
1000347a:	e0d5      	b.n	10003628 <tud_task+0x630>
1000347c:	466b      	mov	r3, sp
1000347e:	7c1b      	ldrb	r3, [r3, #16]
10003480:	a908      	add	r1, sp, #32
10003482:	4650      	mov	r0, sl
10003484:	7073      	strb	r3, [r6, #1]
10003486:	f000 fb67 	bl	10003b58 <tud_control_status>
1000348a:	e5c4      	b.n	10003016 <tud_task+0x1e>
1000348c:	7873      	ldrb	r3, [r6, #1]
1000348e:	aa06      	add	r2, sp, #24
10003490:	3202      	adds	r2, #2
10003492:	7013      	strb	r3, [r2, #0]
10003494:	a908      	add	r1, sp, #32
10003496:	2301      	movs	r3, #1
10003498:	4650      	mov	r0, sl
1000349a:	f000 fb75 	bl	10003b88 <tud_control_xfer>
1000349e:	e5ba      	b.n	10003016 <tud_task+0x1e>
100034a0:	88e3      	ldrh	r3, [r4, #6]
100034a2:	b2d8      	uxtb	r0, r3
100034a4:	0a1b      	lsrs	r3, r3, #8
100034a6:	2b0f      	cmp	r3, #15
100034a8:	d900      	bls.n	100034ac <tud_task+0x4b4>
100034aa:	e743      	b.n	10003334 <tud_task+0x33c>
100034ac:	4a89      	ldr	r2, [pc, #548]	; (100036d4 <tud_task+0x6dc>)
100034ae:	009b      	lsls	r3, r3, #2
100034b0:	58d3      	ldr	r3, [r2, r3]
100034b2:	469f      	mov	pc, r3
100034b4:	a808      	add	r0, sp, #32
100034b6:	f000 fbcd 	bl	10003c54 <usbd_control_set_request>
100034ba:	79a1      	ldrb	r1, [r4, #6]
100034bc:	4650      	mov	r0, sl
100034be:	f7ff f9c7 	bl	10002850 <dcd_set_address>
100034c2:	2202      	movs	r2, #2
100034c4:	7833      	ldrb	r3, [r6, #0]
100034c6:	4313      	orrs	r3, r2
100034c8:	7033      	strb	r3, [r6, #0]
100034ca:	e5a4      	b.n	10003016 <tud_task+0x1e>
100034cc:	88e3      	ldrh	r3, [r4, #6]
100034ce:	2b01      	cmp	r3, #1
100034d0:	d000      	beq.n	100034d4 <tud_task+0x4dc>
100034d2:	e72f      	b.n	10003334 <tud_task+0x33c>
100034d4:	2208      	movs	r2, #8
100034d6:	7833      	ldrb	r3, [r6, #0]
100034d8:	a908      	add	r1, sp, #32
100034da:	4313      	orrs	r3, r2
100034dc:	4650      	mov	r0, sl
100034de:	7033      	strb	r3, [r6, #0]
100034e0:	f000 fb3a 	bl	10003b58 <tud_control_status>
100034e4:	e597      	b.n	10003016 <tud_task+0x1e>
100034e6:	88e3      	ldrh	r3, [r4, #6]
100034e8:	2b01      	cmp	r3, #1
100034ea:	d000      	beq.n	100034ee <tud_task+0x4f6>
100034ec:	e722      	b.n	10003334 <tud_task+0x33c>
100034ee:	2208      	movs	r2, #8
100034f0:	7833      	ldrb	r3, [r6, #0]
100034f2:	a908      	add	r1, sp, #32
100034f4:	4393      	bics	r3, r2
100034f6:	4650      	mov	r0, sl
100034f8:	7033      	strb	r3, [r6, #0]
100034fa:	f000 fb2d 	bl	10003b58 <tud_control_status>
100034fe:	e58a      	b.n	10003016 <tud_task+0x1e>
10003500:	7833      	ldrb	r3, [r6, #0]
10003502:	aa06      	add	r2, sp, #24
10003504:	0699      	lsls	r1, r3, #26
10003506:	071b      	lsls	r3, r3, #28
10003508:	0fdb      	lsrs	r3, r3, #31
1000350a:	0fc9      	lsrs	r1, r1, #31
1000350c:	005b      	lsls	r3, r3, #1
1000350e:	430b      	orrs	r3, r1
10003510:	3202      	adds	r2, #2
10003512:	8013      	strh	r3, [r2, #0]
10003514:	a908      	add	r1, sp, #32
10003516:	2302      	movs	r3, #2
10003518:	4650      	mov	r0, sl
1000351a:	f000 fb35 	bl	10003b88 <tud_control_xfer>
1000351e:	e57a      	b.n	10003016 <tud_task+0x1e>
10003520:	8921      	ldrh	r1, [r4, #8]
10003522:	f7ff f8c7 	bl	100026b4 <tud_descriptor_string_cb>
10003526:	1e02      	subs	r2, r0, #0
10003528:	d000      	beq.n	1000352c <tud_task+0x534>
1000352a:	e6fb      	b.n	10003324 <tud_task+0x32c>
1000352c:	e702      	b.n	10003334 <tud_task+0x33c>
1000352e:	f7ff f8bd 	bl	100026ac <tud_descriptor_configuration_cb>
10003532:	1e05      	subs	r5, r0, #0
10003534:	d100      	bne.n	10003538 <tud_task+0x540>
10003536:	e6fd      	b.n	10003334 <tud_task+0x33c>
10003538:	ab06      	add	r3, sp, #24
1000353a:	1c9e      	adds	r6, r3, #2
1000353c:	1c81      	adds	r1, r0, #2
1000353e:	2202      	movs	r2, #2
10003540:	0030      	movs	r0, r6
10003542:	f7fe fe07 	bl	10002154 <__wrap___aeabi_memcpy>
10003546:	8833      	ldrh	r3, [r6, #0]
10003548:	002a      	movs	r2, r5
1000354a:	a908      	add	r1, sp, #32
1000354c:	4650      	mov	r0, sl
1000354e:	f000 fb1b 	bl	10003b88 <tud_control_xfer>
10003552:	2800      	cmp	r0, #0
10003554:	d000      	beq.n	10003558 <tud_task+0x560>
10003556:	e55e      	b.n	10003016 <tud_task+0x1e>
10003558:	e6ec      	b.n	10003334 <tud_task+0x33c>
1000355a:	f7ff f8a3 	bl	100026a4 <tud_descriptor_device_cb>
1000355e:	2312      	movs	r3, #18
10003560:	0002      	movs	r2, r0
10003562:	a908      	add	r1, sp, #32
10003564:	4650      	mov	r0, sl
10003566:	f000 fb0f 	bl	10003b88 <tud_control_xfer>
1000356a:	e7f2      	b.n	10003552 <tud_task+0x55a>
1000356c:	2260      	movs	r2, #96	; 0x60
1000356e:	7923      	ldrb	r3, [r4, #4]
10003570:	421a      	tst	r2, r3
10003572:	d000      	beq.n	10003576 <tud_task+0x57e>
10003574:	e71c      	b.n	100033b0 <tud_task+0x3b8>
10003576:	2000      	movs	r0, #0
10003578:	f000 fb66 	bl	10003c48 <usbd_control_set_complete_callback>
1000357c:	e718      	b.n	100033b0 <tud_task+0x3b8>
1000357e:	1a9b      	subs	r3, r3, r2
10003580:	b2db      	uxtb	r3, r3
10003582:	2b00      	cmp	r3, #0
10003584:	d1f2      	bne.n	1000356c <tud_task+0x574>
10003586:	4851      	ldr	r0, [pc, #324]	; (100036cc <tud_task+0x6d4>)
10003588:	4e51      	ldr	r6, [pc, #324]	; (100036d0 <tud_task+0x6d8>)
1000358a:	e5dd      	b.n	10003148 <tud_task+0x150>
1000358c:	7a23      	ldrb	r3, [r4, #8]
1000358e:	2b0f      	cmp	r3, #15
10003590:	d900      	bls.n	10003594 <tud_task+0x59c>
10003592:	e6cf      	b.n	10003334 <tud_task+0x33c>
10003594:	4a49      	ldr	r2, [pc, #292]	; (100036bc <tud_task+0x6c4>)
10003596:	18f6      	adds	r6, r6, r3
10003598:	78f3      	ldrb	r3, [r6, #3]
1000359a:	2a00      	cmp	r2, #0
1000359c:	d017      	beq.n	100035ce <tud_task+0x5d6>
1000359e:	4a48      	ldr	r2, [pc, #288]	; (100036c0 <tud_task+0x6c8>)
100035a0:	7812      	ldrb	r2, [r2, #0]
100035a2:	4293      	cmp	r3, r2
100035a4:	d211      	bcs.n	100035ca <tud_task+0x5d2>
100035a6:	4a47      	ldr	r2, [pc, #284]	; (100036c4 <tud_task+0x6cc>)
100035a8:	00dd      	lsls	r5, r3, #3
100035aa:	1aeb      	subs	r3, r5, r3
100035ac:	6815      	ldr	r5, [r2, #0]
100035ae:	009b      	lsls	r3, r3, #2
100035b0:	18ed      	adds	r5, r5, r3
100035b2:	2d00      	cmp	r5, #0
100035b4:	d100      	bne.n	100035b8 <tud_task+0x5c0>
100035b6:	e6bd      	b.n	10003334 <tud_task+0x33c>
100035b8:	6928      	ldr	r0, [r5, #16]
100035ba:	f000 fb45 	bl	10003c48 <usbd_control_set_complete_callback>
100035be:	68eb      	ldr	r3, [r5, #12]
100035c0:	a908      	add	r1, sp, #32
100035c2:	4650      	mov	r0, sl
100035c4:	4798      	blx	r3
100035c6:	0005      	movs	r5, r0
100035c8:	e6f2      	b.n	100033b0 <tud_task+0x3b8>
100035ca:	1a9b      	subs	r3, r3, r2
100035cc:	b2db      	uxtb	r3, r3
100035ce:	2b00      	cmp	r3, #0
100035d0:	d000      	beq.n	100035d4 <tud_task+0x5dc>
100035d2:	e6af      	b.n	10003334 <tud_task+0x33c>
100035d4:	483d      	ldr	r0, [pc, #244]	; (100036cc <tud_task+0x6d4>)
100035d6:	4d3e      	ldr	r5, [pc, #248]	; (100036d0 <tud_task+0x6d8>)
100035d8:	e7ef      	b.n	100035ba <tud_task+0x5c2>
100035da:	4643      	mov	r3, r8
100035dc:	005b      	lsls	r3, r3, #1
100035de:	4698      	mov	r8, r3
100035e0:	18f3      	adds	r3, r6, r3
100035e2:	444b      	add	r3, r9
100035e4:	3320      	adds	r3, #32
100035e6:	795b      	ldrb	r3, [r3, #5]
100035e8:	aa06      	add	r2, sp, #24
100035ea:	079b      	lsls	r3, r3, #30
100035ec:	0fdb      	lsrs	r3, r3, #31
100035ee:	3202      	adds	r2, #2
100035f0:	8013      	strh	r3, [r2, #0]
100035f2:	a908      	add	r1, sp, #32
100035f4:	2302      	movs	r3, #2
100035f6:	4650      	mov	r0, sl
100035f8:	f000 fac6 	bl	10003b88 <tud_control_xfer>
100035fc:	e58e      	b.n	1000311c <tud_task+0x124>
100035fe:	88e3      	ldrh	r3, [r4, #6]
10003600:	2b00      	cmp	r3, #0
10003602:	d000      	beq.n	10003606 <tud_task+0x60e>
10003604:	e729      	b.n	1000345a <tud_task+0x462>
10003606:	4650      	mov	r0, sl
10003608:	f7ff fa9a 	bl	10002b40 <dcd_edpt_clear_stall>
1000360c:	4643      	mov	r3, r8
1000360e:	005b      	lsls	r3, r3, #1
10003610:	4698      	mov	r8, r3
10003612:	18f3      	adds	r3, r6, r3
10003614:	444b      	add	r3, r9
10003616:	3320      	adds	r3, #32
10003618:	795a      	ldrb	r2, [r3, #5]
1000361a:	9900      	ldr	r1, [sp, #0]
1000361c:	43ba      	bics	r2, r7
1000361e:	715a      	strb	r2, [r3, #5]
10003620:	795a      	ldrb	r2, [r3, #5]
10003622:	438a      	bics	r2, r1
10003624:	715a      	strb	r2, [r3, #5]
10003626:	e71b      	b.n	10003460 <tud_task+0x468>
10003628:	1e50      	subs	r0, r2, #1
1000362a:	b2c0      	uxtb	r0, r0
1000362c:	f7ff f83e 	bl	100026ac <tud_descriptor_configuration_cb>
10003630:	2800      	cmp	r0, #0
10003632:	d100      	bne.n	10003636 <tud_task+0x63e>
10003634:	e67e      	b.n	10003334 <tud_task+0x33c>
10003636:	7843      	ldrb	r3, [r0, #1]
10003638:	2b02      	cmp	r3, #2
1000363a:	d000      	beq.n	1000363e <tud_task+0x646>
1000363c:	e67a      	b.n	10003334 <tud_task+0x33c>
1000363e:	2201      	movs	r2, #1
10003640:	79c1      	ldrb	r1, [r0, #7]
10003642:	2710      	movs	r7, #16
10003644:	094b      	lsrs	r3, r1, #5
10003646:	0989      	lsrs	r1, r1, #6
10003648:	4013      	ands	r3, r2
1000364a:	400a      	ands	r2, r1
1000364c:	2120      	movs	r1, #32
1000364e:	011d      	lsls	r5, r3, #4
10003650:	7833      	ldrb	r3, [r6, #0]
10003652:	0152      	lsls	r2, r2, #5
10003654:	43bb      	bics	r3, r7
10003656:	432b      	orrs	r3, r5
10003658:	438b      	bics	r3, r1
1000365a:	4313      	orrs	r3, r2
1000365c:	7033      	strb	r3, [r6, #0]
1000365e:	2309      	movs	r3, #9
10003660:	4698      	mov	r8, r3
10003662:	78c3      	ldrb	r3, [r0, #3]
10003664:	7882      	ldrb	r2, [r0, #2]
10003666:	021b      	lsls	r3, r3, #8
10003668:	4313      	orrs	r3, r2
1000366a:	18c3      	adds	r3, r0, r3
1000366c:	4480      	add	r8, r0
1000366e:	9305      	str	r3, [sp, #20]
10003670:	4598      	cmp	r8, r3
10003672:	d300      	bcc.n	10003676 <tud_task+0x67e>
10003674:	e0bb      	b.n	100037ee <tud_task+0x7f6>
10003676:	4b12      	ldr	r3, [pc, #72]	; (100036c0 <tud_task+0x6c8>)
10003678:	4647      	mov	r7, r8
1000367a:	4699      	mov	r9, r3
1000367c:	46b0      	mov	r8, r6
1000367e:	2300      	movs	r3, #0
10003680:	787a      	ldrb	r2, [r7, #1]
10003682:	9302      	str	r3, [sp, #8]
10003684:	2a0b      	cmp	r2, #11
10003686:	d104      	bne.n	10003692 <tud_task+0x69a>
10003688:	783b      	ldrb	r3, [r7, #0]
1000368a:	9702      	str	r7, [sp, #8]
1000368c:	18fb      	adds	r3, r7, r3
1000368e:	001f      	movs	r7, r3
10003690:	785a      	ldrb	r2, [r3, #1]
10003692:	2a04      	cmp	r2, #4
10003694:	d000      	beq.n	10003698 <tud_task+0x6a0>
10003696:	e64d      	b.n	10003334 <tud_task+0x33c>
10003698:	9b05      	ldr	r3, [sp, #20]
1000369a:	4a08      	ldr	r2, [pc, #32]	; (100036bc <tud_task+0x6c4>)
1000369c:	1bdb      	subs	r3, r3, r7
1000369e:	b29b      	uxth	r3, r3
100036a0:	9300      	str	r3, [sp, #0]
100036a2:	464b      	mov	r3, r9
100036a4:	781b      	ldrb	r3, [r3, #0]
100036a6:	2a00      	cmp	r2, #0
100036a8:	d032      	beq.n	10003710 <tud_task+0x718>
100036aa:	2200      	movs	r2, #0
100036ac:	2500      	movs	r5, #0
100036ae:	9201      	str	r2, [sp, #4]
100036b0:	4656      	mov	r6, sl
100036b2:	e028      	b.n	10003706 <tud_task+0x70e>
	...
100036c0:	2000163c 	.word	0x2000163c
100036c4:	20000ba8 	.word	0x20000ba8
100036c8:	10005c4c 	.word	0x10005c4c
100036cc:	100040f5 	.word	0x100040f5
100036d0:	10005cb4 	.word	0x10005cb4
100036d4:	10005c74 	.word	0x10005c74
100036d8:	4a55      	ldr	r2, [pc, #340]	; (10003830 <tud_task+0x838>)
100036da:	00eb      	lsls	r3, r5, #3
100036dc:	6812      	ldr	r2, [r2, #0]
100036de:	1b5b      	subs	r3, r3, r5
100036e0:	4694      	mov	ip, r2
100036e2:	009b      	lsls	r3, r3, #2
100036e4:	4463      	add	r3, ip
100036e6:	689b      	ldr	r3, [r3, #8]
100036e8:	9203      	str	r2, [sp, #12]
100036ea:	9a00      	ldr	r2, [sp, #0]
100036ec:	0039      	movs	r1, r7
100036ee:	0030      	movs	r0, r6
100036f0:	4798      	blx	r3
100036f2:	2800      	cmp	r0, #0
100036f4:	d12e      	bne.n	10003754 <tud_task+0x75c>
100036f6:	464b      	mov	r3, r9
100036f8:	3501      	adds	r5, #1
100036fa:	781b      	ldrb	r3, [r3, #0]
100036fc:	b2ed      	uxtb	r5, r5
100036fe:	9501      	str	r5, [sp, #4]
10003700:	42ab      	cmp	r3, r5
10003702:	da00      	bge.n	10003706 <tud_task+0x70e>
10003704:	e616      	b.n	10003334 <tud_task+0x33c>
10003706:	42ab      	cmp	r3, r5
10003708:	d8e6      	bhi.n	100036d8 <tud_task+0x6e0>
1000370a:	d10e      	bne.n	1000372a <tud_task+0x732>
1000370c:	4b49      	ldr	r3, [pc, #292]	; (10003834 <tud_task+0x83c>)
1000370e:	e7ec      	b.n	100036ea <tud_task+0x6f2>
10003710:	9a00      	ldr	r2, [sp, #0]
10003712:	0039      	movs	r1, r7
10003714:	4650      	mov	r0, sl
10003716:	f000 fc77 	bl	10004008 <cdcd_open>
1000371a:	1e06      	subs	r6, r0, #0
1000371c:	d000      	beq.n	10003720 <tud_task+0x728>
1000371e:	e082      	b.n	10003826 <tud_task+0x82e>
10003720:	464b      	mov	r3, r9
10003722:	781b      	ldrb	r3, [r3, #0]
10003724:	2b00      	cmp	r3, #0
10003726:	d100      	bne.n	1000372a <tud_task+0x732>
10003728:	e604      	b.n	10003334 <tud_task+0x33c>
1000372a:	2300      	movs	r3, #0
1000372c:	689b      	ldr	r3, [r3, #8]
1000372e:	deff      	udf	#255	; 0xff
10003730:	4650      	mov	r0, sl
10003732:	f7ff f9dd 	bl	10002af0 <dcd_edpt_stall>
10003736:	4643      	mov	r3, r8
10003738:	2102      	movs	r1, #2
1000373a:	005b      	lsls	r3, r3, #1
1000373c:	4698      	mov	r8, r3
1000373e:	18f3      	adds	r3, r6, r3
10003740:	444b      	add	r3, r9
10003742:	3320      	adds	r3, #32
10003744:	795a      	ldrb	r2, [r3, #5]
10003746:	430a      	orrs	r2, r1
10003748:	2101      	movs	r1, #1
1000374a:	715a      	strb	r2, [r3, #5]
1000374c:	795a      	ldrb	r2, [r3, #5]
1000374e:	430a      	orrs	r2, r1
10003750:	715a      	strb	r2, [r3, #5]
10003752:	e685      	b.n	10003460 <tud_task+0x468>
10003754:	46b2      	mov	sl, r6
10003756:	0006      	movs	r6, r0
10003758:	2e08      	cmp	r6, #8
1000375a:	d800      	bhi.n	1000375e <tud_task+0x766>
1000375c:	e5ea      	b.n	10003334 <tud_task+0x33c>
1000375e:	9b00      	ldr	r3, [sp, #0]
10003760:	42b3      	cmp	r3, r6
10003762:	d200      	bcs.n	10003766 <tud_task+0x76e>
10003764:	e5e6      	b.n	10003334 <tud_task+0x33c>
10003766:	4642      	mov	r2, r8
10003768:	78bb      	ldrb	r3, [r7, #2]
1000376a:	18d2      	adds	r2, r2, r3
1000376c:	78d1      	ldrb	r1, [r2, #3]
1000376e:	29ff      	cmp	r1, #255	; 0xff
10003770:	d000      	beq.n	10003774 <tud_task+0x77c>
10003772:	e5df      	b.n	10003334 <tud_task+0x33c>
10003774:	70d5      	strb	r5, [r2, #3]
10003776:	9a02      	ldr	r2, [sp, #8]
10003778:	2a00      	cmp	r2, #0
1000377a:	d015      	beq.n	100037a8 <tud_task+0x7b0>
1000377c:	7891      	ldrb	r1, [r2, #2]
1000377e:	0010      	movs	r0, r2
10003780:	4299      	cmp	r1, r3
10003782:	d000      	beq.n	10003786 <tud_task+0x78e>
10003784:	e5d6      	b.n	10003334 <tud_task+0x33c>
10003786:	7912      	ldrb	r2, [r2, #4]
10003788:	797b      	ldrb	r3, [r7, #5]
1000378a:	429a      	cmp	r2, r3
1000378c:	d000      	beq.n	10003790 <tud_task+0x798>
1000378e:	e5d1      	b.n	10003334 <tud_task+0x33c>
10003790:	78c2      	ldrb	r2, [r0, #3]
10003792:	2a01      	cmp	r2, #1
10003794:	d908      	bls.n	100037a8 <tud_task+0x7b0>
10003796:	3a02      	subs	r2, #2
10003798:	3104      	adds	r1, #4
1000379a:	4441      	add	r1, r8
1000379c:	b2d2      	uxtb	r2, r2
1000379e:	0008      	movs	r0, r1
100037a0:	3201      	adds	r2, #1
100037a2:	0029      	movs	r1, r5
100037a4:	f7fe fcd0 	bl	10002148 <__wrap_memset>
100037a8:	003a      	movs	r2, r7
100037aa:	2300      	movs	r3, #0
100037ac:	e005      	b.n	100037ba <tud_task+0x7c2>
100037ae:	7811      	ldrb	r1, [r2, #0]
100037b0:	185b      	adds	r3, r3, r1
100037b2:	b29b      	uxth	r3, r3
100037b4:	1852      	adds	r2, r2, r1
100037b6:	42b3      	cmp	r3, r6
100037b8:	d20d      	bcs.n	100037d6 <tud_task+0x7de>
100037ba:	7851      	ldrb	r1, [r2, #1]
100037bc:	2905      	cmp	r1, #5
100037be:	d1f6      	bne.n	100037ae <tud_task+0x7b6>
100037c0:	7891      	ldrb	r1, [r2, #2]
100037c2:	207f      	movs	r0, #127	; 0x7f
100037c4:	468c      	mov	ip, r1
100037c6:	4001      	ands	r1, r0
100037c8:	4660      	mov	r0, ip
100037ca:	0049      	lsls	r1, r1, #1
100037cc:	4441      	add	r1, r8
100037ce:	3113      	adds	r1, #19
100037d0:	09c0      	lsrs	r0, r0, #7
100037d2:	540d      	strb	r5, [r1, r0]
100037d4:	e7eb      	b.n	100037ae <tud_task+0x7b6>
100037d6:	464b      	mov	r3, r9
100037d8:	9a01      	ldr	r2, [sp, #4]
100037da:	781b      	ldrb	r3, [r3, #0]
100037dc:	19bf      	adds	r7, r7, r6
100037de:	4293      	cmp	r3, r2
100037e0:	da00      	bge.n	100037e4 <tud_task+0x7ec>
100037e2:	e5a7      	b.n	10003334 <tud_task+0x33c>
100037e4:	9b05      	ldr	r3, [sp, #20]
100037e6:	42bb      	cmp	r3, r7
100037e8:	d900      	bls.n	100037ec <tud_task+0x7f4>
100037ea:	e748      	b.n	1000367e <tud_task+0x686>
100037ec:	4646      	mov	r6, r8
100037ee:	4b12      	ldr	r3, [pc, #72]	; (10003838 <tud_task+0x840>)
100037f0:	2b00      	cmp	r3, #0
100037f2:	d100      	bne.n	100037f6 <tud_task+0x7fe>
100037f4:	e642      	b.n	1000347c <tud_task+0x484>
100037f6:	e000      	b.n	100037fa <tud_task+0x802>
100037f8:	bf00      	nop
100037fa:	e63f      	b.n	1000347c <tud_task+0x484>
100037fc:	4b0f      	ldr	r3, [pc, #60]	; (1000383c <tud_task+0x844>)
100037fe:	2b00      	cmp	r3, #0
10003800:	d100      	bne.n	10003804 <tud_task+0x80c>
10003802:	e597      	b.n	10003334 <tud_task+0x33c>
10003804:	e000      	b.n	10003808 <tud_task+0x810>
10003806:	bf00      	nop
10003808:	0005      	movs	r5, r0
1000380a:	ab06      	add	r3, sp, #24
1000380c:	1c9e      	adds	r6, r3, #2
1000380e:	1c81      	adds	r1, r0, #2
10003810:	2202      	movs	r2, #2
10003812:	0030      	movs	r0, r6
10003814:	f7fe fc9e 	bl	10002154 <__wrap___aeabi_memcpy>
10003818:	8833      	ldrh	r3, [r6, #0]
1000381a:	002a      	movs	r2, r5
1000381c:	a908      	add	r1, sp, #32
1000381e:	4650      	mov	r0, sl
10003820:	f000 f9b2 	bl	10003b88 <tud_control_xfer>
10003824:	e583      	b.n	1000332e <tud_task+0x336>
10003826:	2300      	movs	r3, #0
10003828:	2500      	movs	r5, #0
1000382a:	9301      	str	r3, [sp, #4]
1000382c:	e794      	b.n	10003758 <tud_task+0x760>
1000382e:	46c0      	nop			; (mov r8, r8)
10003830:	20000ba8 	.word	0x20000ba8
10003834:	10004009 	.word	0x10004009
	...

10003840 <dcd_event_bus_signal>:
10003840:	b570      	push	{r4, r5, r6, lr}
10003842:	0006      	movs	r6, r0
10003844:	000c      	movs	r4, r1
10003846:	b084      	sub	sp, #16
10003848:	ad01      	add	r5, sp, #4
1000384a:	220c      	movs	r2, #12
1000384c:	2100      	movs	r1, #0
1000384e:	0028      	movs	r0, r5
10003850:	f7fe fc7a 	bl	10002148 <__wrap_memset>
10003854:	702e      	strb	r6, [r5, #0]
10003856:	706c      	strb	r4, [r5, #1]
10003858:	2c03      	cmp	r4, #3
1000385a:	d008      	beq.n	1000386e <dcd_event_bus_signal+0x2e>
1000385c:	d91b      	bls.n	10003896 <dcd_event_bus_signal+0x56>
1000385e:	2c04      	cmp	r4, #4
10003860:	d007      	beq.n	10003872 <dcd_event_bus_signal+0x32>
10003862:	2c05      	cmp	r4, #5
10003864:	d140      	bne.n	100038e8 <dcd_event_bus_signal+0xa8>
10003866:	4b2c      	ldr	r3, [pc, #176]	; (10003918 <dcd_event_bus_signal+0xd8>)
10003868:	781a      	ldrb	r2, [r3, #0]
1000386a:	07d2      	lsls	r2, r2, #31
1000386c:	d446      	bmi.n	100038fc <dcd_event_bus_signal+0xbc>
1000386e:	b004      	add	sp, #16
10003870:	bd70      	pop	{r4, r5, r6, pc}
10003872:	4b29      	ldr	r3, [pc, #164]	; (10003918 <dcd_event_bus_signal+0xd8>)
10003874:	781a      	ldrb	r2, [r3, #0]
10003876:	07d2      	lsls	r2, r2, #31
10003878:	d5f9      	bpl.n	1000386e <dcd_event_bus_signal+0x2e>
1000387a:	2104      	movs	r1, #4
1000387c:	781a      	ldrb	r2, [r3, #0]
1000387e:	430a      	orrs	r2, r1
10003880:	701a      	strb	r2, [r3, #0]
10003882:	4b26      	ldr	r3, [pc, #152]	; (1000391c <dcd_event_bus_signal+0xdc>)
10003884:	681c      	ldr	r4, [r3, #0]
10003886:	69a2      	ldr	r2, [r4, #24]
10003888:	f3ef 8110 	mrs	r1, PRIMASK
1000388c:	b672      	cpsid	i
1000388e:	6813      	ldr	r3, [r2, #0]
10003890:	2b00      	cmp	r3, #0
10003892:	d119      	bne.n	100038c8 <dcd_event_bus_signal+0x88>
10003894:	e7fb      	b.n	1000388e <dcd_event_bus_signal+0x4e>
10003896:	2c02      	cmp	r4, #2
10003898:	d126      	bne.n	100038e8 <dcd_event_bus_signal+0xa8>
1000389a:	2101      	movs	r1, #1
1000389c:	4b1e      	ldr	r3, [pc, #120]	; (10003918 <dcd_event_bus_signal+0xd8>)
1000389e:	781a      	ldrb	r2, [r3, #0]
100038a0:	438a      	bics	r2, r1
100038a2:	701a      	strb	r2, [r3, #0]
100038a4:	781a      	ldrb	r2, [r3, #0]
100038a6:	3103      	adds	r1, #3
100038a8:	43a2      	bics	r2, r4
100038aa:	701a      	strb	r2, [r3, #0]
100038ac:	2200      	movs	r2, #0
100038ae:	705a      	strb	r2, [r3, #1]
100038b0:	781a      	ldrb	r2, [r3, #0]
100038b2:	438a      	bics	r2, r1
100038b4:	701a      	strb	r2, [r3, #0]
100038b6:	4b19      	ldr	r3, [pc, #100]	; (1000391c <dcd_event_bus_signal+0xdc>)
100038b8:	681c      	ldr	r4, [r3, #0]
100038ba:	69a2      	ldr	r2, [r4, #24]
100038bc:	f3ef 8110 	mrs	r1, PRIMASK
100038c0:	b672      	cpsid	i
100038c2:	6813      	ldr	r3, [r2, #0]
100038c4:	2b00      	cmp	r3, #0
100038c6:	d0fc      	beq.n	100038c2 <dcd_event_bus_signal+0x82>
100038c8:	f3bf 8f5f 	dmb	sy
100038cc:	61e1      	str	r1, [r4, #28]
100038ce:	0020      	movs	r0, r4
100038d0:	0029      	movs	r1, r5
100038d2:	f000 fe67 	bl	100045a4 <tu_fifo_write>
100038d6:	69a2      	ldr	r2, [r4, #24]
100038d8:	69e3      	ldr	r3, [r4, #28]
100038da:	f3bf 8f5f 	dmb	sy
100038de:	2100      	movs	r1, #0
100038e0:	6011      	str	r1, [r2, #0]
100038e2:	f383 8810 	msr	PRIMASK, r3
100038e6:	e7c2      	b.n	1000386e <dcd_event_bus_signal+0x2e>
100038e8:	4b0c      	ldr	r3, [pc, #48]	; (1000391c <dcd_event_bus_signal+0xdc>)
100038ea:	681c      	ldr	r4, [r3, #0]
100038ec:	69a2      	ldr	r2, [r4, #24]
100038ee:	f3ef 8110 	mrs	r1, PRIMASK
100038f2:	b672      	cpsid	i
100038f4:	6813      	ldr	r3, [r2, #0]
100038f6:	2b00      	cmp	r3, #0
100038f8:	d1e6      	bne.n	100038c8 <dcd_event_bus_signal+0x88>
100038fa:	e7fb      	b.n	100038f4 <dcd_event_bus_signal+0xb4>
100038fc:	2104      	movs	r1, #4
100038fe:	781a      	ldrb	r2, [r3, #0]
10003900:	438a      	bics	r2, r1
10003902:	701a      	strb	r2, [r3, #0]
10003904:	4b05      	ldr	r3, [pc, #20]	; (1000391c <dcd_event_bus_signal+0xdc>)
10003906:	681c      	ldr	r4, [r3, #0]
10003908:	69a2      	ldr	r2, [r4, #24]
1000390a:	f3ef 8110 	mrs	r1, PRIMASK
1000390e:	b672      	cpsid	i
10003910:	6813      	ldr	r3, [r2, #0]
10003912:	2b00      	cmp	r3, #0
10003914:	d1d8      	bne.n	100038c8 <dcd_event_bus_signal+0x88>
10003916:	e7fb      	b.n	10003910 <dcd_event_bus_signal+0xd0>
10003918:	20000ed8 	.word	0x20000ed8
1000391c:	20000f14 	.word	0x20000f14

10003920 <dcd_event_setup_received>:
10003920:	b570      	push	{r4, r5, r6, lr}
10003922:	b084      	sub	sp, #16
10003924:	ad01      	add	r5, sp, #4
10003926:	0006      	movs	r6, r0
10003928:	000c      	movs	r4, r1
1000392a:	220c      	movs	r2, #12
1000392c:	2100      	movs	r1, #0
1000392e:	0028      	movs	r0, r5
10003930:	f7fe fc0a 	bl	10002148 <__wrap_memset>
10003934:	2306      	movs	r3, #6
10003936:	0021      	movs	r1, r4
10003938:	2208      	movs	r2, #8
1000393a:	a802      	add	r0, sp, #8
1000393c:	706b      	strb	r3, [r5, #1]
1000393e:	702e      	strb	r6, [r5, #0]
10003940:	f7fe fc08 	bl	10002154 <__wrap___aeabi_memcpy>
10003944:	4b0c      	ldr	r3, [pc, #48]	; (10003978 <dcd_event_setup_received+0x58>)
10003946:	681c      	ldr	r4, [r3, #0]
10003948:	69a2      	ldr	r2, [r4, #24]
1000394a:	f3ef 8310 	mrs	r3, PRIMASK
1000394e:	b672      	cpsid	i
10003950:	6811      	ldr	r1, [r2, #0]
10003952:	2900      	cmp	r1, #0
10003954:	d0fc      	beq.n	10003950 <dcd_event_setup_received+0x30>
10003956:	f3bf 8f5f 	dmb	sy
1000395a:	61e3      	str	r3, [r4, #28]
1000395c:	0029      	movs	r1, r5
1000395e:	0020      	movs	r0, r4
10003960:	f000 fe20 	bl	100045a4 <tu_fifo_write>
10003964:	69a2      	ldr	r2, [r4, #24]
10003966:	69e3      	ldr	r3, [r4, #28]
10003968:	f3bf 8f5f 	dmb	sy
1000396c:	2100      	movs	r1, #0
1000396e:	6011      	str	r1, [r2, #0]
10003970:	f383 8810 	msr	PRIMASK, r3
10003974:	b004      	add	sp, #16
10003976:	bd70      	pop	{r4, r5, r6, pc}
10003978:	20000f14 	.word	0x20000f14

1000397c <dcd_event_xfer_complete>:
1000397c:	b5f0      	push	{r4, r5, r6, r7, lr}
1000397e:	46c6      	mov	lr, r8
10003980:	4680      	mov	r8, r0
10003982:	b500      	push	{lr}
10003984:	b084      	sub	sp, #16
10003986:	ac01      	add	r4, sp, #4
10003988:	000f      	movs	r7, r1
1000398a:	0016      	movs	r6, r2
1000398c:	2100      	movs	r1, #0
1000398e:	220c      	movs	r2, #12
10003990:	0020      	movs	r0, r4
10003992:	001d      	movs	r5, r3
10003994:	f7fe fbd8 	bl	10002148 <__wrap_memset>
10003998:	4643      	mov	r3, r8
1000399a:	7023      	strb	r3, [r4, #0]
1000399c:	2307      	movs	r3, #7
1000399e:	7063      	strb	r3, [r4, #1]
100039a0:	4b0f      	ldr	r3, [pc, #60]	; (100039e0 <dcd_event_xfer_complete+0x64>)
100039a2:	7165      	strb	r5, [r4, #5]
100039a4:	681d      	ldr	r5, [r3, #0]
100039a6:	7127      	strb	r7, [r4, #4]
100039a8:	60a6      	str	r6, [r4, #8]
100039aa:	69aa      	ldr	r2, [r5, #24]
100039ac:	f3ef 8310 	mrs	r3, PRIMASK
100039b0:	b672      	cpsid	i
100039b2:	6811      	ldr	r1, [r2, #0]
100039b4:	2900      	cmp	r1, #0
100039b6:	d0fc      	beq.n	100039b2 <dcd_event_xfer_complete+0x36>
100039b8:	f3bf 8f5f 	dmb	sy
100039bc:	61eb      	str	r3, [r5, #28]
100039be:	0021      	movs	r1, r4
100039c0:	0028      	movs	r0, r5
100039c2:	f000 fdef 	bl	100045a4 <tu_fifo_write>
100039c6:	69aa      	ldr	r2, [r5, #24]
100039c8:	69eb      	ldr	r3, [r5, #28]
100039ca:	f3bf 8f5f 	dmb	sy
100039ce:	2100      	movs	r1, #0
100039d0:	6011      	str	r1, [r2, #0]
100039d2:	f383 8810 	msr	PRIMASK, r3
100039d6:	b004      	add	sp, #16
100039d8:	bc04      	pop	{r2}
100039da:	4690      	mov	r8, r2
100039dc:	bdf0      	pop	{r4, r5, r6, r7, pc}
100039de:	46c0      	nop			; (mov r8, r8)
100039e0:	20000f14 	.word	0x20000f14

100039e4 <usbd_open_edpt_pair>:
100039e4:	b5f8      	push	{r3, r4, r5, r6, r7, lr}
100039e6:	46d6      	mov	lr, sl
100039e8:	4647      	mov	r7, r8
100039ea:	4690      	mov	r8, r2
100039ec:	b580      	push	{r7, lr}
100039ee:	9a08      	ldr	r2, [sp, #32]
100039f0:	0006      	movs	r6, r0
100039f2:	4692      	mov	sl, r2
100039f4:	4642      	mov	r2, r8
100039f6:	000c      	movs	r4, r1
100039f8:	2a00      	cmp	r2, #0
100039fa:	d029      	beq.n	10003a50 <usbd_open_edpt_pair+0x6c>
100039fc:	784a      	ldrb	r2, [r1, #1]
100039fe:	2a05      	cmp	r2, #5
10003a00:	d128      	bne.n	10003a54 <usbd_open_edpt_pair+0x70>
10003a02:	78cf      	ldrb	r7, [r1, #3]
10003a04:	07bf      	lsls	r7, r7, #30
10003a06:	0fbf      	lsrs	r7, r7, #30
10003a08:	42bb      	cmp	r3, r7
10003a0a:	d123      	bne.n	10003a54 <usbd_open_edpt_pair+0x70>
10003a0c:	2500      	movs	r5, #0
10003a0e:	e00e      	b.n	10003a2e <usbd_open_edpt_pair+0x4a>
10003a10:	4652      	mov	r2, sl
10003a12:	7013      	strb	r3, [r2, #0]
10003a14:	7823      	ldrb	r3, [r4, #0]
10003a16:	3501      	adds	r5, #1
10003a18:	18e4      	adds	r4, r4, r3
10003a1a:	4545      	cmp	r5, r8
10003a1c:	da18      	bge.n	10003a50 <usbd_open_edpt_pair+0x6c>
10003a1e:	7863      	ldrb	r3, [r4, #1]
10003a20:	2b05      	cmp	r3, #5
10003a22:	d117      	bne.n	10003a54 <usbd_open_edpt_pair+0x70>
10003a24:	78e3      	ldrb	r3, [r4, #3]
10003a26:	079b      	lsls	r3, r3, #30
10003a28:	0f9b      	lsrs	r3, r3, #30
10003a2a:	42bb      	cmp	r3, r7
10003a2c:	d112      	bne.n	10003a54 <usbd_open_edpt_pair+0x70>
10003a2e:	0021      	movs	r1, r4
10003a30:	0030      	movs	r0, r6
10003a32:	f7fe ff9f 	bl	10002974 <dcd_edpt_open>
10003a36:	2800      	cmp	r0, #0
10003a38:	d00c      	beq.n	10003a54 <usbd_open_edpt_pair+0x70>
10003a3a:	78a3      	ldrb	r3, [r4, #2]
10003a3c:	b25a      	sxtb	r2, r3
10003a3e:	2a00      	cmp	r2, #0
10003a40:	dae6      	bge.n	10003a10 <usbd_open_edpt_pair+0x2c>
10003a42:	9a09      	ldr	r2, [sp, #36]	; 0x24
10003a44:	3501      	adds	r5, #1
10003a46:	7013      	strb	r3, [r2, #0]
10003a48:	7823      	ldrb	r3, [r4, #0]
10003a4a:	18e4      	adds	r4, r4, r3
10003a4c:	4545      	cmp	r5, r8
10003a4e:	dbe6      	blt.n	10003a1e <usbd_open_edpt_pair+0x3a>
10003a50:	2001      	movs	r0, #1
10003a52:	e000      	b.n	10003a56 <usbd_open_edpt_pair+0x72>
10003a54:	2000      	movs	r0, #0
10003a56:	bc0c      	pop	{r2, r3}
10003a58:	4690      	mov	r8, r2
10003a5a:	469a      	mov	sl, r3
10003a5c:	bdf8      	pop	{r3, r4, r5, r6, r7, pc}
10003a5e:	46c0      	nop			; (mov r8, r8)

10003a60 <usbd_edpt_open>:
10003a60:	b510      	push	{r4, lr}
10003a62:	f7fe ff87 	bl	10002974 <dcd_edpt_open>
10003a66:	bd10      	pop	{r4, pc}

10003a68 <usbd_edpt_claim>:
10003a68:	237f      	movs	r3, #127	; 0x7f
10003a6a:	b570      	push	{r4, r5, r6, lr}
10003a6c:	400b      	ands	r3, r1
10003a6e:	4c13      	ldr	r4, [pc, #76]	; (10003abc <usbd_edpt_claim+0x54>)
10003a70:	005b      	lsls	r3, r3, #1
10003a72:	09c9      	lsrs	r1, r1, #7
10003a74:	18e4      	adds	r4, r4, r3
10003a76:	1864      	adds	r4, r4, r1
10003a78:	3420      	adds	r4, #32
10003a7a:	7960      	ldrb	r0, [r4, #5]
10003a7c:	07c0      	lsls	r0, r0, #31
10003a7e:	0fc0      	lsrs	r0, r0, #31
10003a80:	d11a      	bne.n	10003ab8 <usbd_edpt_claim+0x50>
10003a82:	7963      	ldrb	r3, [r4, #5]
10003a84:	075b      	lsls	r3, r3, #29
10003a86:	d500      	bpl.n	10003a8a <usbd_edpt_claim+0x22>
10003a88:	bd70      	pop	{r4, r5, r6, pc}
10003a8a:	2101      	movs	r1, #1
10003a8c:	4e0c      	ldr	r6, [pc, #48]	; (10003ac0 <usbd_edpt_claim+0x58>)
10003a8e:	4249      	negs	r1, r1
10003a90:	6830      	ldr	r0, [r6, #0]
10003a92:	f001 ff99 	bl	100059c8 <__mutex_enter_timeout_ms_veneer>
10003a96:	7963      	ldrb	r3, [r4, #5]
10003a98:	2500      	movs	r5, #0
10003a9a:	07db      	lsls	r3, r3, #31
10003a9c:	d407      	bmi.n	10003aae <usbd_edpt_claim+0x46>
10003a9e:	7963      	ldrb	r3, [r4, #5]
10003aa0:	075b      	lsls	r3, r3, #29
10003aa2:	d404      	bmi.n	10003aae <usbd_edpt_claim+0x46>
10003aa4:	2204      	movs	r2, #4
10003aa6:	2501      	movs	r5, #1
10003aa8:	7963      	ldrb	r3, [r4, #5]
10003aaa:	4313      	orrs	r3, r2
10003aac:	7163      	strb	r3, [r4, #5]
10003aae:	6830      	ldr	r0, [r6, #0]
10003ab0:	f001 ff72 	bl	10005998 <__mutex_exit_veneer>
10003ab4:	0028      	movs	r0, r5
10003ab6:	e7e7      	b.n	10003a88 <usbd_edpt_claim+0x20>
10003ab8:	2000      	movs	r0, #0
10003aba:	e7e5      	b.n	10003a88 <usbd_edpt_claim+0x20>
10003abc:	20000ed8 	.word	0x20000ed8
10003ac0:	20000f10 	.word	0x20000f10

10003ac4 <usbd_edpt_release>:
10003ac4:	b570      	push	{r4, r5, r6, lr}
10003ac6:	000d      	movs	r5, r1
10003ac8:	2101      	movs	r1, #1
10003aca:	4c0f      	ldr	r4, [pc, #60]	; (10003b08 <usbd_edpt_release+0x44>)
10003acc:	4249      	negs	r1, r1
10003ace:	6820      	ldr	r0, [r4, #0]
10003ad0:	f001 ff7a 	bl	100059c8 <__mutex_enter_timeout_ms_veneer>
10003ad4:	217f      	movs	r1, #127	; 0x7f
10003ad6:	4029      	ands	r1, r5
10003ad8:	004b      	lsls	r3, r1, #1
10003ada:	490c      	ldr	r1, [pc, #48]	; (10003b0c <usbd_edpt_release+0x48>)
10003adc:	09ed      	lsrs	r5, r5, #7
10003ade:	18c9      	adds	r1, r1, r3
10003ae0:	1949      	adds	r1, r1, r5
10003ae2:	3120      	adds	r1, #32
10003ae4:	794b      	ldrb	r3, [r1, #5]
10003ae6:	2500      	movs	r5, #0
10003ae8:	07db      	lsls	r3, r3, #31
10003aea:	d407      	bmi.n	10003afc <usbd_edpt_release+0x38>
10003aec:	794b      	ldrb	r3, [r1, #5]
10003aee:	075b      	lsls	r3, r3, #29
10003af0:	d504      	bpl.n	10003afc <usbd_edpt_release+0x38>
10003af2:	2204      	movs	r2, #4
10003af4:	794b      	ldrb	r3, [r1, #5]
10003af6:	3501      	adds	r5, #1
10003af8:	4393      	bics	r3, r2
10003afa:	714b      	strb	r3, [r1, #5]
10003afc:	6820      	ldr	r0, [r4, #0]
10003afe:	f001 ff4b 	bl	10005998 <__mutex_exit_veneer>
10003b02:	0028      	movs	r0, r5
10003b04:	bd70      	pop	{r4, r5, r6, pc}
10003b06:	46c0      	nop			; (mov r8, r8)
10003b08:	20000f10 	.word	0x20000f10
10003b0c:	20000ed8 	.word	0x20000ed8

10003b10 <usbd_edpt_xfer>:
10003b10:	b570      	push	{r4, r5, r6, lr}
10003b12:	247f      	movs	r4, #127	; 0x7f
10003b14:	400c      	ands	r4, r1
10003b16:	0065      	lsls	r5, r4, #1
10003b18:	4c0e      	ldr	r4, [pc, #56]	; (10003b54 <usbd_edpt_xfer+0x44>)
10003b1a:	0006      	movs	r6, r0
10003b1c:	1964      	adds	r4, r4, r5
10003b1e:	09c8      	lsrs	r0, r1, #7
10003b20:	1824      	adds	r4, r4, r0
10003b22:	3420      	adds	r4, #32
10003b24:	7965      	ldrb	r5, [r4, #5]
10003b26:	2000      	movs	r0, #0
10003b28:	07ed      	lsls	r5, r5, #31
10003b2a:	d500      	bpl.n	10003b2e <usbd_edpt_xfer+0x1e>
10003b2c:	bd70      	pop	{r4, r5, r6, pc}
10003b2e:	2501      	movs	r5, #1
10003b30:	7960      	ldrb	r0, [r4, #5]
10003b32:	4328      	orrs	r0, r5
10003b34:	7160      	strb	r0, [r4, #5]
10003b36:	0030      	movs	r0, r6
10003b38:	f7fe ffc4 	bl	10002ac4 <dcd_edpt_xfer>
10003b3c:	2800      	cmp	r0, #0
10003b3e:	d1f5      	bne.n	10003b2c <usbd_edpt_xfer+0x1c>
10003b40:	2201      	movs	r2, #1
10003b42:	7963      	ldrb	r3, [r4, #5]
10003b44:	4393      	bics	r3, r2
10003b46:	7163      	strb	r3, [r4, #5]
10003b48:	7963      	ldrb	r3, [r4, #5]
10003b4a:	3203      	adds	r2, #3
10003b4c:	4393      	bics	r3, r2
10003b4e:	7163      	strb	r3, [r4, #5]
10003b50:	e7ec      	b.n	10003b2c <usbd_edpt_xfer+0x1c>
10003b52:	46c0      	nop			; (mov r8, r8)
10003b54:	20000ed8 	.word	0x20000ed8

10003b58 <tud_control_status>:
10003b58:	b570      	push	{r4, r5, r6, lr}
10003b5a:	4c0a      	ldr	r4, [pc, #40]	; (10003b84 <tud_control_status+0x2c>)
10003b5c:	0006      	movs	r6, r0
10003b5e:	2208      	movs	r2, #8
10003b60:	0020      	movs	r0, r4
10003b62:	000d      	movs	r5, r1
10003b64:	f7fe faf6 	bl	10002154 <__wrap___aeabi_memcpy>
10003b68:	2300      	movs	r3, #0
10003b6a:	2100      	movs	r1, #0
10003b6c:	60a3      	str	r3, [r4, #8]
10003b6e:	81e3      	strh	r3, [r4, #14]
10003b70:	81a3      	strh	r3, [r4, #12]
10003b72:	5669      	ldrsb	r1, [r5, r1]
10003b74:	0030      	movs	r0, r6
10003b76:	43c9      	mvns	r1, r1
10003b78:	0fc9      	lsrs	r1, r1, #31
10003b7a:	01c9      	lsls	r1, r1, #7
10003b7c:	2200      	movs	r2, #0
10003b7e:	f7fe ffa1 	bl	10002ac4 <dcd_edpt_xfer>
10003b82:	bd70      	pop	{r4, r5, r6, pc}
10003b84:	20000e7c 	.word	0x20000e7c

10003b88 <tud_control_xfer>:
10003b88:	b5f0      	push	{r4, r5, r6, r7, lr}
10003b8a:	46c6      	mov	lr, r8
10003b8c:	4690      	mov	r8, r2
10003b8e:	4c27      	ldr	r4, [pc, #156]	; (10003c2c <tud_control_xfer+0xa4>)
10003b90:	2208      	movs	r2, #8
10003b92:	b500      	push	{lr}
10003b94:	0006      	movs	r6, r0
10003b96:	0020      	movs	r0, r4
10003b98:	000d      	movs	r5, r1
10003b9a:	001f      	movs	r7, r3
10003b9c:	f7fe fada 	bl	10002154 <__wrap___aeabi_memcpy>
10003ba0:	4643      	mov	r3, r8
10003ba2:	60a3      	str	r3, [r4, #8]
10003ba4:	2300      	movs	r3, #0
10003ba6:	81e3      	strh	r3, [r4, #14]
10003ba8:	79eb      	ldrb	r3, [r5, #7]
10003baa:	79aa      	ldrb	r2, [r5, #6]
10003bac:	021b      	lsls	r3, r3, #8
10003bae:	4313      	orrs	r3, r2
10003bb0:	1c1a      	adds	r2, r3, #0
10003bb2:	42bb      	cmp	r3, r7
10003bb4:	d900      	bls.n	10003bb8 <tud_control_xfer+0x30>
10003bb6:	1c3a      	adds	r2, r7, #0
10003bb8:	b297      	uxth	r7, r2
10003bba:	81a2      	strh	r2, [r4, #12]
10003bbc:	2b00      	cmp	r3, #0
10003bbe:	d012      	beq.n	10003be6 <tud_control_xfer+0x5e>
10003bc0:	2f00      	cmp	r7, #0
10003bc2:	d01f      	beq.n	10003c04 <tud_control_xfer+0x7c>
10003bc4:	4643      	mov	r3, r8
10003bc6:	2b00      	cmp	r3, #0
10003bc8:	d02e      	beq.n	10003c28 <tud_control_xfer+0xa0>
10003bca:	1c3b      	adds	r3, r7, #0
10003bcc:	2f40      	cmp	r7, #64	; 0x40
10003bce:	d817      	bhi.n	10003c00 <tud_control_xfer+0x78>
10003bd0:	b29f      	uxth	r7, r3
10003bd2:	7823      	ldrb	r3, [r4, #0]
10003bd4:	2b7f      	cmp	r3, #127	; 0x7f
10003bd6:	d81e      	bhi.n	10003c16 <tud_control_xfer+0x8e>
10003bd8:	2100      	movs	r1, #0
10003bda:	4a15      	ldr	r2, [pc, #84]	; (10003c30 <tud_control_xfer+0xa8>)
10003bdc:	003b      	movs	r3, r7
10003bde:	0030      	movs	r0, r6
10003be0:	f7fe ff70 	bl	10002ac4 <dcd_edpt_xfer>
10003be4:	e009      	b.n	10003bfa <tud_control_xfer+0x72>
10003be6:	2100      	movs	r1, #0
10003be8:	5669      	ldrsb	r1, [r5, r1]
10003bea:	2300      	movs	r3, #0
10003bec:	43c9      	mvns	r1, r1
10003bee:	0fc9      	lsrs	r1, r1, #31
10003bf0:	01c9      	lsls	r1, r1, #7
10003bf2:	2200      	movs	r2, #0
10003bf4:	0030      	movs	r0, r6
10003bf6:	f7fe ff65 	bl	10002ac4 <dcd_edpt_xfer>
10003bfa:	bc04      	pop	{r2}
10003bfc:	4690      	mov	r8, r2
10003bfe:	bdf0      	pop	{r4, r5, r6, r7, pc}
10003c00:	2340      	movs	r3, #64	; 0x40
10003c02:	e7e5      	b.n	10003bd0 <tud_control_xfer+0x48>
10003c04:	7823      	ldrb	r3, [r4, #0]
10003c06:	2b7f      	cmp	r3, #127	; 0x7f
10003c08:	d802      	bhi.n	10003c10 <tud_control_xfer+0x88>
10003c0a:	2100      	movs	r1, #0
10003c0c:	2200      	movs	r2, #0
10003c0e:	e7e5      	b.n	10003bdc <tud_control_xfer+0x54>
10003c10:	2180      	movs	r1, #128	; 0x80
10003c12:	2200      	movs	r2, #0
10003c14:	e7e2      	b.n	10003bdc <tud_control_xfer+0x54>
10003c16:	4c06      	ldr	r4, [pc, #24]	; (10003c30 <tud_control_xfer+0xa8>)
10003c18:	003a      	movs	r2, r7
10003c1a:	4641      	mov	r1, r8
10003c1c:	0020      	movs	r0, r4
10003c1e:	f7fe fa99 	bl	10002154 <__wrap___aeabi_memcpy>
10003c22:	2180      	movs	r1, #128	; 0x80
10003c24:	0022      	movs	r2, r4
10003c26:	e7d9      	b.n	10003bdc <tud_control_xfer+0x54>
10003c28:	2000      	movs	r0, #0
10003c2a:	e7e6      	b.n	10003bfa <tud_control_xfer+0x72>
10003c2c:	20000e7c 	.word	0x20000e7c
10003c30:	20000e98 	.word	0x20000e98

10003c34 <usbd_control_reset>:
10003c34:	b510      	push	{r4, lr}
10003c36:	2214      	movs	r2, #20
10003c38:	2100      	movs	r1, #0
10003c3a:	4802      	ldr	r0, [pc, #8]	; (10003c44 <usbd_control_reset+0x10>)
10003c3c:	f7fe fa84 	bl	10002148 <__wrap_memset>
10003c40:	bd10      	pop	{r4, pc}
10003c42:	46c0      	nop			; (mov r8, r8)
10003c44:	20000e7c 	.word	0x20000e7c

10003c48 <usbd_control_set_complete_callback>:
10003c48:	4b01      	ldr	r3, [pc, #4]	; (10003c50 <usbd_control_set_complete_callback+0x8>)
10003c4a:	6118      	str	r0, [r3, #16]
10003c4c:	4770      	bx	lr
10003c4e:	46c0      	nop			; (mov r8, r8)
10003c50:	20000e7c 	.word	0x20000e7c

10003c54 <usbd_control_set_request>:
10003c54:	b510      	push	{r4, lr}
10003c56:	4c05      	ldr	r4, [pc, #20]	; (10003c6c <usbd_control_set_request+0x18>)
10003c58:	0001      	movs	r1, r0
10003c5a:	2208      	movs	r2, #8
10003c5c:	0020      	movs	r0, r4
10003c5e:	f7fe fa79 	bl	10002154 <__wrap___aeabi_memcpy>
10003c62:	2300      	movs	r3, #0
10003c64:	60a3      	str	r3, [r4, #8]
10003c66:	81e3      	strh	r3, [r4, #14]
10003c68:	81a3      	strh	r3, [r4, #12]
10003c6a:	bd10      	pop	{r4, pc}
10003c6c:	20000e7c 	.word	0x20000e7c

10003c70 <usbd_control_xfer_cb>:
10003c70:	b570      	push	{r4, r5, r6, lr}
10003c72:	4c36      	ldr	r4, [pc, #216]	; (10003d4c <usbd_control_xfer_cb+0xdc>)
10003c74:	001d      	movs	r5, r3
10003c76:	7823      	ldrb	r3, [r4, #0]
10003c78:	0006      	movs	r6, r0
10003c7a:	09da      	lsrs	r2, r3, #7
10003c7c:	09c9      	lsrs	r1, r1, #7
10003c7e:	428a      	cmp	r2, r1
10003c80:	d00b      	beq.n	10003c9a <usbd_control_xfer_cb+0x2a>
10003c82:	2000      	movs	r0, #0
10003c84:	2d00      	cmp	r5, #0
10003c86:	d107      	bne.n	10003c98 <usbd_control_xfer_cb+0x28>
10003c88:	4b31      	ldr	r3, [pc, #196]	; (10003d50 <usbd_control_xfer_cb+0xe0>)
10003c8a:	2b00      	cmp	r3, #0
10003c8c:	d02d      	beq.n	10003cea <usbd_control_xfer_cb+0x7a>
10003c8e:	0030      	movs	r0, r6
10003c90:	0021      	movs	r1, r4
10003c92:	f7fe fe53 	bl	1000293c <dcd_edpt0_status_complete>
10003c96:	2001      	movs	r0, #1
10003c98:	bd70      	pop	{r4, r5, r6, pc}
10003c9a:	2b7f      	cmp	r3, #127	; 0x7f
10003c9c:	d806      	bhi.n	10003cac <usbd_control_xfer_cb+0x3c>
10003c9e:	68a0      	ldr	r0, [r4, #8]
10003ca0:	2800      	cmp	r0, #0
10003ca2:	d024      	beq.n	10003cee <usbd_control_xfer_cb+0x7e>
10003ca4:	002a      	movs	r2, r5
10003ca6:	492b      	ldr	r1, [pc, #172]	; (10003d54 <usbd_control_xfer_cb+0xe4>)
10003ca8:	f7fe fa54 	bl	10002154 <__wrap___aeabi_memcpy>
10003cac:	68a2      	ldr	r2, [r4, #8]
10003cae:	89e3      	ldrh	r3, [r4, #14]
10003cb0:	1951      	adds	r1, r2, r5
10003cb2:	195b      	adds	r3, r3, r5
10003cb4:	88e2      	ldrh	r2, [r4, #6]
10003cb6:	b29b      	uxth	r3, r3
10003cb8:	81e3      	strh	r3, [r4, #14]
10003cba:	60a1      	str	r1, [r4, #8]
10003cbc:	429a      	cmp	r2, r3
10003cbe:	d001      	beq.n	10003cc4 <usbd_control_xfer_cb+0x54>
10003cc0:	2d3f      	cmp	r5, #63	; 0x3f
10003cc2:	d816      	bhi.n	10003cf2 <usbd_control_xfer_cb+0x82>
10003cc4:	6923      	ldr	r3, [r4, #16]
10003cc6:	2b00      	cmp	r3, #0
10003cc8:	d004      	beq.n	10003cd4 <usbd_control_xfer_cb+0x64>
10003cca:	0021      	movs	r1, r4
10003ccc:	0030      	movs	r0, r6
10003cce:	4798      	blx	r3
10003cd0:	2800      	cmp	r0, #0
10003cd2:	d024      	beq.n	10003d1e <usbd_control_xfer_cb+0xae>
10003cd4:	2100      	movs	r1, #0
10003cd6:	5661      	ldrsb	r1, [r4, r1]
10003cd8:	2300      	movs	r3, #0
10003cda:	43c9      	mvns	r1, r1
10003cdc:	0fc9      	lsrs	r1, r1, #31
10003cde:	01c9      	lsls	r1, r1, #7
10003ce0:	2200      	movs	r2, #0
10003ce2:	0030      	movs	r0, r6
10003ce4:	f7fe feee 	bl	10002ac4 <dcd_edpt_xfer>
10003ce8:	e7d6      	b.n	10003c98 <usbd_control_xfer_cb+0x28>
10003cea:	2001      	movs	r0, #1
10003cec:	e7d4      	b.n	10003c98 <usbd_control_xfer_cb+0x28>
10003cee:	2000      	movs	r0, #0
10003cf0:	e7d2      	b.n	10003c98 <usbd_control_xfer_cb+0x28>
10003cf2:	89a2      	ldrh	r2, [r4, #12]
10003cf4:	1ad3      	subs	r3, r2, r3
10003cf6:	1c1d      	adds	r5, r3, #0
10003cf8:	b29b      	uxth	r3, r3
10003cfa:	2b40      	cmp	r3, #64	; 0x40
10003cfc:	d900      	bls.n	10003d00 <usbd_control_xfer_cb+0x90>
10003cfe:	2540      	movs	r5, #64	; 0x40
10003d00:	7823      	ldrb	r3, [r4, #0]
10003d02:	b2ad      	uxth	r5, r5
10003d04:	2b7f      	cmp	r3, #127	; 0x7f
10003d06:	d814      	bhi.n	10003d32 <usbd_control_xfer_cb+0xc2>
10003d08:	2100      	movs	r1, #0
10003d0a:	2d00      	cmp	r5, #0
10003d0c:	d105      	bne.n	10003d1a <usbd_control_xfer_cb+0xaa>
10003d0e:	2200      	movs	r2, #0
10003d10:	002b      	movs	r3, r5
10003d12:	0030      	movs	r0, r6
10003d14:	f7fe fed6 	bl	10002ac4 <dcd_edpt_xfer>
10003d18:	e7be      	b.n	10003c98 <usbd_control_xfer_cb+0x28>
10003d1a:	4a0e      	ldr	r2, [pc, #56]	; (10003d54 <usbd_control_xfer_cb+0xe4>)
10003d1c:	e7f8      	b.n	10003d10 <usbd_control_xfer_cb+0xa0>
10003d1e:	2100      	movs	r1, #0
10003d20:	0030      	movs	r0, r6
10003d22:	f7fe fee5 	bl	10002af0 <dcd_edpt_stall>
10003d26:	0030      	movs	r0, r6
10003d28:	2180      	movs	r1, #128	; 0x80
10003d2a:	f7fe fee1 	bl	10002af0 <dcd_edpt_stall>
10003d2e:	2001      	movs	r0, #1
10003d30:	e7b2      	b.n	10003c98 <usbd_control_xfer_cb+0x28>
10003d32:	2d00      	cmp	r5, #0
10003d34:	d101      	bne.n	10003d3a <usbd_control_xfer_cb+0xca>
10003d36:	2180      	movs	r1, #128	; 0x80
10003d38:	e7e9      	b.n	10003d0e <usbd_control_xfer_cb+0x9e>
10003d3a:	4c06      	ldr	r4, [pc, #24]	; (10003d54 <usbd_control_xfer_cb+0xe4>)
10003d3c:	002a      	movs	r2, r5
10003d3e:	0020      	movs	r0, r4
10003d40:	f7fe fa08 	bl	10002154 <__wrap___aeabi_memcpy>
10003d44:	2180      	movs	r1, #128	; 0x80
10003d46:	0022      	movs	r2, r4
10003d48:	e7e2      	b.n	10003d10 <usbd_control_xfer_cb+0xa0>
10003d4a:	46c0      	nop			; (mov r8, r8)
10003d4c:	20000e7c 	.word	0x20000e7c
10003d50:	1000293d 	.word	0x1000293d
10003d54:	20000e98 	.word	0x20000e98

10003d58 <tud_cdc_n_connected>:
10003d58:	b510      	push	{r4, lr}
10003d5a:	0004      	movs	r4, r0
10003d5c:	f7ff f8e0 	bl	10002f20 <tud_mounted>
10003d60:	2800      	cmp	r0, #0
10003d62:	d101      	bne.n	10003d68 <tud_cdc_n_connected+0x10>
10003d64:	2000      	movs	r0, #0
10003d66:	bd10      	pop	{r4, pc}
10003d68:	f7ff f8e2 	bl	10002f30 <tud_suspended>
10003d6c:	2800      	cmp	r0, #0
10003d6e:	d1f9      	bne.n	10003d64 <tud_cdc_n_connected+0xc>
10003d70:	20b4      	movs	r0, #180	; 0xb4
10003d72:	0080      	lsls	r0, r0, #2
10003d74:	4344      	muls	r4, r0
10003d76:	4803      	ldr	r0, [pc, #12]	; (10003d84 <tud_cdc_n_connected+0x2c>)
10003d78:	1900      	adds	r0, r0, r4
10003d7a:	7903      	ldrb	r3, [r0, #4]
10003d7c:	2001      	movs	r0, #1
10003d7e:	4018      	ands	r0, r3
10003d80:	e7f1      	b.n	10003d66 <tud_cdc_n_connected+0xe>
10003d82:	46c0      	nop			; (mov r8, r8)
10003d84:	20000bac 	.word	0x20000bac

10003d88 <tud_cdc_n_available>:
10003d88:	0003      	movs	r3, r0
10003d8a:	20b4      	movs	r0, #180	; 0xb4
10003d8c:	0080      	lsls	r0, r0, #2
10003d8e:	4358      	muls	r0, r3
10003d90:	b510      	push	{r4, lr}
10003d92:	4b03      	ldr	r3, [pc, #12]	; (10003da0 <tud_cdc_n_available+0x18>)
10003d94:	3010      	adds	r0, #16
10003d96:	1818      	adds	r0, r3, r0
10003d98:	f000 fb06 	bl	100043a8 <tu_fifo_count>
10003d9c:	bd10      	pop	{r4, pc}
10003d9e:	46c0      	nop			; (mov r8, r8)
10003da0:	20000bac 	.word	0x20000bac

10003da4 <tud_cdc_n_read>:
10003da4:	b5f0      	push	{r4, r5, r6, r7, lr}
10003da6:	25b4      	movs	r5, #180	; 0xb4
10003da8:	00ad      	lsls	r5, r5, #2
10003daa:	4345      	muls	r5, r0
10003dac:	002c      	movs	r4, r5
10003dae:	46c6      	mov	lr, r8
10003db0:	4e17      	ldr	r6, [pc, #92]	; (10003e10 <tud_cdc_n_read+0x6c>)
10003db2:	3410      	adds	r4, #16
10003db4:	1934      	adds	r4, r6, r4
10003db6:	b500      	push	{lr}
10003db8:	b292      	uxth	r2, r2
10003dba:	0020      	movs	r0, r4
10003dbc:	f000 fb6e 	bl	1000449c <tu_fifo_read_n>
10003dc0:	0007      	movs	r7, r0
10003dc2:	0020      	movs	r0, r4
10003dc4:	f000 fafe 	bl	100043c4 <tu_fifo_remaining>
10003dc8:	283f      	cmp	r0, #63	; 0x3f
10003dca:	d803      	bhi.n	10003dd4 <tud_cdc_n_read+0x30>
10003dcc:	0038      	movs	r0, r7
10003dce:	bc04      	pop	{r2}
10003dd0:	4690      	mov	r8, r2
10003dd2:	bdf0      	pop	{r4, r5, r6, r7, pc}
10003dd4:	1973      	adds	r3, r6, r5
10003dd6:	78d9      	ldrb	r1, [r3, #3]
10003dd8:	2000      	movs	r0, #0
10003dda:	4698      	mov	r8, r3
10003ddc:	f7ff fe44 	bl	10003a68 <usbd_edpt_claim>
10003de0:	2800      	cmp	r0, #0
10003de2:	d0f3      	beq.n	10003dcc <tud_cdc_n_read+0x28>
10003de4:	0020      	movs	r0, r4
10003de6:	f000 faed 	bl	100043c4 <tu_fifo_remaining>
10003dea:	283f      	cmp	r0, #63	; 0x3f
10003dec:	d805      	bhi.n	10003dfa <tud_cdc_n_read+0x56>
10003dee:	4643      	mov	r3, r8
10003df0:	2000      	movs	r0, #0
10003df2:	78d9      	ldrb	r1, [r3, #3]
10003df4:	f7ff fe66 	bl	10003ac4 <usbd_edpt_release>
10003df8:	e7e8      	b.n	10003dcc <tud_cdc_n_read+0x28>
10003dfa:	2394      	movs	r3, #148	; 0x94
10003dfc:	009b      	lsls	r3, r3, #2
10003dfe:	18ea      	adds	r2, r5, r3
10003e00:	4643      	mov	r3, r8
10003e02:	18b2      	adds	r2, r6, r2
10003e04:	78d9      	ldrb	r1, [r3, #3]
10003e06:	2000      	movs	r0, #0
10003e08:	2340      	movs	r3, #64	; 0x40
10003e0a:	f7ff fe81 	bl	10003b10 <usbd_edpt_xfer>
10003e0e:	e7dd      	b.n	10003dcc <tud_cdc_n_read+0x28>
10003e10:	20000bac 	.word	0x20000bac

10003e14 <tud_cdc_n_write>:
10003e14:	b5f8      	push	{r3, r4, r5, r6, r7, lr}
10003e16:	25b4      	movs	r5, #180	; 0xb4
10003e18:	00ad      	lsls	r5, r5, #2
10003e1a:	4345      	muls	r5, r0
10003e1c:	002c      	movs	r4, r5
10003e1e:	4647      	mov	r7, r8
10003e20:	46ce      	mov	lr, r9
10003e22:	4e25      	ldr	r6, [pc, #148]	; (10003eb8 <tud_cdc_n_write+0xa4>)
10003e24:	3428      	adds	r4, #40	; 0x28
10003e26:	1934      	adds	r4, r6, r4
10003e28:	b580      	push	{r7, lr}
10003e2a:	b292      	uxth	r2, r2
10003e2c:	0007      	movs	r7, r0
10003e2e:	0020      	movs	r0, r4
10003e30:	f000 fc00 	bl	10004634 <tu_fifo_write_n>
10003e34:	4680      	mov	r8, r0
10003e36:	0020      	movs	r0, r4
10003e38:	f000 fab6 	bl	100043a8 <tu_fifo_count>
10003e3c:	283f      	cmp	r0, #63	; 0x3f
10003e3e:	d804      	bhi.n	10003e4a <tud_cdc_n_write+0x36>
10003e40:	4640      	mov	r0, r8
10003e42:	bc0c      	pop	{r2, r3}
10003e44:	4690      	mov	r8, r2
10003e46:	4699      	mov	r9, r3
10003e48:	bdf8      	pop	{r3, r4, r5, r6, r7, pc}
10003e4a:	0020      	movs	r0, r4
10003e4c:	f000 faac 	bl	100043a8 <tu_fifo_count>
10003e50:	2800      	cmp	r0, #0
10003e52:	d0f5      	beq.n	10003e40 <tud_cdc_n_write+0x2c>
10003e54:	1973      	adds	r3, r6, r5
10003e56:	7899      	ldrb	r1, [r3, #2]
10003e58:	2000      	movs	r0, #0
10003e5a:	4699      	mov	r9, r3
10003e5c:	f7ff fe04 	bl	10003a68 <usbd_edpt_claim>
10003e60:	2800      	cmp	r0, #0
10003e62:	d0ed      	beq.n	10003e40 <tud_cdc_n_write+0x2c>
10003e64:	23a4      	movs	r3, #164	; 0xa4
10003e66:	009b      	lsls	r3, r3, #2
10003e68:	469c      	mov	ip, r3
10003e6a:	4465      	add	r5, ip
10003e6c:	1975      	adds	r5, r6, r5
10003e6e:	0020      	movs	r0, r4
10003e70:	2240      	movs	r2, #64	; 0x40
10003e72:	0029      	movs	r1, r5
10003e74:	f000 fb12 	bl	1000449c <tu_fifo_read_n>
10003e78:	1e04      	subs	r4, r0, #0
10003e7a:	d013      	beq.n	10003ea4 <tud_cdc_n_write+0x90>
10003e7c:	f7ff f850 	bl	10002f20 <tud_mounted>
10003e80:	2800      	cmp	r0, #0
10003e82:	d00f      	beq.n	10003ea4 <tud_cdc_n_write+0x90>
10003e84:	f7ff f854 	bl	10002f30 <tud_suspended>
10003e88:	2800      	cmp	r0, #0
10003e8a:	d10b      	bne.n	10003ea4 <tud_cdc_n_write+0x90>
10003e8c:	464b      	mov	r3, r9
10003e8e:	791b      	ldrb	r3, [r3, #4]
10003e90:	07db      	lsls	r3, r3, #31
10003e92:	d507      	bpl.n	10003ea4 <tud_cdc_n_write+0x90>
10003e94:	464b      	mov	r3, r9
10003e96:	002a      	movs	r2, r5
10003e98:	7899      	ldrb	r1, [r3, #2]
10003e9a:	2000      	movs	r0, #0
10003e9c:	0023      	movs	r3, r4
10003e9e:	f7ff fe37 	bl	10003b10 <usbd_edpt_xfer>
10003ea2:	e7cd      	b.n	10003e40 <tud_cdc_n_write+0x2c>
10003ea4:	23b4      	movs	r3, #180	; 0xb4
10003ea6:	009b      	lsls	r3, r3, #2
10003ea8:	435f      	muls	r7, r3
10003eaa:	19f6      	adds	r6, r6, r7
10003eac:	78b1      	ldrb	r1, [r6, #2]
10003eae:	2000      	movs	r0, #0
10003eb0:	f7ff fe08 	bl	10003ac4 <usbd_edpt_release>
10003eb4:	e7c4      	b.n	10003e40 <tud_cdc_n_write+0x2c>
10003eb6:	46c0      	nop			; (mov r8, r8)
10003eb8:	20000bac 	.word	0x20000bac

10003ebc <tud_cdc_n_write_flush>:
10003ebc:	b5f0      	push	{r4, r5, r6, r7, lr}
10003ebe:	24b4      	movs	r4, #180	; 0xb4
10003ec0:	00a4      	lsls	r4, r4, #2
10003ec2:	4344      	muls	r4, r0
10003ec4:	0025      	movs	r5, r4
10003ec6:	46c6      	mov	lr, r8
10003ec8:	4f20      	ldr	r7, [pc, #128]	; (10003f4c <tud_cdc_n_write_flush+0x90>)
10003eca:	3528      	adds	r5, #40	; 0x28
10003ecc:	197d      	adds	r5, r7, r5
10003ece:	b500      	push	{lr}
10003ed0:	0006      	movs	r6, r0
10003ed2:	0028      	movs	r0, r5
10003ed4:	f000 fa68 	bl	100043a8 <tu_fifo_count>
10003ed8:	2800      	cmp	r0, #0
10003eda:	d103      	bne.n	10003ee4 <tud_cdc_n_write_flush+0x28>
10003edc:	2000      	movs	r0, #0
10003ede:	bc04      	pop	{r2}
10003ee0:	4690      	mov	r8, r2
10003ee2:	bdf0      	pop	{r4, r5, r6, r7, pc}
10003ee4:	193b      	adds	r3, r7, r4
10003ee6:	7899      	ldrb	r1, [r3, #2]
10003ee8:	2000      	movs	r0, #0
10003eea:	4698      	mov	r8, r3
10003eec:	f7ff fdbc 	bl	10003a68 <usbd_edpt_claim>
10003ef0:	2800      	cmp	r0, #0
10003ef2:	d0f3      	beq.n	10003edc <tud_cdc_n_write_flush+0x20>
10003ef4:	23a4      	movs	r3, #164	; 0xa4
10003ef6:	009b      	lsls	r3, r3, #2
10003ef8:	469c      	mov	ip, r3
10003efa:	4464      	add	r4, ip
10003efc:	193c      	adds	r4, r7, r4
10003efe:	0028      	movs	r0, r5
10003f00:	2240      	movs	r2, #64	; 0x40
10003f02:	0021      	movs	r1, r4
10003f04:	f000 faca 	bl	1000449c <tu_fifo_read_n>
10003f08:	1e05      	subs	r5, r0, #0
10003f0a:	d003      	beq.n	10003f14 <tud_cdc_n_write_flush+0x58>
10003f0c:	f7ff f808 	bl	10002f20 <tud_mounted>
10003f10:	2800      	cmp	r0, #0
10003f12:	d108      	bne.n	10003f26 <tud_cdc_n_write_flush+0x6a>
10003f14:	23b4      	movs	r3, #180	; 0xb4
10003f16:	009b      	lsls	r3, r3, #2
10003f18:	435e      	muls	r6, r3
10003f1a:	19bf      	adds	r7, r7, r6
10003f1c:	78b9      	ldrb	r1, [r7, #2]
10003f1e:	2000      	movs	r0, #0
10003f20:	f7ff fdd0 	bl	10003ac4 <usbd_edpt_release>
10003f24:	e7da      	b.n	10003edc <tud_cdc_n_write_flush+0x20>
10003f26:	f7ff f803 	bl	10002f30 <tud_suspended>
10003f2a:	2800      	cmp	r0, #0
10003f2c:	d1f2      	bne.n	10003f14 <tud_cdc_n_write_flush+0x58>
10003f2e:	4643      	mov	r3, r8
10003f30:	791b      	ldrb	r3, [r3, #4]
10003f32:	07db      	lsls	r3, r3, #31
10003f34:	d5ee      	bpl.n	10003f14 <tud_cdc_n_write_flush+0x58>
10003f36:	4643      	mov	r3, r8
10003f38:	0022      	movs	r2, r4
10003f3a:	7899      	ldrb	r1, [r3, #2]
10003f3c:	2000      	movs	r0, #0
10003f3e:	002b      	movs	r3, r5
10003f40:	f7ff fde6 	bl	10003b10 <usbd_edpt_xfer>
10003f44:	2800      	cmp	r0, #0
10003f46:	d0c9      	beq.n	10003edc <tud_cdc_n_write_flush+0x20>
10003f48:	0028      	movs	r0, r5
10003f4a:	e7c8      	b.n	10003ede <tud_cdc_n_write_flush+0x22>
10003f4c:	20000bac 	.word	0x20000bac

10003f50 <tud_cdc_n_write_available>:
10003f50:	0003      	movs	r3, r0
10003f52:	20b4      	movs	r0, #180	; 0xb4
10003f54:	0080      	lsls	r0, r0, #2
10003f56:	4358      	muls	r0, r3
10003f58:	b510      	push	{r4, lr}
10003f5a:	4b03      	ldr	r3, [pc, #12]	; (10003f68 <tud_cdc_n_write_available+0x18>)
10003f5c:	3028      	adds	r0, #40	; 0x28
10003f5e:	1818      	adds	r0, r3, r0
10003f60:	f000 fa30 	bl	100043c4 <tu_fifo_remaining>
10003f64:	bd10      	pop	{r4, pc}
10003f66:	46c0      	nop			; (mov r8, r8)
10003f68:	20000bac 	.word	0x20000bac

10003f6c <cdcd_init>:
10003f6c:	22b4      	movs	r2, #180	; 0xb4
10003f6e:	b570      	push	{r4, r5, r6, lr}
10003f70:	4c1a      	ldr	r4, [pc, #104]	; (10003fdc <cdcd_init+0x70>)
10003f72:	b082      	sub	sp, #8
10003f74:	0092      	lsls	r2, r2, #2
10003f76:	2100      	movs	r1, #0
10003f78:	0020      	movs	r0, r4
10003f7a:	f7fe f8e5 	bl	10002148 <__wrap_memset>
10003f7e:	23ff      	movs	r3, #255	; 0xff
10003f80:	7163      	strb	r3, [r4, #5]
10003f82:	4b17      	ldr	r3, [pc, #92]	; (10003fe0 <cdcd_init+0x74>)
10003f84:	2580      	movs	r5, #128	; 0x80
10003f86:	80e3      	strh	r3, [r4, #6]
10003f88:	2301      	movs	r3, #1
10003f8a:	2600      	movs	r6, #0
10003f8c:	0021      	movs	r1, r4
10003f8e:	0020      	movs	r0, r4
10003f90:	8123      	strh	r3, [r4, #8]
10003f92:	006d      	lsls	r5, r5, #1
10003f94:	3307      	adds	r3, #7
10003f96:	7323      	strb	r3, [r4, #12]
10003f98:	002a      	movs	r2, r5
10003f9a:	3140      	adds	r1, #64	; 0x40
10003f9c:	9600      	str	r6, [sp, #0]
10003f9e:	3b07      	subs	r3, #7
10003fa0:	3010      	adds	r0, #16
10003fa2:	f000 f9c1 	bl	10004328 <tu_fifo_config>
10003fa6:	0021      	movs	r1, r4
10003fa8:	0020      	movs	r0, r4
10003faa:	3141      	adds	r1, #65	; 0x41
10003fac:	002a      	movs	r2, r5
10003fae:	31ff      	adds	r1, #255	; 0xff
10003fb0:	9600      	str	r6, [sp, #0]
10003fb2:	2301      	movs	r3, #1
10003fb4:	3028      	adds	r0, #40	; 0x28
10003fb6:	f000 f9b7 	bl	10004328 <tu_fifo_config>
10003fba:	2390      	movs	r3, #144	; 0x90
10003fbc:	009b      	lsls	r3, r3, #2
10003fbe:	18e5      	adds	r5, r4, r3
10003fc0:	0028      	movs	r0, r5
10003fc2:	f7fd f889 	bl	100010d8 <mutex_init>
10003fc6:	2392      	movs	r3, #146	; 0x92
10003fc8:	009b      	lsls	r3, r3, #2
10003fca:	6265      	str	r5, [r4, #36]	; 0x24
10003fcc:	18e5      	adds	r5, r4, r3
10003fce:	0028      	movs	r0, r5
10003fd0:	f7fd f882 	bl	100010d8 <mutex_init>
10003fd4:	63e5      	str	r5, [r4, #60]	; 0x3c
10003fd6:	b002      	add	sp, #8
10003fd8:	bd70      	pop	{r4, r5, r6, pc}
10003fda:	46c0      	nop			; (mov r8, r8)
10003fdc:	20000bac 	.word	0x20000bac
10003fe0:	ffffc200 	.word	0xffffc200

10003fe4 <cdcd_reset>:
10003fe4:	b510      	push	{r4, lr}
10003fe6:	4c07      	ldr	r4, [pc, #28]	; (10004004 <cdcd_reset+0x20>)
10003fe8:	2205      	movs	r2, #5
10003fea:	2100      	movs	r1, #0
10003fec:	0020      	movs	r0, r4
10003fee:	f7fe f8ab 	bl	10002148 <__wrap_memset>
10003ff2:	0020      	movs	r0, r4
10003ff4:	3010      	adds	r0, #16
10003ff6:	f000 fb9b 	bl	10004730 <tu_fifo_clear>
10003ffa:	0020      	movs	r0, r4
10003ffc:	3028      	adds	r0, #40	; 0x28
10003ffe:	f000 fb97 	bl	10004730 <tu_fifo_clear>
10004002:	bd10      	pop	{r4, pc}
10004004:	20000bac 	.word	0x20000bac

10004008 <cdcd_open>:
10004008:	b5f0      	push	{r4, r5, r6, r7, lr}
1000400a:	46c6      	mov	lr, r8
1000400c:	b500      	push	{lr}
1000400e:	794b      	ldrb	r3, [r1, #5]
10004010:	b082      	sub	sp, #8
10004012:	0007      	movs	r7, r0
10004014:	2b02      	cmp	r3, #2
10004016:	d005      	beq.n	10004024 <cdcd_open+0x1c>
10004018:	2500      	movs	r5, #0
1000401a:	0028      	movs	r0, r5
1000401c:	b002      	add	sp, #8
1000401e:	bc04      	pop	{r2}
10004020:	4690      	mov	r8, r2
10004022:	bdf0      	pop	{r4, r5, r6, r7, pc}
10004024:	798b      	ldrb	r3, [r1, #6]
10004026:	2b02      	cmp	r3, #2
10004028:	d1f6      	bne.n	10004018 <cdcd_open+0x10>
1000402a:	79cb      	ldrb	r3, [r1, #7]
1000402c:	2b06      	cmp	r3, #6
1000402e:	d8f3      	bhi.n	10004018 <cdcd_open+0x10>
10004030:	4e2f      	ldr	r6, [pc, #188]	; (100040f0 <cdcd_open+0xe8>)
10004032:	78b3      	ldrb	r3, [r6, #2]
10004034:	2b00      	cmp	r3, #0
10004036:	d1ef      	bne.n	10004018 <cdcd_open+0x10>
10004038:	788b      	ldrb	r3, [r1, #2]
1000403a:	2509      	movs	r5, #9
1000403c:	7033      	strb	r3, [r6, #0]
1000403e:	780c      	ldrb	r4, [r1, #0]
10004040:	190c      	adds	r4, r1, r4
10004042:	7863      	ldrb	r3, [r4, #1]
10004044:	2b24      	cmp	r3, #36	; 0x24
10004046:	d10b      	bne.n	10004060 <cdcd_open+0x58>
10004048:	2a08      	cmp	r2, #8
1000404a:	d802      	bhi.n	10004052 <cdcd_open+0x4a>
1000404c:	e021      	b.n	10004092 <cdcd_open+0x8a>
1000404e:	42aa      	cmp	r2, r5
10004050:	d31f      	bcc.n	10004092 <cdcd_open+0x8a>
10004052:	7823      	ldrb	r3, [r4, #0]
10004054:	18e4      	adds	r4, r4, r3
10004056:	18ed      	adds	r5, r5, r3
10004058:	7863      	ldrb	r3, [r4, #1]
1000405a:	b2ad      	uxth	r5, r5
1000405c:	2b24      	cmp	r3, #36	; 0x24
1000405e:	d0f6      	beq.n	1000404e <cdcd_open+0x46>
10004060:	2b05      	cmp	r3, #5
10004062:	d02d      	beq.n	100040c0 <cdcd_open+0xb8>
10004064:	2b04      	cmp	r3, #4
10004066:	d114      	bne.n	10004092 <cdcd_open+0x8a>
10004068:	7963      	ldrb	r3, [r4, #5]
1000406a:	2b0a      	cmp	r3, #10
1000406c:	d111      	bne.n	10004092 <cdcd_open+0x8a>
1000406e:	7823      	ldrb	r3, [r4, #0]
10004070:	0021      	movs	r1, r4
10004072:	4698      	mov	r8, r3
10004074:	1cb3      	adds	r3, r6, #2
10004076:	9301      	str	r3, [sp, #4]
10004078:	1cf3      	adds	r3, r6, #3
1000407a:	9300      	str	r3, [sp, #0]
1000407c:	4441      	add	r1, r8
1000407e:	2302      	movs	r3, #2
10004080:	2202      	movs	r2, #2
10004082:	0038      	movs	r0, r7
10004084:	f7ff fcae 	bl	100039e4 <usbd_open_edpt_pair>
10004088:	2800      	cmp	r0, #0
1000408a:	d0c5      	beq.n	10004018 <cdcd_open+0x10>
1000408c:	350e      	adds	r5, #14
1000408e:	4445      	add	r5, r8
10004090:	b2ad      	uxth	r5, r5
10004092:	0034      	movs	r4, r6
10004094:	3410      	adds	r4, #16
10004096:	0020      	movs	r0, r4
10004098:	f000 f994 	bl	100043c4 <tu_fifo_remaining>
1000409c:	283f      	cmp	r0, #63	; 0x3f
1000409e:	d9bc      	bls.n	1000401a <cdcd_open+0x12>
100040a0:	78f1      	ldrb	r1, [r6, #3]
100040a2:	2000      	movs	r0, #0
100040a4:	f7ff fce0 	bl	10003a68 <usbd_edpt_claim>
100040a8:	2800      	cmp	r0, #0
100040aa:	d0b6      	beq.n	1000401a <cdcd_open+0x12>
100040ac:	0020      	movs	r0, r4
100040ae:	f000 f989 	bl	100043c4 <tu_fifo_remaining>
100040b2:	283f      	cmp	r0, #63	; 0x3f
100040b4:	d812      	bhi.n	100040dc <cdcd_open+0xd4>
100040b6:	78f1      	ldrb	r1, [r6, #3]
100040b8:	2000      	movs	r0, #0
100040ba:	f7ff fd03 	bl	10003ac4 <usbd_edpt_release>
100040be:	e7ac      	b.n	1000401a <cdcd_open+0x12>
100040c0:	0021      	movs	r1, r4
100040c2:	0038      	movs	r0, r7
100040c4:	f7ff fccc 	bl	10003a60 <usbd_edpt_open>
100040c8:	2800      	cmp	r0, #0
100040ca:	d0a5      	beq.n	10004018 <cdcd_open+0x10>
100040cc:	78a3      	ldrb	r3, [r4, #2]
100040ce:	7073      	strb	r3, [r6, #1]
100040d0:	7823      	ldrb	r3, [r4, #0]
100040d2:	18ed      	adds	r5, r5, r3
100040d4:	18e4      	adds	r4, r4, r3
100040d6:	b2ad      	uxth	r5, r5
100040d8:	7863      	ldrb	r3, [r4, #1]
100040da:	e7c3      	b.n	10004064 <cdcd_open+0x5c>
100040dc:	2394      	movs	r3, #148	; 0x94
100040de:	009b      	lsls	r3, r3, #2
100040e0:	18f2      	adds	r2, r6, r3
100040e2:	78f1      	ldrb	r1, [r6, #3]
100040e4:	2340      	movs	r3, #64	; 0x40
100040e6:	2000      	movs	r0, #0
100040e8:	f7ff fd12 	bl	10003b10 <usbd_edpt_xfer>
100040ec:	e795      	b.n	1000401a <cdcd_open+0x12>
100040ee:	46c0      	nop			; (mov r8, r8)
100040f0:	20000bac 	.word	0x20000bac

100040f4 <cdcd_control_complete>:
100040f4:	2360      	movs	r3, #96	; 0x60
100040f6:	780a      	ldrb	r2, [r1, #0]
100040f8:	b570      	push	{r4, r5, r6, lr}
100040fa:	4013      	ands	r3, r2
100040fc:	2400      	movs	r4, #0
100040fe:	2b20      	cmp	r3, #32
10004100:	d001      	beq.n	10004106 <cdcd_control_complete+0x12>
10004102:	0020      	movs	r0, r4
10004104:	bd70      	pop	{r4, r5, r6, pc}
10004106:	4a0a      	ldr	r2, [pc, #40]	; (10004130 <cdcd_control_complete+0x3c>)
10004108:	794b      	ldrb	r3, [r1, #5]
1000410a:	790d      	ldrb	r5, [r1, #4]
1000410c:	7810      	ldrb	r0, [r2, #0]
1000410e:	021b      	lsls	r3, r3, #8
10004110:	432b      	orrs	r3, r5
10004112:	4298      	cmp	r0, r3
10004114:	d1f5      	bne.n	10004102 <cdcd_control_complete+0xe>
10004116:	784b      	ldrb	r3, [r1, #1]
10004118:	2401      	movs	r4, #1
1000411a:	2b20      	cmp	r3, #32
1000411c:	d1f1      	bne.n	10004102 <cdcd_control_complete+0xe>
1000411e:	4b05      	ldr	r3, [pc, #20]	; (10004134 <cdcd_control_complete+0x40>)
10004120:	2b00      	cmp	r3, #0
10004122:	d0ee      	beq.n	10004102 <cdcd_control_complete+0xe>
10004124:	1d91      	adds	r1, r2, #6
10004126:	2000      	movs	r0, #0
10004128:	e000      	b.n	1000412c <cdcd_control_complete+0x38>
1000412a:	bf00      	nop
1000412c:	e7e9      	b.n	10004102 <cdcd_control_complete+0xe>
1000412e:	46c0      	nop			; (mov r8, r8)
10004130:	20000bac 	.word	0x20000bac
10004134:	00000000 	.word	0x00000000

10004138 <cdcd_control_request>:
10004138:	2360      	movs	r3, #96	; 0x60
1000413a:	780a      	ldrb	r2, [r1, #0]
1000413c:	b570      	push	{r4, r5, r6, lr}
1000413e:	4013      	ands	r3, r2
10004140:	2600      	movs	r6, #0
10004142:	2b20      	cmp	r3, #32
10004144:	d001      	beq.n	1000414a <cdcd_control_request+0x12>
10004146:	0030      	movs	r0, r6
10004148:	bd70      	pop	{r4, r5, r6, pc}
1000414a:	4a19      	ldr	r2, [pc, #100]	; (100041b0 <cdcd_control_request+0x78>)
1000414c:	794b      	ldrb	r3, [r1, #5]
1000414e:	790d      	ldrb	r5, [r1, #4]
10004150:	7814      	ldrb	r4, [r2, #0]
10004152:	021b      	lsls	r3, r3, #8
10004154:	432b      	orrs	r3, r5
10004156:	429c      	cmp	r4, r3
10004158:	d1f5      	bne.n	10004146 <cdcd_control_request+0xe>
1000415a:	784b      	ldrb	r3, [r1, #1]
1000415c:	2b21      	cmp	r3, #33	; 0x21
1000415e:	d01f      	beq.n	100041a0 <cdcd_control_request+0x68>
10004160:	2b22      	cmp	r3, #34	; 0x22
10004162:	d007      	beq.n	10004174 <cdcd_control_request+0x3c>
10004164:	2b20      	cmp	r3, #32
10004166:	d1ee      	bne.n	10004146 <cdcd_control_request+0xe>
10004168:	3206      	adds	r2, #6
1000416a:	3b19      	subs	r3, #25
1000416c:	f7ff fd0c 	bl	10003b88 <tud_control_xfer>
10004170:	2601      	movs	r6, #1
10004172:	e7e8      	b.n	10004146 <cdcd_control_request+0xe>
10004174:	78cb      	ldrb	r3, [r1, #3]
10004176:	788c      	ldrb	r4, [r1, #2]
10004178:	021b      	lsls	r3, r3, #8
1000417a:	4323      	orrs	r3, r4
1000417c:	2401      	movs	r4, #1
1000417e:	0025      	movs	r5, r4
10004180:	7113      	strb	r3, [r2, #4]
10004182:	085e      	lsrs	r6, r3, #1
10004184:	401d      	ands	r5, r3
10004186:	f7ff fce7 	bl	10003b58 <tud_control_status>
1000418a:	4b0a      	ldr	r3, [pc, #40]	; (100041b4 <cdcd_control_request+0x7c>)
1000418c:	4034      	ands	r4, r6
1000418e:	2b00      	cmp	r3, #0
10004190:	d00c      	beq.n	100041ac <cdcd_control_request+0x74>
10004192:	0022      	movs	r2, r4
10004194:	0029      	movs	r1, r5
10004196:	2000      	movs	r0, #0
10004198:	e000      	b.n	1000419c <cdcd_control_request+0x64>
1000419a:	bf00      	nop
1000419c:	2601      	movs	r6, #1
1000419e:	e7d2      	b.n	10004146 <cdcd_control_request+0xe>
100041a0:	3206      	adds	r2, #6
100041a2:	2307      	movs	r3, #7
100041a4:	f7ff fcf0 	bl	10003b88 <tud_control_xfer>
100041a8:	2601      	movs	r6, #1
100041aa:	e7cc      	b.n	10004146 <cdcd_control_request+0xe>
100041ac:	2601      	movs	r6, #1
100041ae:	e7ca      	b.n	10004146 <cdcd_control_request+0xe>
100041b0:	20000bac 	.word	0x20000bac
100041b4:	00000000 	.word	0x00000000

100041b8 <cdcd_xfer_cb>:
100041b8:	b5f0      	push	{r4, r5, r6, r7, lr}
100041ba:	4646      	mov	r6, r8
100041bc:	464f      	mov	r7, r9
100041be:	46d6      	mov	lr, sl
100041c0:	b5c0      	push	{r6, r7, lr}
100041c2:	4d4a      	ldr	r5, [pc, #296]	; (100042ec <cdcd_xfer_cb+0x134>)
100041c4:	4699      	mov	r9, r3
100041c6:	78eb      	ldrb	r3, [r5, #3]
100041c8:	4680      	mov	r8, r0
100041ca:	000e      	movs	r6, r1
100041cc:	428b      	cmp	r3, r1
100041ce:	d009      	beq.n	100041e4 <cdcd_xfer_cb+0x2c>
100041d0:	78ab      	ldrb	r3, [r5, #2]
100041d2:	428b      	cmp	r3, r1
100041d4:	d044      	beq.n	10004260 <cdcd_xfer_cb+0xa8>
100041d6:	2400      	movs	r4, #0
100041d8:	0020      	movs	r0, r4
100041da:	bc1c      	pop	{r2, r3, r4}
100041dc:	4690      	mov	r8, r2
100041de:	4699      	mov	r9, r3
100041e0:	46a2      	mov	sl, r4
100041e2:	bdf0      	pop	{r4, r5, r6, r7, pc}
100041e4:	464b      	mov	r3, r9
100041e6:	2b00      	cmp	r3, #0
100041e8:	d018      	beq.n	1000421c <cdcd_xfer_cb+0x64>
100041ea:	4b41      	ldr	r3, [pc, #260]	; (100042f0 <cdcd_xfer_cb+0x138>)
100041ec:	2b00      	cmp	r3, #0
100041ee:	d064      	beq.n	100042ba <cdcd_xfer_cb+0x102>
100041f0:	2394      	movs	r3, #148	; 0x94
100041f2:	009b      	lsls	r3, r3, #2
100041f4:	001f      	movs	r7, r3
100041f6:	18ec      	adds	r4, r5, r3
100041f8:	2310      	movs	r3, #16
100041fa:	469a      	mov	sl, r3
100041fc:	444f      	add	r7, r9
100041fe:	19ef      	adds	r7, r5, r7
10004200:	44aa      	add	sl, r5
10004202:	0021      	movs	r1, r4
10004204:	4650      	mov	r0, sl
10004206:	f000 f9cd 	bl	100045a4 <tu_fifo_write>
1000420a:	796b      	ldrb	r3, [r5, #5]
1000420c:	2bff      	cmp	r3, #255	; 0xff
1000420e:	d002      	beq.n	10004216 <cdcd_xfer_cb+0x5e>
10004210:	7821      	ldrb	r1, [r4, #0]
10004212:	4299      	cmp	r1, r3
10004214:	d049      	beq.n	100042aa <cdcd_xfer_cb+0xf2>
10004216:	3401      	adds	r4, #1
10004218:	42a7      	cmp	r7, r4
1000421a:	d1f2      	bne.n	10004202 <cdcd_xfer_cb+0x4a>
1000421c:	4b35      	ldr	r3, [pc, #212]	; (100042f4 <cdcd_xfer_cb+0x13c>)
1000421e:	2b00      	cmp	r3, #0
10004220:	d005      	beq.n	1000422e <cdcd_xfer_cb+0x76>
10004222:	0028      	movs	r0, r5
10004224:	3010      	adds	r0, #16
10004226:	f000 f8bf 	bl	100043a8 <tu_fifo_count>
1000422a:	2800      	cmp	r0, #0
1000422c:	d141      	bne.n	100042b2 <cdcd_xfer_cb+0xfa>
1000422e:	002c      	movs	r4, r5
10004230:	3410      	adds	r4, #16
10004232:	0020      	movs	r0, r4
10004234:	f000 f8c6 	bl	100043c4 <tu_fifo_remaining>
10004238:	283f      	cmp	r0, #63	; 0x3f
1000423a:	d90e      	bls.n	1000425a <cdcd_xfer_cb+0xa2>
1000423c:	78e9      	ldrb	r1, [r5, #3]
1000423e:	2000      	movs	r0, #0
10004240:	f7ff fc12 	bl	10003a68 <usbd_edpt_claim>
10004244:	2800      	cmp	r0, #0
10004246:	d008      	beq.n	1000425a <cdcd_xfer_cb+0xa2>
10004248:	0020      	movs	r0, r4
1000424a:	f000 f8bb 	bl	100043c4 <tu_fifo_remaining>
1000424e:	283f      	cmp	r0, #63	; 0x3f
10004250:	d841      	bhi.n	100042d6 <cdcd_xfer_cb+0x11e>
10004252:	78e9      	ldrb	r1, [r5, #3]
10004254:	2000      	movs	r0, #0
10004256:	f7ff fc35 	bl	10003ac4 <usbd_edpt_release>
1000425a:	78ab      	ldrb	r3, [r5, #2]
1000425c:	429e      	cmp	r6, r3
1000425e:	d10a      	bne.n	10004276 <cdcd_xfer_cb+0xbe>
10004260:	4b25      	ldr	r3, [pc, #148]	; (100042f8 <cdcd_xfer_cb+0x140>)
10004262:	2b00      	cmp	r3, #0
10004264:	d002      	beq.n	1000426c <cdcd_xfer_cb+0xb4>
10004266:	2000      	movs	r0, #0
10004268:	e000      	b.n	1000426c <cdcd_xfer_cb+0xb4>
1000426a:	bf00      	nop
1000426c:	2000      	movs	r0, #0
1000426e:	f7ff fe25 	bl	10003ebc <tud_cdc_n_write_flush>
10004272:	2800      	cmp	r0, #0
10004274:	d001      	beq.n	1000427a <cdcd_xfer_cb+0xc2>
10004276:	2401      	movs	r4, #1
10004278:	e7ae      	b.n	100041d8 <cdcd_xfer_cb+0x20>
1000427a:	0028      	movs	r0, r5
1000427c:	3028      	adds	r0, #40	; 0x28
1000427e:	f000 f893 	bl	100043a8 <tu_fifo_count>
10004282:	2800      	cmp	r0, #0
10004284:	d1f7      	bne.n	10004276 <cdcd_xfer_cb+0xbe>
10004286:	464b      	mov	r3, r9
10004288:	2b00      	cmp	r3, #0
1000428a:	d0f4      	beq.n	10004276 <cdcd_xfer_cb+0xbe>
1000428c:	069b      	lsls	r3, r3, #26
1000428e:	d1f2      	bne.n	10004276 <cdcd_xfer_cb+0xbe>
10004290:	78a9      	ldrb	r1, [r5, #2]
10004292:	4640      	mov	r0, r8
10004294:	f7ff fbe8 	bl	10003a68 <usbd_edpt_claim>
10004298:	1e04      	subs	r4, r0, #0
1000429a:	d0ec      	beq.n	10004276 <cdcd_xfer_cb+0xbe>
1000429c:	78a9      	ldrb	r1, [r5, #2]
1000429e:	2300      	movs	r3, #0
100042a0:	2200      	movs	r2, #0
100042a2:	4640      	mov	r0, r8
100042a4:	f7ff fc34 	bl	10003b10 <usbd_edpt_xfer>
100042a8:	e796      	b.n	100041d8 <cdcd_xfer_cb+0x20>
100042aa:	2000      	movs	r0, #0
100042ac:	e000      	b.n	100042b0 <cdcd_xfer_cb+0xf8>
100042ae:	bf00      	nop
100042b0:	e7b1      	b.n	10004216 <cdcd_xfer_cb+0x5e>
100042b2:	2000      	movs	r0, #0
100042b4:	e000      	b.n	100042b8 <cdcd_xfer_cb+0x100>
100042b6:	bf00      	nop
100042b8:	e7b9      	b.n	1000422e <cdcd_xfer_cb+0x76>
100042ba:	002f      	movs	r7, r5
100042bc:	2400      	movs	r4, #0
100042be:	3710      	adds	r7, #16
100042c0:	2394      	movs	r3, #148	; 0x94
100042c2:	009b      	lsls	r3, r3, #2
100042c4:	18e1      	adds	r1, r4, r3
100042c6:	1869      	adds	r1, r5, r1
100042c8:	0038      	movs	r0, r7
100042ca:	3401      	adds	r4, #1
100042cc:	f000 f96a 	bl	100045a4 <tu_fifo_write>
100042d0:	454c      	cmp	r4, r9
100042d2:	d1f5      	bne.n	100042c0 <cdcd_xfer_cb+0x108>
100042d4:	e7a2      	b.n	1000421c <cdcd_xfer_cb+0x64>
100042d6:	2394      	movs	r3, #148	; 0x94
100042d8:	009b      	lsls	r3, r3, #2
100042da:	18ea      	adds	r2, r5, r3
100042dc:	78e9      	ldrb	r1, [r5, #3]
100042de:	2340      	movs	r3, #64	; 0x40
100042e0:	2000      	movs	r0, #0
100042e2:	f7ff fc15 	bl	10003b10 <usbd_edpt_xfer>
100042e6:	78ab      	ldrb	r3, [r5, #2]
100042e8:	e7b8      	b.n	1000425c <cdcd_xfer_cb+0xa4>
100042ea:	46c0      	nop			; (mov r8, r8)
100042ec:	20000bac 	.word	0x20000bac
	...

100042fc <tusb_init>:
100042fc:	b570      	push	{r4, r5, r6, lr}
100042fe:	4d06      	ldr	r5, [pc, #24]	; (10004318 <tusb_init+0x1c>)
10004300:	782c      	ldrb	r4, [r5, #0]
10004302:	2c00      	cmp	r4, #0
10004304:	d001      	beq.n	1000430a <tusb_init+0xe>
10004306:	0020      	movs	r0, r4
10004308:	bd70      	pop	{r4, r5, r6, pc}
1000430a:	f7fe fe19 	bl	10002f40 <tud_init>
1000430e:	2800      	cmp	r0, #0
10004310:	d0f9      	beq.n	10004306 <tusb_init+0xa>
10004312:	2301      	movs	r3, #1
10004314:	702b      	strb	r3, [r5, #0]
10004316:	e7f6      	b.n	10004306 <tusb_init+0xa>
10004318:	2000163d 	.word	0x2000163d

1000431c <tusb_inited>:
1000431c:	4b01      	ldr	r3, [pc, #4]	; (10004324 <tusb_inited+0x8>)
1000431e:	7818      	ldrb	r0, [r3, #0]
10004320:	4770      	bx	lr
10004322:	46c0      	nop			; (mov r8, r8)
10004324:	2000163d 	.word	0x2000163d

10004328 <tu_fifo_config>:
10004328:	b5f8      	push	{r3, r4, r5, r6, r7, lr}
1000432a:	4647      	mov	r7, r8
1000432c:	46ce      	mov	lr, r9
1000432e:	b580      	push	{r7, lr}
10004330:	001f      	movs	r7, r3
10004332:	ab08      	add	r3, sp, #32
10004334:	781b      	ldrb	r3, [r3, #0]
10004336:	0005      	movs	r5, r0
10004338:	4699      	mov	r9, r3
1000433a:	2380      	movs	r3, #128	; 0x80
1000433c:	4688      	mov	r8, r1
1000433e:	0014      	movs	r4, r2
10004340:	021b      	lsls	r3, r3, #8
10004342:	2600      	movs	r6, #0
10004344:	429a      	cmp	r2, r3
10004346:	d81a      	bhi.n	1000437e <tu_fifo_config+0x56>
10004348:	6940      	ldr	r0, [r0, #20]
1000434a:	2800      	cmp	r0, #0
1000434c:	d01c      	beq.n	10004388 <tu_fifo_config+0x60>
1000434e:	2101      	movs	r1, #1
10004350:	4249      	negs	r1, r1
10004352:	f001 fb39 	bl	100059c8 <__mutex_enter_timeout_ms_veneer>
10004356:	4643      	mov	r3, r8
10004358:	602b      	str	r3, [r5, #0]
1000435a:	464b      	mov	r3, r9
1000435c:	80ac      	strh	r4, [r5, #4]
1000435e:	0064      	lsls	r4, r4, #1
10004360:	b2a4      	uxth	r4, r4
10004362:	6968      	ldr	r0, [r5, #20]
10004364:	722b      	strb	r3, [r5, #8]
10004366:	1e63      	subs	r3, r4, #1
10004368:	4264      	negs	r4, r4
1000436a:	81ee      	strh	r6, [r5, #14]
1000436c:	80ef      	strh	r7, [r5, #6]
1000436e:	822e      	strh	r6, [r5, #16]
10004370:	81ab      	strh	r3, [r5, #12]
10004372:	816c      	strh	r4, [r5, #10]
10004374:	3601      	adds	r6, #1
10004376:	2800      	cmp	r0, #0
10004378:	d001      	beq.n	1000437e <tu_fifo_config+0x56>
1000437a:	f001 fb0d 	bl	10005998 <__mutex_exit_veneer>
1000437e:	0030      	movs	r0, r6
10004380:	bc0c      	pop	{r2, r3}
10004382:	4690      	mov	r8, r2
10004384:	4699      	mov	r9, r3
10004386:	bdf8      	pop	{r3, r4, r5, r6, r7, pc}
10004388:	464b      	mov	r3, r9
1000438a:	0054      	lsls	r4, r2, #1
1000438c:	b2a4      	uxth	r4, r4
1000438e:	722b      	strb	r3, [r5, #8]
10004390:	1e63      	subs	r3, r4, #1
10004392:	4264      	negs	r4, r4
10004394:	81ee      	strh	r6, [r5, #14]
10004396:	6029      	str	r1, [r5, #0]
10004398:	822e      	strh	r6, [r5, #16]
1000439a:	80aa      	strh	r2, [r5, #4]
1000439c:	80ef      	strh	r7, [r5, #6]
1000439e:	81ab      	strh	r3, [r5, #12]
100043a0:	816c      	strh	r4, [r5, #10]
100043a2:	2601      	movs	r6, #1
100043a4:	e7eb      	b.n	1000437e <tu_fifo_config+0x56>
100043a6:	46c0      	nop			; (mov r8, r8)

100043a8 <tu_fifo_count>:
100043a8:	89c1      	ldrh	r1, [r0, #14]
100043aa:	8a02      	ldrh	r2, [r0, #16]
100043ac:	b289      	uxth	r1, r1
100043ae:	b292      	uxth	r2, r2
100043b0:	1a8b      	subs	r3, r1, r2
100043b2:	b29b      	uxth	r3, r3
100043b4:	4291      	cmp	r1, r2
100043b6:	d202      	bcs.n	100043be <tu_fifo_count+0x16>
100043b8:	8940      	ldrh	r0, [r0, #10]
100043ba:	1a1b      	subs	r3, r3, r0
100043bc:	b29b      	uxth	r3, r3
100043be:	0018      	movs	r0, r3
100043c0:	4770      	bx	lr
100043c2:	46c0      	nop			; (mov r8, r8)

100043c4 <tu_fifo_remaining>:
100043c4:	b510      	push	{r4, lr}
100043c6:	89c4      	ldrh	r4, [r0, #14]
100043c8:	8a01      	ldrh	r1, [r0, #16]
100043ca:	b2a4      	uxth	r4, r4
100043cc:	b289      	uxth	r1, r1
100043ce:	1a63      	subs	r3, r4, r1
100043d0:	8882      	ldrh	r2, [r0, #4]
100043d2:	b29b      	uxth	r3, r3
100043d4:	428c      	cmp	r4, r1
100043d6:	d202      	bcs.n	100043de <tu_fifo_remaining+0x1a>
100043d8:	8940      	ldrh	r0, [r0, #10]
100043da:	1a1b      	subs	r3, r3, r0
100043dc:	b29b      	uxth	r3, r3
100043de:	1ad0      	subs	r0, r2, r3
100043e0:	b280      	uxth	r0, r0
100043e2:	bd10      	pop	{r4, pc}

100043e4 <tu_fifo_read>:
100043e4:	b570      	push	{r4, r5, r6, lr}
100043e6:	0004      	movs	r4, r0
100043e8:	6940      	ldr	r0, [r0, #20]
100043ea:	000d      	movs	r5, r1
100043ec:	2800      	cmp	r0, #0
100043ee:	d003      	beq.n	100043f8 <tu_fifo_read+0x14>
100043f0:	2101      	movs	r1, #1
100043f2:	4249      	negs	r1, r1
100043f4:	f001 fae8 	bl	100059c8 <__mutex_enter_timeout_ms_veneer>
100043f8:	89e0      	ldrh	r0, [r4, #14]
100043fa:	8a21      	ldrh	r1, [r4, #16]
100043fc:	b280      	uxth	r0, r0
100043fe:	b289      	uxth	r1, r1
10004400:	1a42      	subs	r2, r0, r1
10004402:	b292      	uxth	r2, r2
10004404:	4288      	cmp	r0, r1
10004406:	d202      	bcs.n	1000440e <tu_fifo_read+0x2a>
10004408:	8963      	ldrh	r3, [r4, #10]
1000440a:	1ad2      	subs	r2, r2, r3
1000440c:	b292      	uxth	r2, r2
1000440e:	88a3      	ldrh	r3, [r4, #4]
10004410:	4293      	cmp	r3, r2
10004412:	d329      	bcc.n	10004468 <tu_fifo_read+0x84>
10004414:	89a0      	ldrh	r0, [r4, #12]
10004416:	2a00      	cmp	r2, #0
10004418:	d030      	beq.n	1000447c <tu_fifo_read+0x98>
1000441a:	4281      	cmp	r1, r0
1000441c:	dd06      	ble.n	1000442c <tu_fifo_read+0x48>
1000441e:	8962      	ldrh	r2, [r4, #10]
10004420:	1889      	adds	r1, r1, r2
10004422:	b289      	uxth	r1, r1
10004424:	428b      	cmp	r3, r1
10004426:	d803      	bhi.n	10004430 <tu_fifo_read+0x4c>
10004428:	1ac9      	subs	r1, r1, r3
1000442a:	b289      	uxth	r1, r1
1000442c:	428b      	cmp	r3, r1
1000442e:	d9fb      	bls.n	10004428 <tu_fifo_read+0x44>
10004430:	6823      	ldr	r3, [r4, #0]
10004432:	88e2      	ldrh	r2, [r4, #6]
10004434:	469c      	mov	ip, r3
10004436:	4351      	muls	r1, r2
10004438:	0028      	movs	r0, r5
1000443a:	4461      	add	r1, ip
1000443c:	f7fd fe8a 	bl	10002154 <__wrap___aeabi_memcpy>
10004440:	2201      	movs	r2, #1
10004442:	8a23      	ldrh	r3, [r4, #16]
10004444:	89a0      	ldrh	r0, [r4, #12]
10004446:	b29b      	uxth	r3, r3
10004448:	1c59      	adds	r1, r3, #1
1000444a:	2501      	movs	r5, #1
1000444c:	189b      	adds	r3, r3, r2
1000444e:	4281      	cmp	r1, r0
10004450:	dd1c      	ble.n	1000448c <tu_fifo_read+0xa8>
10004452:	8962      	ldrh	r2, [r4, #10]
10004454:	189b      	adds	r3, r3, r2
10004456:	b29b      	uxth	r3, r3
10004458:	6960      	ldr	r0, [r4, #20]
1000445a:	8223      	strh	r3, [r4, #16]
1000445c:	2800      	cmp	r0, #0
1000445e:	d001      	beq.n	10004464 <tu_fifo_read+0x80>
10004460:	f001 fa9a 	bl	10005998 <__mutex_exit_veneer>
10004464:	0028      	movs	r0, r5
10004466:	bd70      	pop	{r4, r5, r6, pc}
10004468:	1ac2      	subs	r2, r0, r3
1000446a:	4290      	cmp	r0, r2
1000446c:	da10      	bge.n	10004490 <tu_fifo_read+0xac>
1000446e:	89a0      	ldrh	r0, [r4, #12]
10004470:	8966      	ldrh	r6, [r4, #10]
10004472:	1b92      	subs	r2, r2, r6
10004474:	b292      	uxth	r2, r2
10004476:	8222      	strh	r2, [r4, #16]
10004478:	1e1a      	subs	r2, r3, #0
1000447a:	d1ce      	bne.n	1000441a <tu_fifo_read+0x36>
1000447c:	2200      	movs	r2, #0
1000447e:	8a23      	ldrh	r3, [r4, #16]
10004480:	2500      	movs	r5, #0
10004482:	b29b      	uxth	r3, r3
10004484:	0019      	movs	r1, r3
10004486:	189b      	adds	r3, r3, r2
10004488:	4281      	cmp	r1, r0
1000448a:	dce2      	bgt.n	10004452 <tu_fifo_read+0x6e>
1000448c:	b29b      	uxth	r3, r3
1000448e:	e7e3      	b.n	10004458 <tu_fifo_read+0x74>
10004490:	89a0      	ldrh	r0, [r4, #12]
10004492:	4282      	cmp	r2, r0
10004494:	dcec      	bgt.n	10004470 <tu_fifo_read+0x8c>
10004496:	b292      	uxth	r2, r2
10004498:	e7ed      	b.n	10004476 <tu_fifo_read+0x92>
1000449a:	46c0      	nop			; (mov r8, r8)

1000449c <tu_fifo_read_n>:
1000449c:	b5f0      	push	{r4, r5, r6, r7, lr}
1000449e:	46c6      	mov	lr, r8
100044a0:	0004      	movs	r4, r0
100044a2:	6940      	ldr	r0, [r0, #20]
100044a4:	b500      	push	{lr}
100044a6:	4688      	mov	r8, r1
100044a8:	0015      	movs	r5, r2
100044aa:	2800      	cmp	r0, #0
100044ac:	d003      	beq.n	100044b6 <tu_fifo_read_n+0x1a>
100044ae:	2101      	movs	r1, #1
100044b0:	4249      	negs	r1, r1
100044b2:	f001 fa89 	bl	100059c8 <__mutex_enter_timeout_ms_veneer>
100044b6:	89e3      	ldrh	r3, [r4, #14]
100044b8:	8a21      	ldrh	r1, [r4, #16]
100044ba:	b29b      	uxth	r3, r3
100044bc:	b289      	uxth	r1, r1
100044be:	1a5e      	subs	r6, r3, r1
100044c0:	b2b6      	uxth	r6, r6
100044c2:	428b      	cmp	r3, r1
100044c4:	d202      	bcs.n	100044cc <tu_fifo_read_n+0x30>
100044c6:	8962      	ldrh	r2, [r4, #10]
100044c8:	1ab6      	subs	r6, r6, r2
100044ca:	b2b6      	uxth	r6, r6
100044cc:	88a7      	ldrh	r7, [r4, #4]
100044ce:	42b7      	cmp	r7, r6
100044d0:	d336      	bcc.n	10004540 <tu_fifo_read_n+0xa4>
100044d2:	89a0      	ldrh	r0, [r4, #12]
100044d4:	2e00      	cmp	r6, #0
100044d6:	d040      	beq.n	1000455a <tu_fifo_read_n+0xbe>
100044d8:	1c2b      	adds	r3, r5, #0
100044da:	42b5      	cmp	r5, r6
100044dc:	d851      	bhi.n	10004582 <tu_fifo_read_n+0xe6>
100044de:	b29e      	uxth	r6, r3
100044e0:	4281      	cmp	r1, r0
100044e2:	dd06      	ble.n	100044f2 <tu_fifo_read_n+0x56>
100044e4:	8963      	ldrh	r3, [r4, #10]
100044e6:	18c9      	adds	r1, r1, r3
100044e8:	b289      	uxth	r1, r1
100044ea:	428f      	cmp	r7, r1
100044ec:	d803      	bhi.n	100044f6 <tu_fifo_read_n+0x5a>
100044ee:	1bc9      	subs	r1, r1, r7
100044f0:	b289      	uxth	r1, r1
100044f2:	428f      	cmp	r7, r1
100044f4:	d9fb      	bls.n	100044ee <tu_fifo_read_n+0x52>
100044f6:	198b      	adds	r3, r1, r6
100044f8:	42bb      	cmp	r3, r7
100044fa:	dd47      	ble.n	1000458c <tu_fifo_read_n+0xf0>
100044fc:	1a7d      	subs	r5, r7, r1
100044fe:	b2ad      	uxth	r5, r5
10004500:	002a      	movs	r2, r5
10004502:	88e3      	ldrh	r3, [r4, #6]
10004504:	4640      	mov	r0, r8
10004506:	435a      	muls	r2, r3
10004508:	4359      	muls	r1, r3
1000450a:	6823      	ldr	r3, [r4, #0]
1000450c:	469c      	mov	ip, r3
1000450e:	4461      	add	r1, ip
10004510:	f7fd fe20 	bl	10002154 <__wrap___aeabi_memcpy>
10004514:	88e3      	ldrh	r3, [r4, #6]
10004516:	1b72      	subs	r2, r6, r5
10004518:	0018      	movs	r0, r3
1000451a:	4368      	muls	r0, r5
1000451c:	435a      	muls	r2, r3
1000451e:	4440      	add	r0, r8
10004520:	6821      	ldr	r1, [r4, #0]
10004522:	f7fd fe17 	bl	10002154 <__wrap___aeabi_memcpy>
10004526:	8a22      	ldrh	r2, [r4, #16]
10004528:	b292      	uxth	r2, r2
1000452a:	1993      	adds	r3, r2, r6
1000452c:	0019      	movs	r1, r3
1000452e:	429a      	cmp	r2, r3
10004530:	dc02      	bgt.n	10004538 <tu_fifo_read_n+0x9c>
10004532:	89a0      	ldrh	r0, [r4, #12]
10004534:	4281      	cmp	r1, r0
10004536:	dd15      	ble.n	10004564 <tu_fifo_read_n+0xc8>
10004538:	8962      	ldrh	r2, [r4, #10]
1000453a:	189b      	adds	r3, r3, r2
1000453c:	b29b      	uxth	r3, r3
1000453e:	e012      	b.n	10004566 <tu_fifo_read_n+0xca>
10004540:	1bda      	subs	r2, r3, r7
10004542:	89a0      	ldrh	r0, [r4, #12]
10004544:	4293      	cmp	r3, r2
10004546:	da18      	bge.n	1000457a <tu_fifo_read_n+0xde>
10004548:	8963      	ldrh	r3, [r4, #10]
1000454a:	1ad2      	subs	r2, r2, r3
1000454c:	b292      	uxth	r2, r2
1000454e:	8222      	strh	r2, [r4, #16]
10004550:	8a21      	ldrh	r1, [r4, #16]
10004552:	003e      	movs	r6, r7
10004554:	b289      	uxth	r1, r1
10004556:	2e00      	cmp	r6, #0
10004558:	d1be      	bne.n	100044d8 <tu_fifo_read_n+0x3c>
1000455a:	8a21      	ldrh	r1, [r4, #16]
1000455c:	b289      	uxth	r1, r1
1000455e:	000b      	movs	r3, r1
10004560:	4281      	cmp	r1, r0
10004562:	dce9      	bgt.n	10004538 <tu_fifo_read_n+0x9c>
10004564:	b29b      	uxth	r3, r3
10004566:	6960      	ldr	r0, [r4, #20]
10004568:	8223      	strh	r3, [r4, #16]
1000456a:	2800      	cmp	r0, #0
1000456c:	d001      	beq.n	10004572 <tu_fifo_read_n+0xd6>
1000456e:	f001 fa13 	bl	10005998 <__mutex_exit_veneer>
10004572:	0030      	movs	r0, r6
10004574:	bc04      	pop	{r2}
10004576:	4690      	mov	r8, r2
10004578:	bdf0      	pop	{r4, r5, r6, r7, pc}
1000457a:	4282      	cmp	r2, r0
1000457c:	dce4      	bgt.n	10004548 <tu_fifo_read_n+0xac>
1000457e:	b292      	uxth	r2, r2
10004580:	e7e5      	b.n	1000454e <tu_fifo_read_n+0xb2>
10004582:	1c33      	adds	r3, r6, #0
10004584:	b29e      	uxth	r6, r3
10004586:	4281      	cmp	r1, r0
10004588:	ddb3      	ble.n	100044f2 <tu_fifo_read_n+0x56>
1000458a:	e7ab      	b.n	100044e4 <tu_fifo_read_n+0x48>
1000458c:	88e3      	ldrh	r3, [r4, #6]
1000458e:	4640      	mov	r0, r8
10004590:	001a      	movs	r2, r3
10004592:	4359      	muls	r1, r3
10004594:	6823      	ldr	r3, [r4, #0]
10004596:	4372      	muls	r2, r6
10004598:	469c      	mov	ip, r3
1000459a:	4461      	add	r1, ip
1000459c:	f7fd fdda 	bl	10002154 <__wrap___aeabi_memcpy>
100045a0:	e7c1      	b.n	10004526 <tu_fifo_read_n+0x8a>
100045a2:	46c0      	nop			; (mov r8, r8)

100045a4 <tu_fifo_write>:
100045a4:	b570      	push	{r4, r5, r6, lr}
100045a6:	0004      	movs	r4, r0
100045a8:	6940      	ldr	r0, [r0, #20]
100045aa:	000e      	movs	r6, r1
100045ac:	2800      	cmp	r0, #0
100045ae:	d003      	beq.n	100045b8 <tu_fifo_write+0x14>
100045b0:	2101      	movs	r1, #1
100045b2:	4249      	negs	r1, r1
100045b4:	f001 fa08 	bl	100059c8 <__mutex_enter_timeout_ms_veneer>
100045b8:	89e5      	ldrh	r5, [r4, #14]
100045ba:	8a23      	ldrh	r3, [r4, #16]
100045bc:	b2ad      	uxth	r5, r5
100045be:	b29b      	uxth	r3, r3
100045c0:	1aea      	subs	r2, r5, r3
100045c2:	b292      	uxth	r2, r2
100045c4:	429d      	cmp	r5, r3
100045c6:	d202      	bcs.n	100045ce <tu_fifo_write+0x2a>
100045c8:	8963      	ldrh	r3, [r4, #10]
100045ca:	1ad2      	subs	r2, r2, r3
100045cc:	b292      	uxth	r2, r2
100045ce:	88a3      	ldrh	r3, [r4, #4]
100045d0:	4293      	cmp	r3, r2
100045d2:	d02b      	beq.n	1000462c <tu_fifo_write+0x88>
100045d4:	89a2      	ldrh	r2, [r4, #12]
100045d6:	0028      	movs	r0, r5
100045d8:	4295      	cmp	r5, r2
100045da:	dd06      	ble.n	100045ea <tu_fifo_write+0x46>
100045dc:	8960      	ldrh	r0, [r4, #10]
100045de:	1828      	adds	r0, r5, r0
100045e0:	b280      	uxth	r0, r0
100045e2:	4283      	cmp	r3, r0
100045e4:	d803      	bhi.n	100045ee <tu_fifo_write+0x4a>
100045e6:	1ac0      	subs	r0, r0, r3
100045e8:	b280      	uxth	r0, r0
100045ea:	4283      	cmp	r3, r0
100045ec:	d9fb      	bls.n	100045e6 <tu_fifo_write+0x42>
100045ee:	6823      	ldr	r3, [r4, #0]
100045f0:	88e2      	ldrh	r2, [r4, #6]
100045f2:	469c      	mov	ip, r3
100045f4:	4350      	muls	r0, r2
100045f6:	0031      	movs	r1, r6
100045f8:	4460      	add	r0, ip
100045fa:	f7fd fdab 	bl	10002154 <__wrap___aeabi_memcpy>
100045fe:	89a3      	ldrh	r3, [r4, #12]
10004600:	42ab      	cmp	r3, r5
10004602:	dd09      	ble.n	10004618 <tu_fifo_write+0x74>
10004604:	3501      	adds	r5, #1
10004606:	6960      	ldr	r0, [r4, #20]
10004608:	b2ad      	uxth	r5, r5
1000460a:	81e5      	strh	r5, [r4, #14]
1000460c:	2800      	cmp	r0, #0
1000460e:	d00b      	beq.n	10004628 <tu_fifo_write+0x84>
10004610:	f001 f9c2 	bl	10005998 <__mutex_exit_veneer>
10004614:	2001      	movs	r0, #1
10004616:	bd70      	pop	{r4, r5, r6, pc}
10004618:	8963      	ldrh	r3, [r4, #10]
1000461a:	6960      	ldr	r0, [r4, #20]
1000461c:	18ed      	adds	r5, r5, r3
1000461e:	3501      	adds	r5, #1
10004620:	b2ad      	uxth	r5, r5
10004622:	81e5      	strh	r5, [r4, #14]
10004624:	2800      	cmp	r0, #0
10004626:	d1f3      	bne.n	10004610 <tu_fifo_write+0x6c>
10004628:	2001      	movs	r0, #1
1000462a:	e7f4      	b.n	10004616 <tu_fifo_write+0x72>
1000462c:	7a20      	ldrb	r0, [r4, #8]
1000462e:	2800      	cmp	r0, #0
10004630:	d1d0      	bne.n	100045d4 <tu_fifo_write+0x30>
10004632:	e7f0      	b.n	10004616 <tu_fifo_write+0x72>

10004634 <tu_fifo_write_n>:
10004634:	b5f8      	push	{r3, r4, r5, r6, r7, lr}
10004636:	4647      	mov	r7, r8
10004638:	46ce      	mov	lr, r9
1000463a:	0004      	movs	r4, r0
1000463c:	b580      	push	{r7, lr}
1000463e:	4688      	mov	r8, r1
10004640:	0015      	movs	r5, r2
10004642:	2700      	movs	r7, #0
10004644:	2a00      	cmp	r2, #0
10004646:	d051      	beq.n	100046ec <tu_fifo_write_n+0xb8>
10004648:	6940      	ldr	r0, [r0, #20]
1000464a:	2800      	cmp	r0, #0
1000464c:	d003      	beq.n	10004656 <tu_fifo_write_n+0x22>
1000464e:	2101      	movs	r1, #1
10004650:	4249      	negs	r1, r1
10004652:	f001 f9b9 	bl	100059c8 <__mutex_enter_timeout_ms_veneer>
10004656:	89e6      	ldrh	r6, [r4, #14]
10004658:	7a23      	ldrb	r3, [r4, #8]
1000465a:	8a21      	ldrh	r1, [r4, #16]
1000465c:	b2b6      	uxth	r6, r6
1000465e:	b289      	uxth	r1, r1
10004660:	2b00      	cmp	r3, #0
10004662:	d148      	bne.n	100046f6 <tu_fifo_write_n+0xc2>
10004664:	1a72      	subs	r2, r6, r1
10004666:	88a3      	ldrh	r3, [r4, #4]
10004668:	b292      	uxth	r2, r2
1000466a:	428e      	cmp	r6, r1
1000466c:	d202      	bcs.n	10004674 <tu_fifo_write_n+0x40>
1000466e:	8961      	ldrh	r1, [r4, #10]
10004670:	1a52      	subs	r2, r2, r1
10004672:	b292      	uxth	r2, r2
10004674:	1a9a      	subs	r2, r3, r2
10004676:	1c17      	adds	r7, r2, #0
10004678:	b292      	uxth	r2, r2
1000467a:	42aa      	cmp	r2, r5
1000467c:	d850      	bhi.n	10004720 <tu_fifo_write_n+0xec>
1000467e:	b2bf      	uxth	r7, r7
10004680:	003d      	movs	r5, r7
10004682:	88e2      	ldrh	r2, [r4, #6]
10004684:	89a1      	ldrh	r1, [r4, #12]
10004686:	0030      	movs	r0, r6
10004688:	428e      	cmp	r6, r1
1000468a:	dd05      	ble.n	10004698 <tu_fifo_write_n+0x64>
1000468c:	8960      	ldrh	r0, [r4, #10]
1000468e:	1830      	adds	r0, r6, r0
10004690:	b280      	uxth	r0, r0
10004692:	e001      	b.n	10004698 <tu_fifo_write_n+0x64>
10004694:	1ac0      	subs	r0, r0, r3
10004696:	b280      	uxth	r0, r0
10004698:	4298      	cmp	r0, r3
1000469a:	d2fb      	bcs.n	10004694 <tu_fifo_write_n+0x60>
1000469c:	1941      	adds	r1, r0, r5
1000469e:	4299      	cmp	r1, r3
100046a0:	dd35      	ble.n	1000470e <tu_fifo_write_n+0xda>
100046a2:	1a1b      	subs	r3, r3, r0
100046a4:	b29b      	uxth	r3, r3
100046a6:	4699      	mov	r9, r3
100046a8:	6823      	ldr	r3, [r4, #0]
100046aa:	4350      	muls	r0, r2
100046ac:	469c      	mov	ip, r3
100046ae:	464b      	mov	r3, r9
100046b0:	4641      	mov	r1, r8
100046b2:	435a      	muls	r2, r3
100046b4:	4460      	add	r0, ip
100046b6:	f7fd fd4d 	bl	10002154 <__wrap___aeabi_memcpy>
100046ba:	464b      	mov	r3, r9
100046bc:	88e1      	ldrh	r1, [r4, #6]
100046be:	1aea      	subs	r2, r5, r3
100046c0:	434a      	muls	r2, r1
100046c2:	4359      	muls	r1, r3
100046c4:	6820      	ldr	r0, [r4, #0]
100046c6:	4441      	add	r1, r8
100046c8:	f7fd fd44 	bl	10002154 <__wrap___aeabi_memcpy>
100046cc:	1975      	adds	r5, r6, r5
100046ce:	42b5      	cmp	r5, r6
100046d0:	db02      	blt.n	100046d8 <tu_fifo_write_n+0xa4>
100046d2:	89a3      	ldrh	r3, [r4, #12]
100046d4:	429d      	cmp	r5, r3
100046d6:	dd28      	ble.n	1000472a <tu_fifo_write_n+0xf6>
100046d8:	8963      	ldrh	r3, [r4, #10]
100046da:	18f6      	adds	r6, r6, r3
100046dc:	19be      	adds	r6, r7, r6
100046de:	b2b6      	uxth	r6, r6
100046e0:	6960      	ldr	r0, [r4, #20]
100046e2:	81e6      	strh	r6, [r4, #14]
100046e4:	2800      	cmp	r0, #0
100046e6:	d001      	beq.n	100046ec <tu_fifo_write_n+0xb8>
100046e8:	f001 f956 	bl	10005998 <__mutex_exit_veneer>
100046ec:	0038      	movs	r0, r7
100046ee:	bc0c      	pop	{r2, r3}
100046f0:	4690      	mov	r8, r2
100046f2:	4699      	mov	r9, r3
100046f4:	bdf8      	pop	{r3, r4, r5, r6, r7, pc}
100046f6:	88a3      	ldrh	r3, [r4, #4]
100046f8:	88e2      	ldrh	r2, [r4, #6]
100046fa:	002f      	movs	r7, r5
100046fc:	429d      	cmp	r5, r3
100046fe:	d9c1      	bls.n	10004684 <tu_fifo_write_n+0x50>
10004700:	1aed      	subs	r5, r5, r3
10004702:	4355      	muls	r5, r2
10004704:	81e1      	strh	r1, [r4, #14]
10004706:	44a8      	add	r8, r5
10004708:	001f      	movs	r7, r3
1000470a:	001d      	movs	r5, r3
1000470c:	e7ba      	b.n	10004684 <tu_fifo_write_n+0x50>
1000470e:	6823      	ldr	r3, [r4, #0]
10004710:	4350      	muls	r0, r2
10004712:	469c      	mov	ip, r3
10004714:	436a      	muls	r2, r5
10004716:	4460      	add	r0, ip
10004718:	4641      	mov	r1, r8
1000471a:	f7fd fd1b 	bl	10002154 <__wrap___aeabi_memcpy>
1000471e:	e7d5      	b.n	100046cc <tu_fifo_write_n+0x98>
10004720:	1c2f      	adds	r7, r5, #0
10004722:	b2bf      	uxth	r7, r7
10004724:	88e2      	ldrh	r2, [r4, #6]
10004726:	003d      	movs	r5, r7
10004728:	e7ac      	b.n	10004684 <tu_fifo_write_n+0x50>
1000472a:	19be      	adds	r6, r7, r6
1000472c:	b2b6      	uxth	r6, r6
1000472e:	e7d7      	b.n	100046e0 <tu_fifo_write_n+0xac>

10004730 <tu_fifo_clear>:
10004730:	b510      	push	{r4, lr}
10004732:	0004      	movs	r4, r0
10004734:	6940      	ldr	r0, [r0, #20]
10004736:	2800      	cmp	r0, #0
10004738:	d00d      	beq.n	10004756 <tu_fifo_clear+0x26>
1000473a:	2101      	movs	r1, #1
1000473c:	4249      	negs	r1, r1
1000473e:	f001 f943 	bl	100059c8 <__mutex_enter_timeout_ms_veneer>
10004742:	2300      	movs	r3, #0
10004744:	6960      	ldr	r0, [r4, #20]
10004746:	81e3      	strh	r3, [r4, #14]
10004748:	8223      	strh	r3, [r4, #16]
1000474a:	2800      	cmp	r0, #0
1000474c:	d001      	beq.n	10004752 <tu_fifo_clear+0x22>
1000474e:	f001 f923 	bl	10005998 <__mutex_exit_veneer>
10004752:	2001      	movs	r0, #1
10004754:	bd10      	pop	{r4, pc}
10004756:	81e0      	strh	r0, [r4, #14]
10004758:	8220      	strh	r0, [r4, #16]
1000475a:	e7fa      	b.n	10004752 <tu_fifo_clear+0x22>

1000475c <calloc>:
1000475c:	b510      	push	{r4, lr}
1000475e:	4b04      	ldr	r3, [pc, #16]	; (10004770 <calloc+0x14>)
10004760:	000a      	movs	r2, r1
10004762:	681b      	ldr	r3, [r3, #0]
10004764:	0001      	movs	r1, r0
10004766:	0018      	movs	r0, r3
10004768:	f000 f804 	bl	10004774 <_calloc_r>
1000476c:	bd10      	pop	{r4, pc}
1000476e:	46c0      	nop			; (mov r8, r8)
10004770:	200002f0 	.word	0x200002f0

10004774 <_calloc_r>:
10004774:	b510      	push	{r4, lr}
10004776:	4351      	muls	r1, r2
10004778:	f000 f83c 	bl	100047f4 <_malloc_r>
1000477c:	1e04      	subs	r4, r0, #0
1000477e:	d01c      	beq.n	100047ba <_calloc_r+0x46>
10004780:	0003      	movs	r3, r0
10004782:	3b08      	subs	r3, #8
10004784:	685a      	ldr	r2, [r3, #4]
10004786:	2303      	movs	r3, #3
10004788:	439a      	bics	r2, r3
1000478a:	3a04      	subs	r2, #4
1000478c:	2a24      	cmp	r2, #36	; 0x24
1000478e:	d816      	bhi.n	100047be <_calloc_r+0x4a>
10004790:	0003      	movs	r3, r0
10004792:	2a13      	cmp	r2, #19
10004794:	d90d      	bls.n	100047b2 <_calloc_r+0x3e>
10004796:	2100      	movs	r1, #0
10004798:	3308      	adds	r3, #8
1000479a:	6001      	str	r1, [r0, #0]
1000479c:	6041      	str	r1, [r0, #4]
1000479e:	2a1b      	cmp	r2, #27
100047a0:	d907      	bls.n	100047b2 <_calloc_r+0x3e>
100047a2:	6081      	str	r1, [r0, #8]
100047a4:	60c1      	str	r1, [r0, #12]
100047a6:	2a24      	cmp	r2, #36	; 0x24
100047a8:	d10d      	bne.n	100047c6 <_calloc_r+0x52>
100047aa:	0003      	movs	r3, r0
100047ac:	6101      	str	r1, [r0, #16]
100047ae:	3318      	adds	r3, #24
100047b0:	6141      	str	r1, [r0, #20]
100047b2:	2200      	movs	r2, #0
100047b4:	601a      	str	r2, [r3, #0]
100047b6:	605a      	str	r2, [r3, #4]
100047b8:	609a      	str	r2, [r3, #8]
100047ba:	0020      	movs	r0, r4
100047bc:	bd10      	pop	{r4, pc}
100047be:	2100      	movs	r1, #0
100047c0:	f7fd fcc2 	bl	10002148 <__wrap_memset>
100047c4:	e7f9      	b.n	100047ba <_calloc_r+0x46>
100047c6:	0003      	movs	r3, r0
100047c8:	3310      	adds	r3, #16
100047ca:	e7f2      	b.n	100047b2 <_calloc_r+0x3e>

100047cc <malloc>:
100047cc:	b510      	push	{r4, lr}
100047ce:	4b03      	ldr	r3, [pc, #12]	; (100047dc <malloc+0x10>)
100047d0:	0001      	movs	r1, r0
100047d2:	6818      	ldr	r0, [r3, #0]
100047d4:	f000 f80e 	bl	100047f4 <_malloc_r>
100047d8:	bd10      	pop	{r4, pc}
100047da:	46c0      	nop			; (mov r8, r8)
100047dc:	200002f0 	.word	0x200002f0

100047e0 <free>:
100047e0:	b510      	push	{r4, lr}
100047e2:	4b03      	ldr	r3, [pc, #12]	; (100047f0 <free+0x10>)
100047e4:	0001      	movs	r1, r0
100047e6:	6818      	ldr	r0, [r3, #0]
100047e8:	f000 fe04 	bl	100053f4 <_free_r>
100047ec:	bd10      	pop	{r4, pc}
100047ee:	46c0      	nop			; (mov r8, r8)
100047f0:	200002f0 	.word	0x200002f0

100047f4 <_malloc_r>:
100047f4:	b5f0      	push	{r4, r5, r6, r7, lr}
100047f6:	4657      	mov	r7, sl
100047f8:	4645      	mov	r5, r8
100047fa:	46de      	mov	lr, fp
100047fc:	464e      	mov	r6, r9
100047fe:	b5e0      	push	{r5, r6, r7, lr}
10004800:	000d      	movs	r5, r1
10004802:	350b      	adds	r5, #11
10004804:	b083      	sub	sp, #12
10004806:	0007      	movs	r7, r0
10004808:	2d16      	cmp	r5, #22
1000480a:	d800      	bhi.n	1000480e <_malloc_r+0x1a>
1000480c:	e09f      	b.n	1000494e <_malloc_r+0x15a>
1000480e:	2307      	movs	r3, #7
10004810:	439d      	bics	r5, r3
10004812:	d500      	bpl.n	10004816 <_malloc_r+0x22>
10004814:	e0c4      	b.n	100049a0 <_malloc_r+0x1ac>
10004816:	42a9      	cmp	r1, r5
10004818:	d900      	bls.n	1000481c <_malloc_r+0x28>
1000481a:	e0c1      	b.n	100049a0 <_malloc_r+0x1ac>
1000481c:	f000 fa96 	bl	10004d4c <__malloc_lock>
10004820:	23f8      	movs	r3, #248	; 0xf8
10004822:	33ff      	adds	r3, #255	; 0xff
10004824:	429d      	cmp	r5, r3
10004826:	d800      	bhi.n	1000482a <_malloc_r+0x36>
10004828:	e289      	b.n	10004d3e <_malloc_r+0x54a>
1000482a:	0a68      	lsrs	r0, r5, #9
1000482c:	d100      	bne.n	10004830 <_malloc_r+0x3c>
1000482e:	e0bb      	b.n	100049a8 <_malloc_r+0x1b4>
10004830:	2804      	cmp	r0, #4
10004832:	d900      	bls.n	10004836 <_malloc_r+0x42>
10004834:	e164      	b.n	10004b00 <_malloc_r+0x30c>
10004836:	2338      	movs	r3, #56	; 0x38
10004838:	4698      	mov	r8, r3
1000483a:	09a8      	lsrs	r0, r5, #6
1000483c:	4480      	add	r8, r0
1000483e:	3039      	adds	r0, #57	; 0x39
10004840:	00c1      	lsls	r1, r0, #3
10004842:	4ec9      	ldr	r6, [pc, #804]	; (10004b68 <_malloc_r+0x374>)
10004844:	1871      	adds	r1, r6, r1
10004846:	3908      	subs	r1, #8
10004848:	68cc      	ldr	r4, [r1, #12]
1000484a:	42a1      	cmp	r1, r4
1000484c:	d019      	beq.n	10004882 <_malloc_r+0x8e>
1000484e:	2303      	movs	r3, #3
10004850:	6862      	ldr	r2, [r4, #4]
10004852:	439a      	bics	r2, r3
10004854:	0013      	movs	r3, r2
10004856:	1b52      	subs	r2, r2, r5
10004858:	2a0f      	cmp	r2, #15
1000485a:	dd00      	ble.n	1000485e <_malloc_r+0x6a>
1000485c:	e0aa      	b.n	100049b4 <_malloc_r+0x1c0>
1000485e:	2a00      	cmp	r2, #0
10004860:	db00      	blt.n	10004864 <_malloc_r+0x70>
10004862:	e088      	b.n	10004976 <_malloc_r+0x182>
10004864:	2303      	movs	r3, #3
10004866:	469c      	mov	ip, r3
10004868:	e008      	b.n	1000487c <_malloc_r+0x88>
1000486a:	4662      	mov	r2, ip
1000486c:	6863      	ldr	r3, [r4, #4]
1000486e:	4393      	bics	r3, r2
10004870:	1b5a      	subs	r2, r3, r5
10004872:	2a0f      	cmp	r2, #15
10004874:	dd00      	ble.n	10004878 <_malloc_r+0x84>
10004876:	e09d      	b.n	100049b4 <_malloc_r+0x1c0>
10004878:	2a00      	cmp	r2, #0
1000487a:	da7c      	bge.n	10004976 <_malloc_r+0x182>
1000487c:	68e4      	ldr	r4, [r4, #12]
1000487e:	42a1      	cmp	r1, r4
10004880:	d1f3      	bne.n	1000486a <_malloc_r+0x76>
10004882:	0032      	movs	r2, r6
10004884:	6934      	ldr	r4, [r6, #16]
10004886:	3208      	adds	r2, #8
10004888:	4294      	cmp	r4, r2
1000488a:	d100      	bne.n	1000488e <_malloc_r+0x9a>
1000488c:	e18b      	b.n	10004ba6 <_malloc_r+0x3b2>
1000488e:	2303      	movs	r3, #3
10004890:	6861      	ldr	r1, [r4, #4]
10004892:	4399      	bics	r1, r3
10004894:	4689      	mov	r9, r1
10004896:	1b49      	subs	r1, r1, r5
10004898:	290f      	cmp	r1, #15
1000489a:	dd00      	ble.n	1000489e <_malloc_r+0xaa>
1000489c:	e170      	b.n	10004b80 <_malloc_r+0x38c>
1000489e:	6172      	str	r2, [r6, #20]
100048a0:	6132      	str	r2, [r6, #16]
100048a2:	2900      	cmp	r1, #0
100048a4:	db00      	blt.n	100048a8 <_malloc_r+0xb4>
100048a6:	e087      	b.n	100049b8 <_malloc_r+0x1c4>
100048a8:	4ab0      	ldr	r2, [pc, #704]	; (10004b6c <_malloc_r+0x378>)
100048aa:	464b      	mov	r3, r9
100048ac:	4591      	cmp	r9, r2
100048ae:	d900      	bls.n	100048b2 <_malloc_r+0xbe>
100048b0:	e132      	b.n	10004b18 <_malloc_r+0x324>
100048b2:	08db      	lsrs	r3, r3, #3
100048b4:	3aff      	subs	r2, #255	; 0xff
100048b6:	1099      	asrs	r1, r3, #2
100048b8:	3aff      	subs	r2, #255	; 0xff
100048ba:	408a      	lsls	r2, r1
100048bc:	00db      	lsls	r3, r3, #3
100048be:	6871      	ldr	r1, [r6, #4]
100048c0:	199b      	adds	r3, r3, r6
100048c2:	430a      	orrs	r2, r1
100048c4:	6899      	ldr	r1, [r3, #8]
100048c6:	6072      	str	r2, [r6, #4]
100048c8:	60e3      	str	r3, [r4, #12]
100048ca:	60a1      	str	r1, [r4, #8]
100048cc:	609c      	str	r4, [r3, #8]
100048ce:	0013      	movs	r3, r2
100048d0:	60cc      	str	r4, [r1, #12]
100048d2:	2101      	movs	r1, #1
100048d4:	1082      	asrs	r2, r0, #2
100048d6:	4091      	lsls	r1, r2
100048d8:	4299      	cmp	r1, r3
100048da:	d86f      	bhi.n	100049bc <_malloc_r+0x1c8>
100048dc:	420b      	tst	r3, r1
100048de:	d105      	bne.n	100048ec <_malloc_r+0xf8>
100048e0:	2203      	movs	r2, #3
100048e2:	4390      	bics	r0, r2
100048e4:	0049      	lsls	r1, r1, #1
100048e6:	3004      	adds	r0, #4
100048e8:	420b      	tst	r3, r1
100048ea:	d0fb      	beq.n	100048e4 <_malloc_r+0xf0>
100048ec:	2303      	movs	r3, #3
100048ee:	4698      	mov	r8, r3
100048f0:	00c3      	lsls	r3, r0, #3
100048f2:	4699      	mov	r9, r3
100048f4:	44b1      	add	r9, r6
100048f6:	46cc      	mov	ip, r9
100048f8:	4682      	mov	sl, r0
100048fa:	4663      	mov	r3, ip
100048fc:	68dc      	ldr	r4, [r3, #12]
100048fe:	45a4      	cmp	ip, r4
10004900:	d107      	bne.n	10004912 <_malloc_r+0x11e>
10004902:	e152      	b.n	10004baa <_malloc_r+0x3b6>
10004904:	2a00      	cmp	r2, #0
10004906:	db00      	blt.n	1000490a <_malloc_r+0x116>
10004908:	e161      	b.n	10004bce <_malloc_r+0x3da>
1000490a:	68e4      	ldr	r4, [r4, #12]
1000490c:	45a4      	cmp	ip, r4
1000490e:	d100      	bne.n	10004912 <_malloc_r+0x11e>
10004910:	e14b      	b.n	10004baa <_malloc_r+0x3b6>
10004912:	4642      	mov	r2, r8
10004914:	6863      	ldr	r3, [r4, #4]
10004916:	4393      	bics	r3, r2
10004918:	1b5a      	subs	r2, r3, r5
1000491a:	2a0f      	cmp	r2, #15
1000491c:	ddf2      	ble.n	10004904 <_malloc_r+0x110>
1000491e:	2001      	movs	r0, #1
10004920:	4680      	mov	r8, r0
10004922:	1961      	adds	r1, r4, r5
10004924:	4305      	orrs	r5, r0
10004926:	6065      	str	r5, [r4, #4]
10004928:	68a0      	ldr	r0, [r4, #8]
1000492a:	68e5      	ldr	r5, [r4, #12]
1000492c:	3608      	adds	r6, #8
1000492e:	60c5      	str	r5, [r0, #12]
10004930:	60a8      	str	r0, [r5, #8]
10004932:	4640      	mov	r0, r8
10004934:	60f1      	str	r1, [r6, #12]
10004936:	60b1      	str	r1, [r6, #8]
10004938:	4310      	orrs	r0, r2
1000493a:	6048      	str	r0, [r1, #4]
1000493c:	60ce      	str	r6, [r1, #12]
1000493e:	608e      	str	r6, [r1, #8]
10004940:	0038      	movs	r0, r7
10004942:	50e2      	str	r2, [r4, r3]
10004944:	f000 fa04 	bl	10004d50 <__malloc_unlock>
10004948:	0020      	movs	r0, r4
1000494a:	3008      	adds	r0, #8
1000494c:	e021      	b.n	10004992 <_malloc_r+0x19e>
1000494e:	2910      	cmp	r1, #16
10004950:	d826      	bhi.n	100049a0 <_malloc_r+0x1ac>
10004952:	0038      	movs	r0, r7
10004954:	f000 f9fa 	bl	10004d4c <__malloc_lock>
10004958:	2510      	movs	r5, #16
1000495a:	2318      	movs	r3, #24
1000495c:	2002      	movs	r0, #2
1000495e:	4e82      	ldr	r6, [pc, #520]	; (10004b68 <_malloc_r+0x374>)
10004960:	18f3      	adds	r3, r6, r3
10004962:	001a      	movs	r2, r3
10004964:	685c      	ldr	r4, [r3, #4]
10004966:	3a08      	subs	r2, #8
10004968:	4294      	cmp	r4, r2
1000496a:	d100      	bne.n	1000496e <_malloc_r+0x17a>
1000496c:	e129      	b.n	10004bc2 <_malloc_r+0x3ce>
1000496e:	2303      	movs	r3, #3
10004970:	6862      	ldr	r2, [r4, #4]
10004972:	439a      	bics	r2, r3
10004974:	0013      	movs	r3, r2
10004976:	68e2      	ldr	r2, [r4, #12]
10004978:	68a1      	ldr	r1, [r4, #8]
1000497a:	60ca      	str	r2, [r1, #12]
1000497c:	6091      	str	r1, [r2, #8]
1000497e:	2201      	movs	r2, #1
10004980:	18e3      	adds	r3, r4, r3
10004982:	6859      	ldr	r1, [r3, #4]
10004984:	0038      	movs	r0, r7
10004986:	430a      	orrs	r2, r1
10004988:	605a      	str	r2, [r3, #4]
1000498a:	f000 f9e1 	bl	10004d50 <__malloc_unlock>
1000498e:	0020      	movs	r0, r4
10004990:	3008      	adds	r0, #8
10004992:	b003      	add	sp, #12
10004994:	bc3c      	pop	{r2, r3, r4, r5}
10004996:	4690      	mov	r8, r2
10004998:	4699      	mov	r9, r3
1000499a:	46a2      	mov	sl, r4
1000499c:	46ab      	mov	fp, r5
1000499e:	bdf0      	pop	{r4, r5, r6, r7, pc}
100049a0:	230c      	movs	r3, #12
100049a2:	2000      	movs	r0, #0
100049a4:	603b      	str	r3, [r7, #0]
100049a6:	e7f4      	b.n	10004992 <_malloc_r+0x19e>
100049a8:	2180      	movs	r1, #128	; 0x80
100049aa:	233f      	movs	r3, #63	; 0x3f
100049ac:	2040      	movs	r0, #64	; 0x40
100049ae:	0089      	lsls	r1, r1, #2
100049b0:	4698      	mov	r8, r3
100049b2:	e746      	b.n	10004842 <_malloc_r+0x4e>
100049b4:	4640      	mov	r0, r8
100049b6:	e764      	b.n	10004882 <_malloc_r+0x8e>
100049b8:	464b      	mov	r3, r9
100049ba:	e7e0      	b.n	1000497e <_malloc_r+0x18a>
100049bc:	2303      	movs	r3, #3
100049be:	68b4      	ldr	r4, [r6, #8]
100049c0:	6862      	ldr	r2, [r4, #4]
100049c2:	439a      	bics	r2, r3
100049c4:	4690      	mov	r8, r2
100049c6:	42aa      	cmp	r2, r5
100049c8:	d303      	bcc.n	100049d2 <_malloc_r+0x1de>
100049ca:	1b53      	subs	r3, r2, r5
100049cc:	2b0f      	cmp	r3, #15
100049ce:	dd00      	ble.n	100049d2 <_malloc_r+0x1de>
100049d0:	e088      	b.n	10004ae4 <_malloc_r+0x2f0>
100049d2:	0023      	movs	r3, r4
100049d4:	4443      	add	r3, r8
100049d6:	4a66      	ldr	r2, [pc, #408]	; (10004b70 <_malloc_r+0x37c>)
100049d8:	9301      	str	r3, [sp, #4]
100049da:	4b66      	ldr	r3, [pc, #408]	; (10004b74 <_malloc_r+0x380>)
100049dc:	4693      	mov	fp, r2
100049de:	469a      	mov	sl, r3
100049e0:	6892      	ldr	r2, [r2, #8]
100049e2:	681b      	ldr	r3, [r3, #0]
100049e4:	18eb      	adds	r3, r5, r3
100049e6:	3201      	adds	r2, #1
100049e8:	d100      	bne.n	100049ec <_malloc_r+0x1f8>
100049ea:	e161      	b.n	10004cb0 <_malloc_r+0x4bc>
100049ec:	4a62      	ldr	r2, [pc, #392]	; (10004b78 <_malloc_r+0x384>)
100049ee:	4694      	mov	ip, r2
100049f0:	4463      	add	r3, ip
100049f2:	0b1b      	lsrs	r3, r3, #12
100049f4:	031b      	lsls	r3, r3, #12
100049f6:	9300      	str	r3, [sp, #0]
100049f8:	9900      	ldr	r1, [sp, #0]
100049fa:	0038      	movs	r0, r7
100049fc:	f000 f9aa 	bl	10004d54 <_sbrk_r>
10004a00:	0003      	movs	r3, r0
10004a02:	4681      	mov	r9, r0
10004a04:	3301      	adds	r3, #1
10004a06:	d062      	beq.n	10004ace <_malloc_r+0x2da>
10004a08:	9b01      	ldr	r3, [sp, #4]
10004a0a:	4283      	cmp	r3, r0
10004a0c:	d900      	bls.n	10004a10 <_malloc_r+0x21c>
10004a0e:	e0f9      	b.n	10004c04 <_malloc_r+0x410>
10004a10:	4653      	mov	r3, sl
10004a12:	685b      	ldr	r3, [r3, #4]
10004a14:	9a00      	ldr	r2, [sp, #0]
10004a16:	469c      	mov	ip, r3
10004a18:	4653      	mov	r3, sl
10004a1a:	4462      	add	r2, ip
10004a1c:	605a      	str	r2, [r3, #4]
10004a1e:	9b01      	ldr	r3, [sp, #4]
10004a20:	0011      	movs	r1, r2
10004a22:	4283      	cmp	r3, r0
10004a24:	d100      	bne.n	10004a28 <_malloc_r+0x234>
10004a26:	e14f      	b.n	10004cc8 <_malloc_r+0x4d4>
10004a28:	465b      	mov	r3, fp
10004a2a:	689b      	ldr	r3, [r3, #8]
10004a2c:	3301      	adds	r3, #1
10004a2e:	d100      	bne.n	10004a32 <_malloc_r+0x23e>
10004a30:	e166      	b.n	10004d00 <_malloc_r+0x50c>
10004a32:	464b      	mov	r3, r9
10004a34:	9a01      	ldr	r2, [sp, #4]
10004a36:	1a9b      	subs	r3, r3, r2
10004a38:	1859      	adds	r1, r3, r1
10004a3a:	4653      	mov	r3, sl
10004a3c:	6059      	str	r1, [r3, #4]
10004a3e:	2307      	movs	r3, #7
10004a40:	464a      	mov	r2, r9
10004a42:	4013      	ands	r3, r2
10004a44:	d100      	bne.n	10004a48 <_malloc_r+0x254>
10004a46:	e11e      	b.n	10004c86 <_malloc_r+0x492>
10004a48:	2108      	movs	r1, #8
10004a4a:	4689      	mov	r9, r1
10004a4c:	494b      	ldr	r1, [pc, #300]	; (10004b7c <_malloc_r+0x388>)
10004a4e:	1ad2      	subs	r2, r2, r3
10004a50:	4491      	add	r9, r2
10004a52:	1acb      	subs	r3, r1, r3
10004a54:	9a00      	ldr	r2, [sp, #0]
10004a56:	0038      	movs	r0, r7
10004a58:	444a      	add	r2, r9
10004a5a:	0511      	lsls	r1, r2, #20
10004a5c:	0d09      	lsrs	r1, r1, #20
10004a5e:	1a5b      	subs	r3, r3, r1
10004a60:	0019      	movs	r1, r3
10004a62:	469b      	mov	fp, r3
10004a64:	f000 f976 	bl	10004d54 <_sbrk_r>
10004a68:	1c43      	adds	r3, r0, #1
10004a6a:	d100      	bne.n	10004a6e <_malloc_r+0x27a>
10004a6c:	e13c      	b.n	10004ce8 <_malloc_r+0x4f4>
10004a6e:	464b      	mov	r3, r9
10004a70:	1ac0      	subs	r0, r0, r3
10004a72:	2301      	movs	r3, #1
10004a74:	4458      	add	r0, fp
10004a76:	4318      	orrs	r0, r3
10004a78:	4653      	mov	r3, sl
10004a7a:	685b      	ldr	r3, [r3, #4]
10004a7c:	445b      	add	r3, fp
10004a7e:	0019      	movs	r1, r3
10004a80:	4653      	mov	r3, sl
10004a82:	6059      	str	r1, [r3, #4]
10004a84:	464b      	mov	r3, r9
10004a86:	60b3      	str	r3, [r6, #8]
10004a88:	6058      	str	r0, [r3, #4]
10004a8a:	42b4      	cmp	r4, r6
10004a8c:	d013      	beq.n	10004ab6 <_malloc_r+0x2c2>
10004a8e:	4643      	mov	r3, r8
10004a90:	2b0f      	cmp	r3, #15
10004a92:	d800      	bhi.n	10004a96 <_malloc_r+0x2a2>
10004a94:	e0e2      	b.n	10004c5c <_malloc_r+0x468>
10004a96:	4643      	mov	r3, r8
10004a98:	2207      	movs	r2, #7
10004a9a:	6860      	ldr	r0, [r4, #4]
10004a9c:	3b0c      	subs	r3, #12
10004a9e:	4393      	bics	r3, r2
10004aa0:	3a06      	subs	r2, #6
10004aa2:	4002      	ands	r2, r0
10004aa4:	2005      	movs	r0, #5
10004aa6:	431a      	orrs	r2, r3
10004aa8:	6062      	str	r2, [r4, #4]
10004aaa:	18e2      	adds	r2, r4, r3
10004aac:	6050      	str	r0, [r2, #4]
10004aae:	6090      	str	r0, [r2, #8]
10004ab0:	2b0f      	cmp	r3, #15
10004ab2:	d900      	bls.n	10004ab6 <_malloc_r+0x2c2>
10004ab4:	e11c      	b.n	10004cf0 <_malloc_r+0x4fc>
10004ab6:	4653      	mov	r3, sl
10004ab8:	6adb      	ldr	r3, [r3, #44]	; 0x2c
10004aba:	4299      	cmp	r1, r3
10004abc:	d901      	bls.n	10004ac2 <_malloc_r+0x2ce>
10004abe:	4653      	mov	r3, sl
10004ac0:	62d9      	str	r1, [r3, #44]	; 0x2c
10004ac2:	4653      	mov	r3, sl
10004ac4:	6b1b      	ldr	r3, [r3, #48]	; 0x30
10004ac6:	4299      	cmp	r1, r3
10004ac8:	d901      	bls.n	10004ace <_malloc_r+0x2da>
10004aca:	4653      	mov	r3, sl
10004acc:	6319      	str	r1, [r3, #48]	; 0x30
10004ace:	2303      	movs	r3, #3
10004ad0:	68b4      	ldr	r4, [r6, #8]
10004ad2:	6862      	ldr	r2, [r4, #4]
10004ad4:	439a      	bics	r2, r3
10004ad6:	1b53      	subs	r3, r2, r5
10004ad8:	4295      	cmp	r5, r2
10004ada:	d900      	bls.n	10004ade <_malloc_r+0x2ea>
10004adc:	e0c1      	b.n	10004c62 <_malloc_r+0x46e>
10004ade:	2b0f      	cmp	r3, #15
10004ae0:	dc00      	bgt.n	10004ae4 <_malloc_r+0x2f0>
10004ae2:	e0be      	b.n	10004c62 <_malloc_r+0x46e>
10004ae4:	2201      	movs	r2, #1
10004ae6:	0029      	movs	r1, r5
10004ae8:	4313      	orrs	r3, r2
10004aea:	4311      	orrs	r1, r2
10004aec:	1965      	adds	r5, r4, r5
10004aee:	6061      	str	r1, [r4, #4]
10004af0:	0038      	movs	r0, r7
10004af2:	60b5      	str	r5, [r6, #8]
10004af4:	606b      	str	r3, [r5, #4]
10004af6:	f000 f92b 	bl	10004d50 <__malloc_unlock>
10004afa:	0020      	movs	r0, r4
10004afc:	3008      	adds	r0, #8
10004afe:	e748      	b.n	10004992 <_malloc_r+0x19e>
10004b00:	2814      	cmp	r0, #20
10004b02:	d973      	bls.n	10004bec <_malloc_r+0x3f8>
10004b04:	2854      	cmp	r0, #84	; 0x54
10004b06:	d900      	bls.n	10004b0a <_malloc_r+0x316>
10004b08:	e0b2      	b.n	10004c70 <_malloc_r+0x47c>
10004b0a:	236e      	movs	r3, #110	; 0x6e
10004b0c:	4698      	mov	r8, r3
10004b0e:	0b28      	lsrs	r0, r5, #12
10004b10:	4480      	add	r8, r0
10004b12:	306f      	adds	r0, #111	; 0x6f
10004b14:	00c1      	lsls	r1, r0, #3
10004b16:	e694      	b.n	10004842 <_malloc_r+0x4e>
10004b18:	0a5a      	lsrs	r2, r3, #9
10004b1a:	2a04      	cmp	r2, #4
10004b1c:	d96c      	bls.n	10004bf8 <_malloc_r+0x404>
10004b1e:	2a14      	cmp	r2, #20
10004b20:	d900      	bls.n	10004b24 <_malloc_r+0x330>
10004b22:	e0c8      	b.n	10004cb6 <_malloc_r+0x4c2>
10004b24:	0011      	movs	r1, r2
10004b26:	325c      	adds	r2, #92	; 0x5c
10004b28:	315b      	adds	r1, #91	; 0x5b
10004b2a:	00d2      	lsls	r2, r2, #3
10004b2c:	2308      	movs	r3, #8
10004b2e:	425b      	negs	r3, r3
10004b30:	469c      	mov	ip, r3
10004b32:	18b2      	adds	r2, r6, r2
10004b34:	4494      	add	ip, r2
10004b36:	4663      	mov	r3, ip
10004b38:	689a      	ldr	r2, [r3, #8]
10004b3a:	2303      	movs	r3, #3
10004b3c:	4698      	mov	r8, r3
10004b3e:	4594      	cmp	ip, r2
10004b40:	d100      	bne.n	10004b44 <_malloc_r+0x350>
10004b42:	e0a3      	b.n	10004c8c <_malloc_r+0x498>
10004b44:	4643      	mov	r3, r8
10004b46:	6851      	ldr	r1, [r2, #4]
10004b48:	4399      	bics	r1, r3
10004b4a:	4589      	cmp	r9, r1
10004b4c:	d300      	bcc.n	10004b50 <_malloc_r+0x35c>
10004b4e:	e08d      	b.n	10004c6c <_malloc_r+0x478>
10004b50:	6892      	ldr	r2, [r2, #8]
10004b52:	4594      	cmp	ip, r2
10004b54:	d1f6      	bne.n	10004b44 <_malloc_r+0x350>
10004b56:	4663      	mov	r3, ip
10004b58:	68da      	ldr	r2, [r3, #12]
10004b5a:	6873      	ldr	r3, [r6, #4]
10004b5c:	4661      	mov	r1, ip
10004b5e:	60e2      	str	r2, [r4, #12]
10004b60:	60a1      	str	r1, [r4, #8]
10004b62:	6094      	str	r4, [r2, #8]
10004b64:	60cc      	str	r4, [r1, #12]
10004b66:	e6b4      	b.n	100048d2 <_malloc_r+0xde>
10004b68:	20000720 	.word	0x20000720
10004b6c:	000001ff 	.word	0x000001ff
10004b70:	20000b20 	.word	0x20000b20
10004b74:	20000b74 	.word	0x20000b74
10004b78:	0000100f 	.word	0x0000100f
10004b7c:	00001008 	.word	0x00001008
10004b80:	2301      	movs	r3, #1
10004b82:	1960      	adds	r0, r4, r5
10004b84:	431d      	orrs	r5, r3
10004b86:	6065      	str	r5, [r4, #4]
10004b88:	6170      	str	r0, [r6, #20]
10004b8a:	6130      	str	r0, [r6, #16]
10004b8c:	60c2      	str	r2, [r0, #12]
10004b8e:	6082      	str	r2, [r0, #8]
10004b90:	001a      	movs	r2, r3
10004b92:	464b      	mov	r3, r9
10004b94:	430a      	orrs	r2, r1
10004b96:	6042      	str	r2, [r0, #4]
10004b98:	0038      	movs	r0, r7
10004b9a:	50e1      	str	r1, [r4, r3]
10004b9c:	f000 f8d8 	bl	10004d50 <__malloc_unlock>
10004ba0:	0020      	movs	r0, r4
10004ba2:	3008      	adds	r0, #8
10004ba4:	e6f5      	b.n	10004992 <_malloc_r+0x19e>
10004ba6:	6873      	ldr	r3, [r6, #4]
10004ba8:	e693      	b.n	100048d2 <_malloc_r+0xde>
10004baa:	2308      	movs	r3, #8
10004bac:	469b      	mov	fp, r3
10004bae:	3b07      	subs	r3, #7
10004bb0:	44dc      	add	ip, fp
10004bb2:	469b      	mov	fp, r3
10004bb4:	44da      	add	sl, fp
10004bb6:	4643      	mov	r3, r8
10004bb8:	4652      	mov	r2, sl
10004bba:	4213      	tst	r3, r2
10004bbc:	d000      	beq.n	10004bc0 <_malloc_r+0x3cc>
10004bbe:	e69c      	b.n	100048fa <_malloc_r+0x106>
10004bc0:	e036      	b.n	10004c30 <_malloc_r+0x43c>
10004bc2:	68dc      	ldr	r4, [r3, #12]
10004bc4:	3002      	adds	r0, #2
10004bc6:	42a3      	cmp	r3, r4
10004bc8:	d100      	bne.n	10004bcc <_malloc_r+0x3d8>
10004bca:	e65a      	b.n	10004882 <_malloc_r+0x8e>
10004bcc:	e6cf      	b.n	1000496e <_malloc_r+0x17a>
10004bce:	2201      	movs	r2, #1
10004bd0:	18e3      	adds	r3, r4, r3
10004bd2:	6859      	ldr	r1, [r3, #4]
10004bd4:	0038      	movs	r0, r7
10004bd6:	430a      	orrs	r2, r1
10004bd8:	605a      	str	r2, [r3, #4]
10004bda:	68e3      	ldr	r3, [r4, #12]
10004bdc:	68a2      	ldr	r2, [r4, #8]
10004bde:	60d3      	str	r3, [r2, #12]
10004be0:	609a      	str	r2, [r3, #8]
10004be2:	f000 f8b5 	bl	10004d50 <__malloc_unlock>
10004be6:	0020      	movs	r0, r4
10004be8:	3008      	adds	r0, #8
10004bea:	e6d2      	b.n	10004992 <_malloc_r+0x19e>
10004bec:	235b      	movs	r3, #91	; 0x5b
10004bee:	4698      	mov	r8, r3
10004bf0:	4480      	add	r8, r0
10004bf2:	305c      	adds	r0, #92	; 0x5c
10004bf4:	00c1      	lsls	r1, r0, #3
10004bf6:	e624      	b.n	10004842 <_malloc_r+0x4e>
10004bf8:	099a      	lsrs	r2, r3, #6
10004bfa:	0011      	movs	r1, r2
10004bfc:	3239      	adds	r2, #57	; 0x39
10004bfe:	3138      	adds	r1, #56	; 0x38
10004c00:	00d2      	lsls	r2, r2, #3
10004c02:	e793      	b.n	10004b2c <_malloc_r+0x338>
10004c04:	42b4      	cmp	r4, r6
10004c06:	d000      	beq.n	10004c0a <_malloc_r+0x416>
10004c08:	e761      	b.n	10004ace <_malloc_r+0x2da>
10004c0a:	4653      	mov	r3, sl
10004c0c:	685b      	ldr	r3, [r3, #4]
10004c0e:	9a00      	ldr	r2, [sp, #0]
10004c10:	469c      	mov	ip, r3
10004c12:	4653      	mov	r3, sl
10004c14:	4462      	add	r2, ip
10004c16:	0011      	movs	r1, r2
10004c18:	605a      	str	r2, [r3, #4]
10004c1a:	e705      	b.n	10004a28 <_malloc_r+0x234>
10004c1c:	2308      	movs	r3, #8
10004c1e:	425b      	negs	r3, r3
10004c20:	469c      	mov	ip, r3
10004c22:	44e1      	add	r9, ip
10004c24:	464b      	mov	r3, r9
10004c26:	689b      	ldr	r3, [r3, #8]
10004c28:	3801      	subs	r0, #1
10004c2a:	4599      	cmp	r9, r3
10004c2c:	d000      	beq.n	10004c30 <_malloc_r+0x43c>
10004c2e:	e084      	b.n	10004d3a <_malloc_r+0x546>
10004c30:	4643      	mov	r3, r8
10004c32:	4203      	tst	r3, r0
10004c34:	d1f2      	bne.n	10004c1c <_malloc_r+0x428>
10004c36:	6873      	ldr	r3, [r6, #4]
10004c38:	438b      	bics	r3, r1
10004c3a:	6073      	str	r3, [r6, #4]
10004c3c:	0049      	lsls	r1, r1, #1
10004c3e:	4299      	cmp	r1, r3
10004c40:	d900      	bls.n	10004c44 <_malloc_r+0x450>
10004c42:	e6bb      	b.n	100049bc <_malloc_r+0x1c8>
10004c44:	2900      	cmp	r1, #0
10004c46:	d100      	bne.n	10004c4a <_malloc_r+0x456>
10004c48:	e6b8      	b.n	100049bc <_malloc_r+0x1c8>
10004c4a:	4650      	mov	r0, sl
10004c4c:	420b      	tst	r3, r1
10004c4e:	d000      	beq.n	10004c52 <_malloc_r+0x45e>
10004c50:	e64e      	b.n	100048f0 <_malloc_r+0xfc>
10004c52:	0049      	lsls	r1, r1, #1
10004c54:	3004      	adds	r0, #4
10004c56:	420b      	tst	r3, r1
10004c58:	d0fb      	beq.n	10004c52 <_malloc_r+0x45e>
10004c5a:	e649      	b.n	100048f0 <_malloc_r+0xfc>
10004c5c:	2301      	movs	r3, #1
10004c5e:	464a      	mov	r2, r9
10004c60:	6053      	str	r3, [r2, #4]
10004c62:	0038      	movs	r0, r7
10004c64:	f000 f874 	bl	10004d50 <__malloc_unlock>
10004c68:	2000      	movs	r0, #0
10004c6a:	e692      	b.n	10004992 <_malloc_r+0x19e>
10004c6c:	4694      	mov	ip, r2
10004c6e:	e772      	b.n	10004b56 <_malloc_r+0x362>
10004c70:	23aa      	movs	r3, #170	; 0xaa
10004c72:	005b      	lsls	r3, r3, #1
10004c74:	4298      	cmp	r0, r3
10004c76:	d811      	bhi.n	10004c9c <_malloc_r+0x4a8>
10004c78:	3bdd      	subs	r3, #221	; 0xdd
10004c7a:	4698      	mov	r8, r3
10004c7c:	0be8      	lsrs	r0, r5, #15
10004c7e:	4480      	add	r8, r0
10004c80:	3078      	adds	r0, #120	; 0x78
10004c82:	00c1      	lsls	r1, r0, #3
10004c84:	e5dd      	b.n	10004842 <_malloc_r+0x4e>
10004c86:	2380      	movs	r3, #128	; 0x80
10004c88:	015b      	lsls	r3, r3, #5
10004c8a:	e6e3      	b.n	10004a54 <_malloc_r+0x260>
10004c8c:	1089      	asrs	r1, r1, #2
10004c8e:	3b02      	subs	r3, #2
10004c90:	408b      	lsls	r3, r1
10004c92:	6872      	ldr	r2, [r6, #4]
10004c94:	4313      	orrs	r3, r2
10004c96:	6073      	str	r3, [r6, #4]
10004c98:	4662      	mov	r2, ip
10004c9a:	e75f      	b.n	10004b5c <_malloc_r+0x368>
10004c9c:	4b2a      	ldr	r3, [pc, #168]	; (10004d48 <_malloc_r+0x554>)
10004c9e:	4298      	cmp	r0, r3
10004ca0:	d81c      	bhi.n	10004cdc <_malloc_r+0x4e8>
10004ca2:	237c      	movs	r3, #124	; 0x7c
10004ca4:	4698      	mov	r8, r3
10004ca6:	0ca8      	lsrs	r0, r5, #18
10004ca8:	4480      	add	r8, r0
10004caa:	307d      	adds	r0, #125	; 0x7d
10004cac:	00c1      	lsls	r1, r0, #3
10004cae:	e5c8      	b.n	10004842 <_malloc_r+0x4e>
10004cb0:	3310      	adds	r3, #16
10004cb2:	9300      	str	r3, [sp, #0]
10004cb4:	e6a0      	b.n	100049f8 <_malloc_r+0x204>
10004cb6:	2a54      	cmp	r2, #84	; 0x54
10004cb8:	d826      	bhi.n	10004d08 <_malloc_r+0x514>
10004cba:	464b      	mov	r3, r9
10004cbc:	0b1a      	lsrs	r2, r3, #12
10004cbe:	0011      	movs	r1, r2
10004cc0:	326f      	adds	r2, #111	; 0x6f
10004cc2:	316e      	adds	r1, #110	; 0x6e
10004cc4:	00d2      	lsls	r2, r2, #3
10004cc6:	e731      	b.n	10004b2c <_malloc_r+0x338>
10004cc8:	051b      	lsls	r3, r3, #20
10004cca:	d000      	beq.n	10004cce <_malloc_r+0x4da>
10004ccc:	e6ac      	b.n	10004a28 <_malloc_r+0x234>
10004cce:	2001      	movs	r0, #1
10004cd0:	9b00      	ldr	r3, [sp, #0]
10004cd2:	68b2      	ldr	r2, [r6, #8]
10004cd4:	4443      	add	r3, r8
10004cd6:	4303      	orrs	r3, r0
10004cd8:	6053      	str	r3, [r2, #4]
10004cda:	e6ec      	b.n	10004ab6 <_malloc_r+0x2c2>
10004cdc:	21fe      	movs	r1, #254	; 0xfe
10004cde:	237e      	movs	r3, #126	; 0x7e
10004ce0:	207f      	movs	r0, #127	; 0x7f
10004ce2:	0089      	lsls	r1, r1, #2
10004ce4:	4698      	mov	r8, r3
10004ce6:	e5ac      	b.n	10004842 <_malloc_r+0x4e>
10004ce8:	2300      	movs	r3, #0
10004cea:	2001      	movs	r0, #1
10004cec:	469b      	mov	fp, r3
10004cee:	e6c3      	b.n	10004a78 <_malloc_r+0x284>
10004cf0:	0021      	movs	r1, r4
10004cf2:	0038      	movs	r0, r7
10004cf4:	3108      	adds	r1, #8
10004cf6:	f000 fb7d 	bl	100053f4 <_free_r>
10004cfa:	4653      	mov	r3, sl
10004cfc:	6859      	ldr	r1, [r3, #4]
10004cfe:	e6da      	b.n	10004ab6 <_malloc_r+0x2c2>
10004d00:	465b      	mov	r3, fp
10004d02:	464a      	mov	r2, r9
10004d04:	609a      	str	r2, [r3, #8]
10004d06:	e69a      	b.n	10004a3e <_malloc_r+0x24a>
10004d08:	21aa      	movs	r1, #170	; 0xaa
10004d0a:	0049      	lsls	r1, r1, #1
10004d0c:	428a      	cmp	r2, r1
10004d0e:	d806      	bhi.n	10004d1e <_malloc_r+0x52a>
10004d10:	464b      	mov	r3, r9
10004d12:	0bda      	lsrs	r2, r3, #15
10004d14:	0011      	movs	r1, r2
10004d16:	3278      	adds	r2, #120	; 0x78
10004d18:	3177      	adds	r1, #119	; 0x77
10004d1a:	00d2      	lsls	r2, r2, #3
10004d1c:	e706      	b.n	10004b2c <_malloc_r+0x338>
10004d1e:	490a      	ldr	r1, [pc, #40]	; (10004d48 <_malloc_r+0x554>)
10004d20:	428a      	cmp	r2, r1
10004d22:	d806      	bhi.n	10004d32 <_malloc_r+0x53e>
10004d24:	464b      	mov	r3, r9
10004d26:	0c9a      	lsrs	r2, r3, #18
10004d28:	0011      	movs	r1, r2
10004d2a:	327d      	adds	r2, #125	; 0x7d
10004d2c:	317c      	adds	r1, #124	; 0x7c
10004d2e:	00d2      	lsls	r2, r2, #3
10004d30:	e6fc      	b.n	10004b2c <_malloc_r+0x338>
10004d32:	22fe      	movs	r2, #254	; 0xfe
10004d34:	217e      	movs	r1, #126	; 0x7e
10004d36:	0092      	lsls	r2, r2, #2
10004d38:	e6f8      	b.n	10004b2c <_malloc_r+0x338>
10004d3a:	6873      	ldr	r3, [r6, #4]
10004d3c:	e77e      	b.n	10004c3c <_malloc_r+0x448>
10004d3e:	002b      	movs	r3, r5
10004d40:	08e8      	lsrs	r0, r5, #3
10004d42:	3308      	adds	r3, #8
10004d44:	e60b      	b.n	1000495e <_malloc_r+0x16a>
10004d46:	46c0      	nop			; (mov r8, r8)
10004d48:	00000554 	.word	0x00000554

10004d4c <__malloc_lock>:
10004d4c:	4770      	bx	lr
10004d4e:	46c0      	nop			; (mov r8, r8)

10004d50 <__malloc_unlock>:
10004d50:	4770      	bx	lr
10004d52:	46c0      	nop			; (mov r8, r8)

10004d54 <_sbrk_r>:
10004d54:	2300      	movs	r3, #0
10004d56:	b570      	push	{r4, r5, r6, lr}
10004d58:	4c06      	ldr	r4, [pc, #24]	; (10004d74 <_sbrk_r+0x20>)
10004d5a:	0005      	movs	r5, r0
10004d5c:	0008      	movs	r0, r1
10004d5e:	6023      	str	r3, [r4, #0]
10004d60:	f7fc fd18 	bl	10001794 <_sbrk>
10004d64:	1c43      	adds	r3, r0, #1
10004d66:	d000      	beq.n	10004d6a <_sbrk_r+0x16>
10004d68:	bd70      	pop	{r4, r5, r6, pc}
10004d6a:	6823      	ldr	r3, [r4, #0]
10004d6c:	2b00      	cmp	r3, #0
10004d6e:	d0fb      	beq.n	10004d68 <_sbrk_r+0x14>
10004d70:	602b      	str	r3, [r5, #0]
10004d72:	e7f9      	b.n	10004d68 <_sbrk_r+0x14>
10004d74:	20001908 	.word	0x20001908

10004d78 <strlen>:
10004d78:	b510      	push	{r4, lr}
10004d7a:	0783      	lsls	r3, r0, #30
10004d7c:	d025      	beq.n	10004dca <strlen+0x52>
10004d7e:	7803      	ldrb	r3, [r0, #0]
10004d80:	2b00      	cmp	r3, #0
10004d82:	d024      	beq.n	10004dce <strlen+0x56>
10004d84:	0003      	movs	r3, r0
10004d86:	2103      	movs	r1, #3
10004d88:	e002      	b.n	10004d90 <strlen+0x18>
10004d8a:	781a      	ldrb	r2, [r3, #0]
10004d8c:	2a00      	cmp	r2, #0
10004d8e:	d01a      	beq.n	10004dc6 <strlen+0x4e>
10004d90:	3301      	adds	r3, #1
10004d92:	420b      	tst	r3, r1
10004d94:	d1f9      	bne.n	10004d8a <strlen+0x12>
10004d96:	6819      	ldr	r1, [r3, #0]
10004d98:	4a0e      	ldr	r2, [pc, #56]	; (10004dd4 <strlen+0x5c>)
10004d9a:	4c0f      	ldr	r4, [pc, #60]	; (10004dd8 <strlen+0x60>)
10004d9c:	188a      	adds	r2, r1, r2
10004d9e:	438a      	bics	r2, r1
10004da0:	4222      	tst	r2, r4
10004da2:	d106      	bne.n	10004db2 <strlen+0x3a>
10004da4:	3304      	adds	r3, #4
10004da6:	6819      	ldr	r1, [r3, #0]
10004da8:	4a0a      	ldr	r2, [pc, #40]	; (10004dd4 <strlen+0x5c>)
10004daa:	188a      	adds	r2, r1, r2
10004dac:	438a      	bics	r2, r1
10004dae:	4222      	tst	r2, r4
10004db0:	d0f8      	beq.n	10004da4 <strlen+0x2c>
10004db2:	001a      	movs	r2, r3
10004db4:	781b      	ldrb	r3, [r3, #0]
10004db6:	2b00      	cmp	r3, #0
10004db8:	d003      	beq.n	10004dc2 <strlen+0x4a>
10004dba:	3201      	adds	r2, #1
10004dbc:	7811      	ldrb	r1, [r2, #0]
10004dbe:	2900      	cmp	r1, #0
10004dc0:	d1fb      	bne.n	10004dba <strlen+0x42>
10004dc2:	1a10      	subs	r0, r2, r0
10004dc4:	bd10      	pop	{r4, pc}
10004dc6:	1a18      	subs	r0, r3, r0
10004dc8:	e7fc      	b.n	10004dc4 <strlen+0x4c>
10004dca:	0003      	movs	r3, r0
10004dcc:	e7e3      	b.n	10004d96 <strlen+0x1e>
10004dce:	2000      	movs	r0, #0
10004dd0:	e7f8      	b.n	10004dc4 <strlen+0x4c>
10004dd2:	46c0      	nop			; (mov r8, r8)
10004dd4:	fefefeff 	.word	0xfefefeff
10004dd8:	80808080 	.word	0x80808080

10004ddc <__swbuf_r>:
10004ddc:	b5f8      	push	{r3, r4, r5, r6, r7, lr}
10004dde:	0006      	movs	r6, r0
10004de0:	000d      	movs	r5, r1
10004de2:	0014      	movs	r4, r2
10004de4:	2800      	cmp	r0, #0
10004de6:	d002      	beq.n	10004dee <__swbuf_r+0x12>
10004de8:	6b83      	ldr	r3, [r0, #56]	; 0x38
10004dea:	2b00      	cmp	r3, #0
10004dec:	d04e      	beq.n	10004e8c <__swbuf_r+0xb0>
10004dee:	69a3      	ldr	r3, [r4, #24]
10004df0:	60a3      	str	r3, [r4, #8]
10004df2:	230c      	movs	r3, #12
10004df4:	5ee0      	ldrsh	r0, [r4, r3]
10004df6:	b281      	uxth	r1, r0
10004df8:	070b      	lsls	r3, r1, #28
10004dfa:	d53c      	bpl.n	10004e76 <__swbuf_r+0x9a>
10004dfc:	6923      	ldr	r3, [r4, #16]
10004dfe:	2b00      	cmp	r3, #0
10004e00:	d039      	beq.n	10004e76 <__swbuf_r+0x9a>
10004e02:	22ff      	movs	r2, #255	; 0xff
10004e04:	b2ef      	uxtb	r7, r5
10004e06:	4015      	ands	r5, r2
10004e08:	2280      	movs	r2, #128	; 0x80
10004e0a:	0192      	lsls	r2, r2, #6
10004e0c:	4211      	tst	r1, r2
10004e0e:	d015      	beq.n	10004e3c <__swbuf_r+0x60>
10004e10:	6822      	ldr	r2, [r4, #0]
10004e12:	6961      	ldr	r1, [r4, #20]
10004e14:	1ad3      	subs	r3, r2, r3
10004e16:	428b      	cmp	r3, r1
10004e18:	da1b      	bge.n	10004e52 <__swbuf_r+0x76>
10004e1a:	3301      	adds	r3, #1
10004e1c:	68a1      	ldr	r1, [r4, #8]
10004e1e:	3901      	subs	r1, #1
10004e20:	60a1      	str	r1, [r4, #8]
10004e22:	1c51      	adds	r1, r2, #1
10004e24:	6021      	str	r1, [r4, #0]
10004e26:	7017      	strb	r7, [r2, #0]
10004e28:	6962      	ldr	r2, [r4, #20]
10004e2a:	429a      	cmp	r2, r3
10004e2c:	d01a      	beq.n	10004e64 <__swbuf_r+0x88>
10004e2e:	89a3      	ldrh	r3, [r4, #12]
10004e30:	07db      	lsls	r3, r3, #31
10004e32:	d501      	bpl.n	10004e38 <__swbuf_r+0x5c>
10004e34:	2d0a      	cmp	r5, #10
10004e36:	d015      	beq.n	10004e64 <__swbuf_r+0x88>
10004e38:	0028      	movs	r0, r5
10004e3a:	bdf8      	pop	{r3, r4, r5, r6, r7, pc}
10004e3c:	4302      	orrs	r2, r0
10004e3e:	6e61      	ldr	r1, [r4, #100]	; 0x64
10004e40:	81a2      	strh	r2, [r4, #12]
10004e42:	4a14      	ldr	r2, [pc, #80]	; (10004e94 <__swbuf_r+0xb8>)
10004e44:	400a      	ands	r2, r1
10004e46:	6662      	str	r2, [r4, #100]	; 0x64
10004e48:	6961      	ldr	r1, [r4, #20]
10004e4a:	6822      	ldr	r2, [r4, #0]
10004e4c:	1ad3      	subs	r3, r2, r3
10004e4e:	428b      	cmp	r3, r1
10004e50:	dbe3      	blt.n	10004e1a <__swbuf_r+0x3e>
10004e52:	0021      	movs	r1, r4
10004e54:	0030      	movs	r0, r6
10004e56:	f000 f93d 	bl	100050d4 <_fflush_r>
10004e5a:	2800      	cmp	r0, #0
10004e5c:	d108      	bne.n	10004e70 <__swbuf_r+0x94>
10004e5e:	6822      	ldr	r2, [r4, #0]
10004e60:	2301      	movs	r3, #1
10004e62:	e7db      	b.n	10004e1c <__swbuf_r+0x40>
10004e64:	0021      	movs	r1, r4
10004e66:	0030      	movs	r0, r6
10004e68:	f000 f934 	bl	100050d4 <_fflush_r>
10004e6c:	2800      	cmp	r0, #0
10004e6e:	d0e3      	beq.n	10004e38 <__swbuf_r+0x5c>
10004e70:	2501      	movs	r5, #1
10004e72:	426d      	negs	r5, r5
10004e74:	e7e0      	b.n	10004e38 <__swbuf_r+0x5c>
10004e76:	0021      	movs	r1, r4
10004e78:	0030      	movs	r0, r6
10004e7a:	f000 f819 	bl	10004eb0 <__swsetup_r>
10004e7e:	2800      	cmp	r0, #0
10004e80:	d1f6      	bne.n	10004e70 <__swbuf_r+0x94>
10004e82:	230c      	movs	r3, #12
10004e84:	5ee0      	ldrsh	r0, [r4, r3]
10004e86:	6923      	ldr	r3, [r4, #16]
10004e88:	b281      	uxth	r1, r0
10004e8a:	e7ba      	b.n	10004e02 <__swbuf_r+0x26>
10004e8c:	f000 fa3a 	bl	10005304 <__sinit>
10004e90:	e7ad      	b.n	10004dee <__swbuf_r+0x12>
10004e92:	46c0      	nop			; (mov r8, r8)
10004e94:	ffffdfff 	.word	0xffffdfff

10004e98 <__swbuf>:
10004e98:	b510      	push	{r4, lr}
10004e9a:	4b04      	ldr	r3, [pc, #16]	; (10004eac <__swbuf+0x14>)
10004e9c:	000a      	movs	r2, r1
10004e9e:	681b      	ldr	r3, [r3, #0]
10004ea0:	0001      	movs	r1, r0
10004ea2:	0018      	movs	r0, r3
10004ea4:	f7ff ff9a 	bl	10004ddc <__swbuf_r>
10004ea8:	bd10      	pop	{r4, pc}
10004eaa:	46c0      	nop			; (mov r8, r8)
10004eac:	200002f0 	.word	0x200002f0

10004eb0 <__swsetup_r>:
10004eb0:	4b33      	ldr	r3, [pc, #204]	; (10004f80 <__swsetup_r+0xd0>)
10004eb2:	b570      	push	{r4, r5, r6, lr}
10004eb4:	0005      	movs	r5, r0
10004eb6:	6818      	ldr	r0, [r3, #0]
10004eb8:	000c      	movs	r4, r1
10004eba:	2800      	cmp	r0, #0
10004ebc:	d002      	beq.n	10004ec4 <__swsetup_r+0x14>
10004ebe:	6b83      	ldr	r3, [r0, #56]	; 0x38
10004ec0:	2b00      	cmp	r3, #0
10004ec2:	d03c      	beq.n	10004f3e <__swsetup_r+0x8e>
10004ec4:	230c      	movs	r3, #12
10004ec6:	5ee2      	ldrsh	r2, [r4, r3]
10004ec8:	b293      	uxth	r3, r2
10004eca:	0719      	lsls	r1, r3, #28
10004ecc:	d50d      	bpl.n	10004eea <__swsetup_r+0x3a>
10004ece:	6921      	ldr	r1, [r4, #16]
10004ed0:	2900      	cmp	r1, #0
10004ed2:	d015      	beq.n	10004f00 <__swsetup_r+0x50>
10004ed4:	07da      	lsls	r2, r3, #31
10004ed6:	d521      	bpl.n	10004f1c <__swsetup_r+0x6c>
10004ed8:	2300      	movs	r3, #0
10004eda:	60a3      	str	r3, [r4, #8]
10004edc:	6963      	ldr	r3, [r4, #20]
10004ede:	2000      	movs	r0, #0
10004ee0:	425b      	negs	r3, r3
10004ee2:	61a3      	str	r3, [r4, #24]
10004ee4:	2900      	cmp	r1, #0
10004ee6:	d021      	beq.n	10004f2c <__swsetup_r+0x7c>
10004ee8:	bd70      	pop	{r4, r5, r6, pc}
10004eea:	06d9      	lsls	r1, r3, #27
10004eec:	d53f      	bpl.n	10004f6e <__swsetup_r+0xbe>
10004eee:	075b      	lsls	r3, r3, #29
10004ef0:	d428      	bmi.n	10004f44 <__swsetup_r+0x94>
10004ef2:	6921      	ldr	r1, [r4, #16]
10004ef4:	2308      	movs	r3, #8
10004ef6:	4313      	orrs	r3, r2
10004ef8:	81a3      	strh	r3, [r4, #12]
10004efa:	b29b      	uxth	r3, r3
10004efc:	2900      	cmp	r1, #0
10004efe:	d1e9      	bne.n	10004ed4 <__swsetup_r+0x24>
10004f00:	22a0      	movs	r2, #160	; 0xa0
10004f02:	2080      	movs	r0, #128	; 0x80
10004f04:	0092      	lsls	r2, r2, #2
10004f06:	0080      	lsls	r0, r0, #2
10004f08:	401a      	ands	r2, r3
10004f0a:	4282      	cmp	r2, r0
10004f0c:	d0e2      	beq.n	10004ed4 <__swsetup_r+0x24>
10004f0e:	0021      	movs	r1, r4
10004f10:	0028      	movs	r0, r5
10004f12:	f000 fbc5 	bl	100056a0 <__smakebuf_r>
10004f16:	89a3      	ldrh	r3, [r4, #12]
10004f18:	6921      	ldr	r1, [r4, #16]
10004f1a:	e7db      	b.n	10004ed4 <__swsetup_r+0x24>
10004f1c:	2200      	movs	r2, #0
10004f1e:	079b      	lsls	r3, r3, #30
10004f20:	d400      	bmi.n	10004f24 <__swsetup_r+0x74>
10004f22:	6962      	ldr	r2, [r4, #20]
10004f24:	60a2      	str	r2, [r4, #8]
10004f26:	2000      	movs	r0, #0
10004f28:	2900      	cmp	r1, #0
10004f2a:	d1dd      	bne.n	10004ee8 <__swsetup_r+0x38>
10004f2c:	220c      	movs	r2, #12
10004f2e:	5ea3      	ldrsh	r3, [r4, r2]
10004f30:	061a      	lsls	r2, r3, #24
10004f32:	d5d9      	bpl.n	10004ee8 <__swsetup_r+0x38>
10004f34:	2240      	movs	r2, #64	; 0x40
10004f36:	4313      	orrs	r3, r2
10004f38:	81a3      	strh	r3, [r4, #12]
10004f3a:	3801      	subs	r0, #1
10004f3c:	e7d4      	b.n	10004ee8 <__swsetup_r+0x38>
10004f3e:	f000 f9e1 	bl	10005304 <__sinit>
10004f42:	e7bf      	b.n	10004ec4 <__swsetup_r+0x14>
10004f44:	6b21      	ldr	r1, [r4, #48]	; 0x30
10004f46:	2900      	cmp	r1, #0
10004f48:	d00a      	beq.n	10004f60 <__swsetup_r+0xb0>
10004f4a:	0023      	movs	r3, r4
10004f4c:	3340      	adds	r3, #64	; 0x40
10004f4e:	4299      	cmp	r1, r3
10004f50:	d004      	beq.n	10004f5c <__swsetup_r+0xac>
10004f52:	0028      	movs	r0, r5
10004f54:	f000 fa4e 	bl	100053f4 <_free_r>
10004f58:	230c      	movs	r3, #12
10004f5a:	5ee2      	ldrsh	r2, [r4, r3]
10004f5c:	2300      	movs	r3, #0
10004f5e:	6323      	str	r3, [r4, #48]	; 0x30
10004f60:	2324      	movs	r3, #36	; 0x24
10004f62:	439a      	bics	r2, r3
10004f64:	2300      	movs	r3, #0
10004f66:	6921      	ldr	r1, [r4, #16]
10004f68:	6063      	str	r3, [r4, #4]
10004f6a:	6021      	str	r1, [r4, #0]
10004f6c:	e7c2      	b.n	10004ef4 <__swsetup_r+0x44>
10004f6e:	2309      	movs	r3, #9
10004f70:	602b      	str	r3, [r5, #0]
10004f72:	2340      	movs	r3, #64	; 0x40
10004f74:	2001      	movs	r0, #1
10004f76:	431a      	orrs	r2, r3
10004f78:	81a2      	strh	r2, [r4, #12]
10004f7a:	4240      	negs	r0, r0
10004f7c:	e7b4      	b.n	10004ee8 <__swsetup_r+0x38>
10004f7e:	46c0      	nop			; (mov r8, r8)
10004f80:	200002f0 	.word	0x200002f0

10004f84 <__sflush_r>:
10004f84:	b5f0      	push	{r4, r5, r6, r7, lr}
10004f86:	46c6      	mov	lr, r8
10004f88:	b500      	push	{lr}
10004f8a:	230c      	movs	r3, #12
10004f8c:	5eca      	ldrsh	r2, [r1, r3]
10004f8e:	4680      	mov	r8, r0
10004f90:	b293      	uxth	r3, r2
10004f92:	000c      	movs	r4, r1
10004f94:	0719      	lsls	r1, r3, #28
10004f96:	d440      	bmi.n	1000501a <__sflush_r+0x96>
10004f98:	2380      	movs	r3, #128	; 0x80
10004f9a:	011b      	lsls	r3, r3, #4
10004f9c:	4313      	orrs	r3, r2
10004f9e:	6862      	ldr	r2, [r4, #4]
10004fa0:	81a3      	strh	r3, [r4, #12]
10004fa2:	2a00      	cmp	r2, #0
10004fa4:	dc00      	bgt.n	10004fa8 <__sflush_r+0x24>
10004fa6:	e070      	b.n	1000508a <__sflush_r+0x106>
10004fa8:	6aa6      	ldr	r6, [r4, #40]	; 0x28
10004faa:	2e00      	cmp	r6, #0
10004fac:	d031      	beq.n	10005012 <__sflush_r+0x8e>
10004fae:	4642      	mov	r2, r8
10004fb0:	4641      	mov	r1, r8
10004fb2:	6815      	ldr	r5, [r2, #0]
10004fb4:	2200      	movs	r2, #0
10004fb6:	b29b      	uxth	r3, r3
10004fb8:	600a      	str	r2, [r1, #0]
10004fba:	04da      	lsls	r2, r3, #19
10004fbc:	d400      	bmi.n	10004fc0 <__sflush_r+0x3c>
10004fbe:	e069      	b.n	10005094 <__sflush_r+0x110>
10004fc0:	6d22      	ldr	r2, [r4, #80]	; 0x50
10004fc2:	075b      	lsls	r3, r3, #29
10004fc4:	d506      	bpl.n	10004fd4 <__sflush_r+0x50>
10004fc6:	6863      	ldr	r3, [r4, #4]
10004fc8:	1ad2      	subs	r2, r2, r3
10004fca:	6b23      	ldr	r3, [r4, #48]	; 0x30
10004fcc:	2b00      	cmp	r3, #0
10004fce:	d001      	beq.n	10004fd4 <__sflush_r+0x50>
10004fd0:	6be3      	ldr	r3, [r4, #60]	; 0x3c
10004fd2:	1ad2      	subs	r2, r2, r3
10004fd4:	2300      	movs	r3, #0
10004fd6:	69e1      	ldr	r1, [r4, #28]
10004fd8:	4640      	mov	r0, r8
10004fda:	47b0      	blx	r6
10004fdc:	1c43      	adds	r3, r0, #1
10004fde:	d03d      	beq.n	1000505c <__sflush_r+0xd8>
10004fe0:	89a3      	ldrh	r3, [r4, #12]
10004fe2:	4a3a      	ldr	r2, [pc, #232]	; (100050cc <__sflush_r+0x148>)
10004fe4:	4013      	ands	r3, r2
10004fe6:	2200      	movs	r2, #0
10004fe8:	6062      	str	r2, [r4, #4]
10004fea:	6922      	ldr	r2, [r4, #16]
10004fec:	b21b      	sxth	r3, r3
10004fee:	81a3      	strh	r3, [r4, #12]
10004ff0:	6022      	str	r2, [r4, #0]
10004ff2:	04db      	lsls	r3, r3, #19
10004ff4:	d447      	bmi.n	10005086 <__sflush_r+0x102>
10004ff6:	4643      	mov	r3, r8
10004ff8:	6b21      	ldr	r1, [r4, #48]	; 0x30
10004ffa:	601d      	str	r5, [r3, #0]
10004ffc:	2900      	cmp	r1, #0
10004ffe:	d008      	beq.n	10005012 <__sflush_r+0x8e>
10005000:	0023      	movs	r3, r4
10005002:	3340      	adds	r3, #64	; 0x40
10005004:	4299      	cmp	r1, r3
10005006:	d002      	beq.n	1000500e <__sflush_r+0x8a>
10005008:	4640      	mov	r0, r8
1000500a:	f000 f9f3 	bl	100053f4 <_free_r>
1000500e:	2300      	movs	r3, #0
10005010:	6323      	str	r3, [r4, #48]	; 0x30
10005012:	2000      	movs	r0, #0
10005014:	bc04      	pop	{r2}
10005016:	4690      	mov	r8, r2
10005018:	bdf0      	pop	{r4, r5, r6, r7, pc}
1000501a:	6926      	ldr	r6, [r4, #16]
1000501c:	2e00      	cmp	r6, #0
1000501e:	d0f8      	beq.n	10005012 <__sflush_r+0x8e>
10005020:	6822      	ldr	r2, [r4, #0]
10005022:	6026      	str	r6, [r4, #0]
10005024:	1b95      	subs	r5, r2, r6
10005026:	2200      	movs	r2, #0
10005028:	079b      	lsls	r3, r3, #30
1000502a:	d100      	bne.n	1000502e <__sflush_r+0xaa>
1000502c:	6962      	ldr	r2, [r4, #20]
1000502e:	60a2      	str	r2, [r4, #8]
10005030:	2d00      	cmp	r5, #0
10005032:	dc04      	bgt.n	1000503e <__sflush_r+0xba>
10005034:	e7ed      	b.n	10005012 <__sflush_r+0x8e>
10005036:	1836      	adds	r6, r6, r0
10005038:	1a2d      	subs	r5, r5, r0
1000503a:	2d00      	cmp	r5, #0
1000503c:	dde9      	ble.n	10005012 <__sflush_r+0x8e>
1000503e:	002b      	movs	r3, r5
10005040:	0032      	movs	r2, r6
10005042:	69e1      	ldr	r1, [r4, #28]
10005044:	4640      	mov	r0, r8
10005046:	6a67      	ldr	r7, [r4, #36]	; 0x24
10005048:	47b8      	blx	r7
1000504a:	2800      	cmp	r0, #0
1000504c:	dcf3      	bgt.n	10005036 <__sflush_r+0xb2>
1000504e:	2240      	movs	r2, #64	; 0x40
10005050:	2001      	movs	r0, #1
10005052:	89a3      	ldrh	r3, [r4, #12]
10005054:	4240      	negs	r0, r0
10005056:	4313      	orrs	r3, r2
10005058:	81a3      	strh	r3, [r4, #12]
1000505a:	e7db      	b.n	10005014 <__sflush_r+0x90>
1000505c:	4643      	mov	r3, r8
1000505e:	6819      	ldr	r1, [r3, #0]
10005060:	291d      	cmp	r1, #29
10005062:	d8f4      	bhi.n	1000504e <__sflush_r+0xca>
10005064:	4b1a      	ldr	r3, [pc, #104]	; (100050d0 <__sflush_r+0x14c>)
10005066:	2201      	movs	r2, #1
10005068:	40cb      	lsrs	r3, r1
1000506a:	439a      	bics	r2, r3
1000506c:	d1ef      	bne.n	1000504e <__sflush_r+0xca>
1000506e:	89a3      	ldrh	r3, [r4, #12]
10005070:	4e16      	ldr	r6, [pc, #88]	; (100050cc <__sflush_r+0x148>)
10005072:	6062      	str	r2, [r4, #4]
10005074:	4033      	ands	r3, r6
10005076:	6922      	ldr	r2, [r4, #16]
10005078:	b21b      	sxth	r3, r3
1000507a:	81a3      	strh	r3, [r4, #12]
1000507c:	6022      	str	r2, [r4, #0]
1000507e:	04db      	lsls	r3, r3, #19
10005080:	d5b9      	bpl.n	10004ff6 <__sflush_r+0x72>
10005082:	2900      	cmp	r1, #0
10005084:	d1b7      	bne.n	10004ff6 <__sflush_r+0x72>
10005086:	6520      	str	r0, [r4, #80]	; 0x50
10005088:	e7b5      	b.n	10004ff6 <__sflush_r+0x72>
1000508a:	6be2      	ldr	r2, [r4, #60]	; 0x3c
1000508c:	2a00      	cmp	r2, #0
1000508e:	dd00      	ble.n	10005092 <__sflush_r+0x10e>
10005090:	e78a      	b.n	10004fa8 <__sflush_r+0x24>
10005092:	e7be      	b.n	10005012 <__sflush_r+0x8e>
10005094:	2200      	movs	r2, #0
10005096:	2301      	movs	r3, #1
10005098:	69e1      	ldr	r1, [r4, #28]
1000509a:	4640      	mov	r0, r8
1000509c:	47b0      	blx	r6
1000509e:	0002      	movs	r2, r0
100050a0:	1c43      	adds	r3, r0, #1
100050a2:	d002      	beq.n	100050aa <__sflush_r+0x126>
100050a4:	89a3      	ldrh	r3, [r4, #12]
100050a6:	6aa6      	ldr	r6, [r4, #40]	; 0x28
100050a8:	e78b      	b.n	10004fc2 <__sflush_r+0x3e>
100050aa:	4643      	mov	r3, r8
100050ac:	681b      	ldr	r3, [r3, #0]
100050ae:	2b00      	cmp	r3, #0
100050b0:	d0f8      	beq.n	100050a4 <__sflush_r+0x120>
100050b2:	2b1d      	cmp	r3, #29
100050b4:	d001      	beq.n	100050ba <__sflush_r+0x136>
100050b6:	2b16      	cmp	r3, #22
100050b8:	d103      	bne.n	100050c2 <__sflush_r+0x13e>
100050ba:	4643      	mov	r3, r8
100050bc:	2000      	movs	r0, #0
100050be:	601d      	str	r5, [r3, #0]
100050c0:	e7a8      	b.n	10005014 <__sflush_r+0x90>
100050c2:	2140      	movs	r1, #64	; 0x40
100050c4:	89a3      	ldrh	r3, [r4, #12]
100050c6:	430b      	orrs	r3, r1
100050c8:	81a3      	strh	r3, [r4, #12]
100050ca:	e7a3      	b.n	10005014 <__sflush_r+0x90>
100050cc:	fffff7ff 	.word	0xfffff7ff
100050d0:	20400001 	.word	0x20400001

100050d4 <_fflush_r>:
100050d4:	b570      	push	{r4, r5, r6, lr}
100050d6:	0004      	movs	r4, r0
100050d8:	000d      	movs	r5, r1
100050da:	2800      	cmp	r0, #0
100050dc:	d002      	beq.n	100050e4 <_fflush_r+0x10>
100050de:	6b83      	ldr	r3, [r0, #56]	; 0x38
100050e0:	2b00      	cmp	r3, #0
100050e2:	d009      	beq.n	100050f8 <_fflush_r+0x24>
100050e4:	220c      	movs	r2, #12
100050e6:	5eab      	ldrsh	r3, [r5, r2]
100050e8:	2000      	movs	r0, #0
100050ea:	2b00      	cmp	r3, #0
100050ec:	d003      	beq.n	100050f6 <_fflush_r+0x22>
100050ee:	0029      	movs	r1, r5
100050f0:	0020      	movs	r0, r4
100050f2:	f7ff ff47 	bl	10004f84 <__sflush_r>
100050f6:	bd70      	pop	{r4, r5, r6, pc}
100050f8:	f000 f904 	bl	10005304 <__sinit>
100050fc:	e7f2      	b.n	100050e4 <_fflush_r+0x10>
100050fe:	46c0      	nop			; (mov r8, r8)

10005100 <fflush>:
10005100:	b510      	push	{r4, lr}
10005102:	1e01      	subs	r1, r0, #0
10005104:	d004      	beq.n	10005110 <fflush+0x10>
10005106:	4b05      	ldr	r3, [pc, #20]	; (1000511c <fflush+0x1c>)
10005108:	6818      	ldr	r0, [r3, #0]
1000510a:	f7ff ffe3 	bl	100050d4 <_fflush_r>
1000510e:	bd10      	pop	{r4, pc}
10005110:	4b03      	ldr	r3, [pc, #12]	; (10005120 <fflush+0x20>)
10005112:	4904      	ldr	r1, [pc, #16]	; (10005124 <fflush+0x24>)
10005114:	6818      	ldr	r0, [r3, #0]
10005116:	f000 fa6d 	bl	100055f4 <_fwalk_reent>
1000511a:	e7f8      	b.n	1000510e <fflush+0xe>
1000511c:	200002f0 	.word	0x200002f0
10005120:	10005cd0 	.word	0x10005cd0
10005124:	100050d5 	.word	0x100050d5

10005128 <__fp_unlock>:
10005128:	2000      	movs	r0, #0
1000512a:	4770      	bx	lr

1000512c <_cleanup_r>:
1000512c:	b510      	push	{r4, lr}
1000512e:	4902      	ldr	r1, [pc, #8]	; (10005138 <_cleanup_r+0xc>)
10005130:	f000 fa60 	bl	100055f4 <_fwalk_reent>
10005134:	bd10      	pop	{r4, pc}
10005136:	46c0      	nop			; (mov r8, r8)
10005138:	10005815 	.word	0x10005815

1000513c <__sinit.part.1>:
1000513c:	b5f8      	push	{r3, r4, r5, r6, r7, lr}
1000513e:	46de      	mov	lr, fp
10005140:	4657      	mov	r7, sl
10005142:	464e      	mov	r6, r9
10005144:	4645      	mov	r5, r8
10005146:	4b34      	ldr	r3, [pc, #208]	; (10005218 <__sinit.part.1+0xdc>)
10005148:	b5e0      	push	{r5, r6, r7, lr}
1000514a:	63c3      	str	r3, [r0, #60]	; 0x3c
1000514c:	23b8      	movs	r3, #184	; 0xb8
1000514e:	2400      	movs	r4, #0
10005150:	2203      	movs	r2, #3
10005152:	009b      	lsls	r3, r3, #2
10005154:	50c4      	str	r4, [r0, r3]
10005156:	3304      	adds	r3, #4
10005158:	6845      	ldr	r5, [r0, #4]
1000515a:	50c2      	str	r2, [r0, r3]
1000515c:	3308      	adds	r3, #8
1000515e:	18c2      	adds	r2, r0, r3
10005160:	3b04      	subs	r3, #4
10005162:	50c2      	str	r2, [r0, r3]
10005164:	0006      	movs	r6, r0
10005166:	2304      	movs	r3, #4
10005168:	0028      	movs	r0, r5
1000516a:	602c      	str	r4, [r5, #0]
1000516c:	606c      	str	r4, [r5, #4]
1000516e:	60ac      	str	r4, [r5, #8]
10005170:	81ab      	strh	r3, [r5, #12]
10005172:	666c      	str	r4, [r5, #100]	; 0x64
10005174:	81ec      	strh	r4, [r5, #14]
10005176:	612c      	str	r4, [r5, #16]
10005178:	616c      	str	r4, [r5, #20]
1000517a:	61ac      	str	r4, [r5, #24]
1000517c:	2208      	movs	r2, #8
1000517e:	2100      	movs	r1, #0
10005180:	305c      	adds	r0, #92	; 0x5c
10005182:	f7fc ffe1 	bl	10002148 <__wrap_memset>
10005186:	4b25      	ldr	r3, [pc, #148]	; (1000521c <__sinit.part.1+0xe0>)
10005188:	4f25      	ldr	r7, [pc, #148]	; (10005220 <__sinit.part.1+0xe4>)
1000518a:	469a      	mov	sl, r3
1000518c:	622b      	str	r3, [r5, #32]
1000518e:	4b25      	ldr	r3, [pc, #148]	; (10005224 <__sinit.part.1+0xe8>)
10005190:	62ef      	str	r7, [r5, #44]	; 0x2c
10005192:	4699      	mov	r9, r3
10005194:	626b      	str	r3, [r5, #36]	; 0x24
10005196:	4b24      	ldr	r3, [pc, #144]	; (10005228 <__sinit.part.1+0xec>)
10005198:	61ed      	str	r5, [r5, #28]
1000519a:	62ab      	str	r3, [r5, #40]	; 0x28
1000519c:	68b5      	ldr	r5, [r6, #8]
1000519e:	4698      	mov	r8, r3
100051a0:	2309      	movs	r3, #9
100051a2:	0028      	movs	r0, r5
100051a4:	81ab      	strh	r3, [r5, #12]
100051a6:	3b08      	subs	r3, #8
100051a8:	602c      	str	r4, [r5, #0]
100051aa:	606c      	str	r4, [r5, #4]
100051ac:	60ac      	str	r4, [r5, #8]
100051ae:	666c      	str	r4, [r5, #100]	; 0x64
100051b0:	81eb      	strh	r3, [r5, #14]
100051b2:	612c      	str	r4, [r5, #16]
100051b4:	616c      	str	r4, [r5, #20]
100051b6:	61ac      	str	r4, [r5, #24]
100051b8:	2208      	movs	r2, #8
100051ba:	2100      	movs	r1, #0
100051bc:	305c      	adds	r0, #92	; 0x5c
100051be:	469b      	mov	fp, r3
100051c0:	f7fc ffc2 	bl	10002148 <__wrap_memset>
100051c4:	4653      	mov	r3, sl
100051c6:	622b      	str	r3, [r5, #32]
100051c8:	464b      	mov	r3, r9
100051ca:	626b      	str	r3, [r5, #36]	; 0x24
100051cc:	4643      	mov	r3, r8
100051ce:	62ef      	str	r7, [r5, #44]	; 0x2c
100051d0:	62ab      	str	r3, [r5, #40]	; 0x28
100051d2:	61ed      	str	r5, [r5, #28]
100051d4:	68f5      	ldr	r5, [r6, #12]
100051d6:	2312      	movs	r3, #18
100051d8:	0028      	movs	r0, r5
100051da:	81ab      	strh	r3, [r5, #12]
100051dc:	3b10      	subs	r3, #16
100051de:	81eb      	strh	r3, [r5, #14]
100051e0:	602c      	str	r4, [r5, #0]
100051e2:	606c      	str	r4, [r5, #4]
100051e4:	60ac      	str	r4, [r5, #8]
100051e6:	666c      	str	r4, [r5, #100]	; 0x64
100051e8:	612c      	str	r4, [r5, #16]
100051ea:	616c      	str	r4, [r5, #20]
100051ec:	61ac      	str	r4, [r5, #24]
100051ee:	2208      	movs	r2, #8
100051f0:	2100      	movs	r1, #0
100051f2:	305c      	adds	r0, #92	; 0x5c
100051f4:	f7fc ffa8 	bl	10002148 <__wrap_memset>
100051f8:	4653      	mov	r3, sl
100051fa:	622b      	str	r3, [r5, #32]
100051fc:	464b      	mov	r3, r9
100051fe:	626b      	str	r3, [r5, #36]	; 0x24
10005200:	4643      	mov	r3, r8
10005202:	62ab      	str	r3, [r5, #40]	; 0x28
10005204:	465b      	mov	r3, fp
10005206:	62ef      	str	r7, [r5, #44]	; 0x2c
10005208:	61ed      	str	r5, [r5, #28]
1000520a:	63b3      	str	r3, [r6, #56]	; 0x38
1000520c:	bc3c      	pop	{r2, r3, r4, r5}
1000520e:	4690      	mov	r8, r2
10005210:	4699      	mov	r9, r3
10005212:	46a2      	mov	sl, r4
10005214:	46ab      	mov	fp, r5
10005216:	bdf8      	pop	{r3, r4, r5, r6, r7, pc}
10005218:	1000512d 	.word	0x1000512d
1000521c:	10005729 	.word	0x10005729
10005220:	100057bd 	.word	0x100057bd
10005224:	10005755 	.word	0x10005755
10005228:	10005791 	.word	0x10005791

1000522c <__fp_lock>:
1000522c:	2000      	movs	r0, #0
1000522e:	4770      	bx	lr

10005230 <__sfmoreglue>:
10005230:	b570      	push	{r4, r5, r6, lr}
10005232:	2468      	movs	r4, #104	; 0x68
10005234:	1e4a      	subs	r2, r1, #1
10005236:	4354      	muls	r4, r2
10005238:	000e      	movs	r6, r1
1000523a:	0021      	movs	r1, r4
1000523c:	3174      	adds	r1, #116	; 0x74
1000523e:	f7ff fad9 	bl	100047f4 <_malloc_r>
10005242:	1e05      	subs	r5, r0, #0
10005244:	d009      	beq.n	1000525a <__sfmoreglue+0x2a>
10005246:	2300      	movs	r3, #0
10005248:	0022      	movs	r2, r4
1000524a:	6003      	str	r3, [r0, #0]
1000524c:	6046      	str	r6, [r0, #4]
1000524e:	300c      	adds	r0, #12
10005250:	60a8      	str	r0, [r5, #8]
10005252:	3268      	adds	r2, #104	; 0x68
10005254:	2100      	movs	r1, #0
10005256:	f7fc ff77 	bl	10002148 <__wrap_memset>
1000525a:	0028      	movs	r0, r5
1000525c:	bd70      	pop	{r4, r5, r6, pc}
1000525e:	46c0      	nop			; (mov r8, r8)

10005260 <__sfp>:
10005260:	4b21      	ldr	r3, [pc, #132]	; (100052e8 <__sfp+0x88>)
10005262:	b570      	push	{r4, r5, r6, lr}
10005264:	681d      	ldr	r5, [r3, #0]
10005266:	0006      	movs	r6, r0
10005268:	6bab      	ldr	r3, [r5, #56]	; 0x38
1000526a:	2b00      	cmp	r3, #0
1000526c:	d02d      	beq.n	100052ca <__sfp+0x6a>
1000526e:	23b8      	movs	r3, #184	; 0xb8
10005270:	009b      	lsls	r3, r3, #2
10005272:	469c      	mov	ip, r3
10005274:	4465      	add	r5, ip
10005276:	686b      	ldr	r3, [r5, #4]
10005278:	68ac      	ldr	r4, [r5, #8]
1000527a:	3b01      	subs	r3, #1
1000527c:	d503      	bpl.n	10005286 <__sfp+0x26>
1000527e:	e01f      	b.n	100052c0 <__sfp+0x60>
10005280:	3468      	adds	r4, #104	; 0x68
10005282:	3b01      	subs	r3, #1
10005284:	d31c      	bcc.n	100052c0 <__sfp+0x60>
10005286:	210c      	movs	r1, #12
10005288:	5e62      	ldrsh	r2, [r4, r1]
1000528a:	2a00      	cmp	r2, #0
1000528c:	d1f8      	bne.n	10005280 <__sfp+0x20>
1000528e:	2301      	movs	r3, #1
10005290:	2500      	movs	r5, #0
10005292:	0020      	movs	r0, r4
10005294:	425b      	negs	r3, r3
10005296:	81e3      	strh	r3, [r4, #14]
10005298:	3302      	adds	r3, #2
1000529a:	81a3      	strh	r3, [r4, #12]
1000529c:	6665      	str	r5, [r4, #100]	; 0x64
1000529e:	6025      	str	r5, [r4, #0]
100052a0:	60a5      	str	r5, [r4, #8]
100052a2:	6065      	str	r5, [r4, #4]
100052a4:	6125      	str	r5, [r4, #16]
100052a6:	6165      	str	r5, [r4, #20]
100052a8:	61a5      	str	r5, [r4, #24]
100052aa:	2208      	movs	r2, #8
100052ac:	2100      	movs	r1, #0
100052ae:	305c      	adds	r0, #92	; 0x5c
100052b0:	f7fc ff4a 	bl	10002148 <__wrap_memset>
100052b4:	6325      	str	r5, [r4, #48]	; 0x30
100052b6:	6365      	str	r5, [r4, #52]	; 0x34
100052b8:	6465      	str	r5, [r4, #68]	; 0x44
100052ba:	64a5      	str	r5, [r4, #72]	; 0x48
100052bc:	0020      	movs	r0, r4
100052be:	bd70      	pop	{r4, r5, r6, pc}
100052c0:	6828      	ldr	r0, [r5, #0]
100052c2:	2800      	cmp	r0, #0
100052c4:	d005      	beq.n	100052d2 <__sfp+0x72>
100052c6:	0005      	movs	r5, r0
100052c8:	e7d5      	b.n	10005276 <__sfp+0x16>
100052ca:	0028      	movs	r0, r5
100052cc:	f7ff ff36 	bl	1000513c <__sinit.part.1>
100052d0:	e7cd      	b.n	1000526e <__sfp+0xe>
100052d2:	2104      	movs	r1, #4
100052d4:	0030      	movs	r0, r6
100052d6:	f7ff ffab 	bl	10005230 <__sfmoreglue>
100052da:	6028      	str	r0, [r5, #0]
100052dc:	2800      	cmp	r0, #0
100052de:	d1f2      	bne.n	100052c6 <__sfp+0x66>
100052e0:	230c      	movs	r3, #12
100052e2:	2400      	movs	r4, #0
100052e4:	6033      	str	r3, [r6, #0]
100052e6:	e7e9      	b.n	100052bc <__sfp+0x5c>
100052e8:	10005cd0 	.word	0x10005cd0

100052ec <_cleanup>:
100052ec:	b510      	push	{r4, lr}
100052ee:	4b03      	ldr	r3, [pc, #12]	; (100052fc <_cleanup+0x10>)
100052f0:	4903      	ldr	r1, [pc, #12]	; (10005300 <_cleanup+0x14>)
100052f2:	6818      	ldr	r0, [r3, #0]
100052f4:	f000 f97e 	bl	100055f4 <_fwalk_reent>
100052f8:	bd10      	pop	{r4, pc}
100052fa:	46c0      	nop			; (mov r8, r8)
100052fc:	10005cd0 	.word	0x10005cd0
10005300:	10005815 	.word	0x10005815

10005304 <__sinit>:
10005304:	6b83      	ldr	r3, [r0, #56]	; 0x38
10005306:	b510      	push	{r4, lr}
10005308:	2b00      	cmp	r3, #0
1000530a:	d101      	bne.n	10005310 <__sinit+0xc>
1000530c:	f7ff ff16 	bl	1000513c <__sinit.part.1>
10005310:	bd10      	pop	{r4, pc}
10005312:	46c0      	nop			; (mov r8, r8)

10005314 <__sfp_lock_acquire>:
10005314:	4770      	bx	lr
10005316:	46c0      	nop			; (mov r8, r8)

10005318 <__sfp_lock_release>:
10005318:	4770      	bx	lr
1000531a:	46c0      	nop			; (mov r8, r8)

1000531c <__sinit_lock_acquire>:
1000531c:	4770      	bx	lr
1000531e:	46c0      	nop			; (mov r8, r8)

10005320 <__sinit_lock_release>:
10005320:	4770      	bx	lr
10005322:	46c0      	nop			; (mov r8, r8)

10005324 <__fp_lock_all>:
10005324:	b510      	push	{r4, lr}
10005326:	4b03      	ldr	r3, [pc, #12]	; (10005334 <__fp_lock_all+0x10>)
10005328:	4903      	ldr	r1, [pc, #12]	; (10005338 <__fp_lock_all+0x14>)
1000532a:	6818      	ldr	r0, [r3, #0]
1000532c:	f000 f940 	bl	100055b0 <_fwalk>
10005330:	bd10      	pop	{r4, pc}
10005332:	46c0      	nop			; (mov r8, r8)
10005334:	200002f0 	.word	0x200002f0
10005338:	1000522d 	.word	0x1000522d

1000533c <__fp_unlock_all>:
1000533c:	b510      	push	{r4, lr}
1000533e:	4b03      	ldr	r3, [pc, #12]	; (1000534c <__fp_unlock_all+0x10>)
10005340:	4903      	ldr	r1, [pc, #12]	; (10005350 <__fp_unlock_all+0x14>)
10005342:	6818      	ldr	r0, [r3, #0]
10005344:	f000 f934 	bl	100055b0 <_fwalk>
10005348:	bd10      	pop	{r4, pc}
1000534a:	46c0      	nop			; (mov r8, r8)
1000534c:	200002f0 	.word	0x200002f0
10005350:	10005129 	.word	0x10005129

10005354 <_malloc_trim_r>:
10005354:	b5f8      	push	{r3, r4, r5, r6, r7, lr}
10005356:	000c      	movs	r4, r1
10005358:	0006      	movs	r6, r0
1000535a:	f7ff fcf7 	bl	10004d4c <__malloc_lock>
1000535e:	4f20      	ldr	r7, [pc, #128]	; (100053e0 <_malloc_trim_r+0x8c>)
10005360:	68bb      	ldr	r3, [r7, #8]
10005362:	685d      	ldr	r5, [r3, #4]
10005364:	2303      	movs	r3, #3
10005366:	439d      	bics	r5, r3
10005368:	4b1e      	ldr	r3, [pc, #120]	; (100053e4 <_malloc_trim_r+0x90>)
1000536a:	1b2c      	subs	r4, r5, r4
1000536c:	469c      	mov	ip, r3
1000536e:	4464      	add	r4, ip
10005370:	0b24      	lsrs	r4, r4, #12
10005372:	4b1d      	ldr	r3, [pc, #116]	; (100053e8 <_malloc_trim_r+0x94>)
10005374:	3c01      	subs	r4, #1
10005376:	0324      	lsls	r4, r4, #12
10005378:	429c      	cmp	r4, r3
1000537a:	dd07      	ble.n	1000538c <_malloc_trim_r+0x38>
1000537c:	2100      	movs	r1, #0
1000537e:	0030      	movs	r0, r6
10005380:	f7ff fce8 	bl	10004d54 <_sbrk_r>
10005384:	68bb      	ldr	r3, [r7, #8]
10005386:	195b      	adds	r3, r3, r5
10005388:	4298      	cmp	r0, r3
1000538a:	d004      	beq.n	10005396 <_malloc_trim_r+0x42>
1000538c:	0030      	movs	r0, r6
1000538e:	f7ff fcdf 	bl	10004d50 <__malloc_unlock>
10005392:	2000      	movs	r0, #0
10005394:	bdf8      	pop	{r3, r4, r5, r6, r7, pc}
10005396:	4261      	negs	r1, r4
10005398:	0030      	movs	r0, r6
1000539a:	f7ff fcdb 	bl	10004d54 <_sbrk_r>
1000539e:	1c43      	adds	r3, r0, #1
100053a0:	d00d      	beq.n	100053be <_malloc_trim_r+0x6a>
100053a2:	2201      	movs	r2, #1
100053a4:	68bb      	ldr	r3, [r7, #8]
100053a6:	1b2d      	subs	r5, r5, r4
100053a8:	4315      	orrs	r5, r2
100053aa:	605d      	str	r5, [r3, #4]
100053ac:	4b0f      	ldr	r3, [pc, #60]	; (100053ec <_malloc_trim_r+0x98>)
100053ae:	0030      	movs	r0, r6
100053b0:	681a      	ldr	r2, [r3, #0]
100053b2:	1b14      	subs	r4, r2, r4
100053b4:	601c      	str	r4, [r3, #0]
100053b6:	f7ff fccb 	bl	10004d50 <__malloc_unlock>
100053ba:	2001      	movs	r0, #1
100053bc:	e7ea      	b.n	10005394 <_malloc_trim_r+0x40>
100053be:	2100      	movs	r1, #0
100053c0:	0030      	movs	r0, r6
100053c2:	f7ff fcc7 	bl	10004d54 <_sbrk_r>
100053c6:	68ba      	ldr	r2, [r7, #8]
100053c8:	1a83      	subs	r3, r0, r2
100053ca:	2b0f      	cmp	r3, #15
100053cc:	ddde      	ble.n	1000538c <_malloc_trim_r+0x38>
100053ce:	4908      	ldr	r1, [pc, #32]	; (100053f0 <_malloc_trim_r+0x9c>)
100053d0:	6809      	ldr	r1, [r1, #0]
100053d2:	1a40      	subs	r0, r0, r1
100053d4:	4905      	ldr	r1, [pc, #20]	; (100053ec <_malloc_trim_r+0x98>)
100053d6:	6008      	str	r0, [r1, #0]
100053d8:	2101      	movs	r1, #1
100053da:	430b      	orrs	r3, r1
100053dc:	6053      	str	r3, [r2, #4]
100053de:	e7d5      	b.n	1000538c <_malloc_trim_r+0x38>
100053e0:	20000720 	.word	0x20000720
100053e4:	00000fef 	.word	0x00000fef
100053e8:	00000fff 	.word	0x00000fff
100053ec:	20000b78 	.word	0x20000b78
100053f0:	20000b28 	.word	0x20000b28

100053f4 <_free_r>:
100053f4:	b5f8      	push	{r3, r4, r5, r6, r7, lr}
100053f6:	0004      	movs	r4, r0
100053f8:	1e0d      	subs	r5, r1, #0
100053fa:	d03c      	beq.n	10005476 <_free_r+0x82>
100053fc:	f7ff fca6 	bl	10004d4c <__malloc_lock>
10005400:	0029      	movs	r1, r5
10005402:	3908      	subs	r1, #8
10005404:	6848      	ldr	r0, [r1, #4]
10005406:	2301      	movs	r3, #1
10005408:	0005      	movs	r5, r0
1000540a:	2603      	movs	r6, #3
1000540c:	439d      	bics	r5, r3
1000540e:	194a      	adds	r2, r1, r5
10005410:	469c      	mov	ip, r3
10005412:	4f61      	ldr	r7, [pc, #388]	; (10005598 <_free_r+0x1a4>)
10005414:	6853      	ldr	r3, [r2, #4]
10005416:	43b3      	bics	r3, r6
10005418:	68be      	ldr	r6, [r7, #8]
1000541a:	42b2      	cmp	r2, r6
1000541c:	d056      	beq.n	100054cc <_free_r+0xd8>
1000541e:	4666      	mov	r6, ip
10005420:	6053      	str	r3, [r2, #4]
10005422:	4206      	tst	r6, r0
10005424:	d10a      	bne.n	1000543c <_free_r+0x48>
10005426:	003e      	movs	r6, r7
10005428:	6808      	ldr	r0, [r1, #0]
1000542a:	3608      	adds	r6, #8
1000542c:	1a09      	subs	r1, r1, r0
1000542e:	182d      	adds	r5, r5, r0
10005430:	6888      	ldr	r0, [r1, #8]
10005432:	42b0      	cmp	r0, r6
10005434:	d065      	beq.n	10005502 <_free_r+0x10e>
10005436:	68ce      	ldr	r6, [r1, #12]
10005438:	60c6      	str	r6, [r0, #12]
1000543a:	60b0      	str	r0, [r6, #8]
1000543c:	2001      	movs	r0, #1
1000543e:	18d6      	adds	r6, r2, r3
10005440:	6876      	ldr	r6, [r6, #4]
10005442:	4206      	tst	r6, r0
10005444:	d033      	beq.n	100054ae <_free_r+0xba>
10005446:	4b55      	ldr	r3, [pc, #340]	; (1000559c <_free_r+0x1a8>)
10005448:	4328      	orrs	r0, r5
1000544a:	6048      	str	r0, [r1, #4]
1000544c:	514d      	str	r5, [r1, r5]
1000544e:	429d      	cmp	r5, r3
10005450:	d812      	bhi.n	10005478 <_free_r+0x84>
10005452:	08ed      	lsrs	r5, r5, #3
10005454:	3bff      	subs	r3, #255	; 0xff
10005456:	10aa      	asrs	r2, r5, #2
10005458:	3bff      	subs	r3, #255	; 0xff
1000545a:	4093      	lsls	r3, r2
1000545c:	687a      	ldr	r2, [r7, #4]
1000545e:	00ed      	lsls	r5, r5, #3
10005460:	4313      	orrs	r3, r2
10005462:	607b      	str	r3, [r7, #4]
10005464:	19ef      	adds	r7, r5, r7
10005466:	68bb      	ldr	r3, [r7, #8]
10005468:	60cf      	str	r7, [r1, #12]
1000546a:	608b      	str	r3, [r1, #8]
1000546c:	60b9      	str	r1, [r7, #8]
1000546e:	60d9      	str	r1, [r3, #12]
10005470:	0020      	movs	r0, r4
10005472:	f7ff fc6d 	bl	10004d50 <__malloc_unlock>
10005476:	bdf8      	pop	{r3, r4, r5, r6, r7, pc}
10005478:	0a68      	lsrs	r0, r5, #9
1000547a:	2804      	cmp	r0, #4
1000547c:	d850      	bhi.n	10005520 <_free_r+0x12c>
1000547e:	09a8      	lsrs	r0, r5, #6
10005480:	0002      	movs	r2, r0
10005482:	3039      	adds	r0, #57	; 0x39
10005484:	3238      	adds	r2, #56	; 0x38
10005486:	00c0      	lsls	r0, r0, #3
10005488:	1838      	adds	r0, r7, r0
1000548a:	3808      	subs	r0, #8
1000548c:	6883      	ldr	r3, [r0, #8]
1000548e:	2603      	movs	r6, #3
10005490:	4298      	cmp	r0, r3
10005492:	d04c      	beq.n	1000552e <_free_r+0x13a>
10005494:	685a      	ldr	r2, [r3, #4]
10005496:	43b2      	bics	r2, r6
10005498:	4295      	cmp	r5, r2
1000549a:	d230      	bcs.n	100054fe <_free_r+0x10a>
1000549c:	689b      	ldr	r3, [r3, #8]
1000549e:	4298      	cmp	r0, r3
100054a0:	d1f8      	bne.n	10005494 <_free_r+0xa0>
100054a2:	68c3      	ldr	r3, [r0, #12]
100054a4:	60cb      	str	r3, [r1, #12]
100054a6:	6088      	str	r0, [r1, #8]
100054a8:	6099      	str	r1, [r3, #8]
100054aa:	60c1      	str	r1, [r0, #12]
100054ac:	e7e0      	b.n	10005470 <_free_r+0x7c>
100054ae:	18ed      	adds	r5, r5, r3
100054b0:	4e3b      	ldr	r6, [pc, #236]	; (100055a0 <_free_r+0x1ac>)
100054b2:	6893      	ldr	r3, [r2, #8]
100054b4:	42b3      	cmp	r3, r6
100054b6:	d042      	beq.n	1000553e <_free_r+0x14a>
100054b8:	68d2      	ldr	r2, [r2, #12]
100054ba:	4328      	orrs	r0, r5
100054bc:	60da      	str	r2, [r3, #12]
100054be:	6093      	str	r3, [r2, #8]
100054c0:	4b36      	ldr	r3, [pc, #216]	; (1000559c <_free_r+0x1a8>)
100054c2:	6048      	str	r0, [r1, #4]
100054c4:	514d      	str	r5, [r1, r5]
100054c6:	429d      	cmp	r5, r3
100054c8:	d8d6      	bhi.n	10005478 <_free_r+0x84>
100054ca:	e7c2      	b.n	10005452 <_free_r+0x5e>
100054cc:	4662      	mov	r2, ip
100054ce:	18eb      	adds	r3, r5, r3
100054d0:	4202      	tst	r2, r0
100054d2:	d106      	bne.n	100054e2 <_free_r+0xee>
100054d4:	680a      	ldr	r2, [r1, #0]
100054d6:	1a89      	subs	r1, r1, r2
100054d8:	6888      	ldr	r0, [r1, #8]
100054da:	189b      	adds	r3, r3, r2
100054dc:	68ca      	ldr	r2, [r1, #12]
100054de:	60c2      	str	r2, [r0, #12]
100054e0:	6090      	str	r0, [r2, #8]
100054e2:	2201      	movs	r2, #1
100054e4:	431a      	orrs	r2, r3
100054e6:	604a      	str	r2, [r1, #4]
100054e8:	4a2e      	ldr	r2, [pc, #184]	; (100055a4 <_free_r+0x1b0>)
100054ea:	60b9      	str	r1, [r7, #8]
100054ec:	6812      	ldr	r2, [r2, #0]
100054ee:	4293      	cmp	r3, r2
100054f0:	d3be      	bcc.n	10005470 <_free_r+0x7c>
100054f2:	4b2d      	ldr	r3, [pc, #180]	; (100055a8 <_free_r+0x1b4>)
100054f4:	0020      	movs	r0, r4
100054f6:	6819      	ldr	r1, [r3, #0]
100054f8:	f7ff ff2c 	bl	10005354 <_malloc_trim_r>
100054fc:	e7b8      	b.n	10005470 <_free_r+0x7c>
100054fe:	0018      	movs	r0, r3
10005500:	e7cf      	b.n	100054a2 <_free_r+0xae>
10005502:	4666      	mov	r6, ip
10005504:	18d0      	adds	r0, r2, r3
10005506:	6840      	ldr	r0, [r0, #4]
10005508:	4230      	tst	r0, r6
1000550a:	d13f      	bne.n	1000558c <_free_r+0x198>
1000550c:	6890      	ldr	r0, [r2, #8]
1000550e:	195d      	adds	r5, r3, r5
10005510:	68d3      	ldr	r3, [r2, #12]
10005512:	60c3      	str	r3, [r0, #12]
10005514:	6098      	str	r0, [r3, #8]
10005516:	4663      	mov	r3, ip
10005518:	432b      	orrs	r3, r5
1000551a:	604b      	str	r3, [r1, #4]
1000551c:	514d      	str	r5, [r1, r5]
1000551e:	e7a7      	b.n	10005470 <_free_r+0x7c>
10005520:	2814      	cmp	r0, #20
10005522:	d814      	bhi.n	1000554e <_free_r+0x15a>
10005524:	0002      	movs	r2, r0
10005526:	305c      	adds	r0, #92	; 0x5c
10005528:	325b      	adds	r2, #91	; 0x5b
1000552a:	00c0      	lsls	r0, r0, #3
1000552c:	e7ac      	b.n	10005488 <_free_r+0x94>
1000552e:	2301      	movs	r3, #1
10005530:	1092      	asrs	r2, r2, #2
10005532:	4093      	lsls	r3, r2
10005534:	687a      	ldr	r2, [r7, #4]
10005536:	4313      	orrs	r3, r2
10005538:	607b      	str	r3, [r7, #4]
1000553a:	0003      	movs	r3, r0
1000553c:	e7b2      	b.n	100054a4 <_free_r+0xb0>
1000553e:	4328      	orrs	r0, r5
10005540:	60d9      	str	r1, [r3, #12]
10005542:	6099      	str	r1, [r3, #8]
10005544:	60cb      	str	r3, [r1, #12]
10005546:	608b      	str	r3, [r1, #8]
10005548:	6048      	str	r0, [r1, #4]
1000554a:	514d      	str	r5, [r1, r5]
1000554c:	e790      	b.n	10005470 <_free_r+0x7c>
1000554e:	2854      	cmp	r0, #84	; 0x54
10005550:	d805      	bhi.n	1000555e <_free_r+0x16a>
10005552:	0b28      	lsrs	r0, r5, #12
10005554:	0002      	movs	r2, r0
10005556:	306f      	adds	r0, #111	; 0x6f
10005558:	326e      	adds	r2, #110	; 0x6e
1000555a:	00c0      	lsls	r0, r0, #3
1000555c:	e794      	b.n	10005488 <_free_r+0x94>
1000555e:	22aa      	movs	r2, #170	; 0xaa
10005560:	0052      	lsls	r2, r2, #1
10005562:	4290      	cmp	r0, r2
10005564:	d805      	bhi.n	10005572 <_free_r+0x17e>
10005566:	0be8      	lsrs	r0, r5, #15
10005568:	0002      	movs	r2, r0
1000556a:	3078      	adds	r0, #120	; 0x78
1000556c:	3277      	adds	r2, #119	; 0x77
1000556e:	00c0      	lsls	r0, r0, #3
10005570:	e78a      	b.n	10005488 <_free_r+0x94>
10005572:	4a0e      	ldr	r2, [pc, #56]	; (100055ac <_free_r+0x1b8>)
10005574:	4290      	cmp	r0, r2
10005576:	d805      	bhi.n	10005584 <_free_r+0x190>
10005578:	0ca8      	lsrs	r0, r5, #18
1000557a:	0002      	movs	r2, r0
1000557c:	307d      	adds	r0, #125	; 0x7d
1000557e:	327c      	adds	r2, #124	; 0x7c
10005580:	00c0      	lsls	r0, r0, #3
10005582:	e781      	b.n	10005488 <_free_r+0x94>
10005584:	20fe      	movs	r0, #254	; 0xfe
10005586:	227e      	movs	r2, #126	; 0x7e
10005588:	0080      	lsls	r0, r0, #2
1000558a:	e77d      	b.n	10005488 <_free_r+0x94>
1000558c:	4663      	mov	r3, ip
1000558e:	432b      	orrs	r3, r5
10005590:	604b      	str	r3, [r1, #4]
10005592:	6015      	str	r5, [r2, #0]
10005594:	e76c      	b.n	10005470 <_free_r+0x7c>
10005596:	46c0      	nop			; (mov r8, r8)
10005598:	20000720 	.word	0x20000720
1000559c:	000001ff 	.word	0x000001ff
100055a0:	20000728 	.word	0x20000728
100055a4:	20000b2c 	.word	0x20000b2c
100055a8:	20000b74 	.word	0x20000b74
100055ac:	00000554 	.word	0x00000554

100055b0 <_fwalk>:
100055b0:	23b8      	movs	r3, #184	; 0xb8
100055b2:	b5f0      	push	{r4, r5, r6, r7, lr}
100055b4:	46c6      	mov	lr, r8
100055b6:	009b      	lsls	r3, r3, #2
100055b8:	18c7      	adds	r7, r0, r3
100055ba:	b500      	push	{lr}
100055bc:	4688      	mov	r8, r1
100055be:	2600      	movs	r6, #0
100055c0:	2f00      	cmp	r7, #0
100055c2:	d013      	beq.n	100055ec <_fwalk+0x3c>
100055c4:	687b      	ldr	r3, [r7, #4]
100055c6:	68bc      	ldr	r4, [r7, #8]
100055c8:	1e5d      	subs	r5, r3, #1
100055ca:	d40c      	bmi.n	100055e6 <_fwalk+0x36>
100055cc:	89a3      	ldrh	r3, [r4, #12]
100055ce:	2b01      	cmp	r3, #1
100055d0:	d906      	bls.n	100055e0 <_fwalk+0x30>
100055d2:	220e      	movs	r2, #14
100055d4:	5ea3      	ldrsh	r3, [r4, r2]
100055d6:	3301      	adds	r3, #1
100055d8:	d002      	beq.n	100055e0 <_fwalk+0x30>
100055da:	0020      	movs	r0, r4
100055dc:	47c0      	blx	r8
100055de:	4306      	orrs	r6, r0
100055e0:	3468      	adds	r4, #104	; 0x68
100055e2:	3d01      	subs	r5, #1
100055e4:	d2f2      	bcs.n	100055cc <_fwalk+0x1c>
100055e6:	683f      	ldr	r7, [r7, #0]
100055e8:	2f00      	cmp	r7, #0
100055ea:	d1eb      	bne.n	100055c4 <_fwalk+0x14>
100055ec:	0030      	movs	r0, r6
100055ee:	bc04      	pop	{r2}
100055f0:	4690      	mov	r8, r2
100055f2:	bdf0      	pop	{r4, r5, r6, r7, pc}

100055f4 <_fwalk_reent>:
100055f4:	b5f8      	push	{r3, r4, r5, r6, r7, lr}
100055f6:	4647      	mov	r7, r8
100055f8:	46ce      	mov	lr, r9
100055fa:	b580      	push	{r7, lr}
100055fc:	27b8      	movs	r7, #184	; 0xb8
100055fe:	4680      	mov	r8, r0
10005600:	00bf      	lsls	r7, r7, #2
10005602:	4447      	add	r7, r8
10005604:	4689      	mov	r9, r1
10005606:	2600      	movs	r6, #0
10005608:	2f00      	cmp	r7, #0
1000560a:	d014      	beq.n	10005636 <_fwalk_reent+0x42>
1000560c:	687b      	ldr	r3, [r7, #4]
1000560e:	68bc      	ldr	r4, [r7, #8]
10005610:	1e5d      	subs	r5, r3, #1
10005612:	d40d      	bmi.n	10005630 <_fwalk_reent+0x3c>
10005614:	89a3      	ldrh	r3, [r4, #12]
10005616:	2b01      	cmp	r3, #1
10005618:	d907      	bls.n	1000562a <_fwalk_reent+0x36>
1000561a:	220e      	movs	r2, #14
1000561c:	5ea3      	ldrsh	r3, [r4, r2]
1000561e:	3301      	adds	r3, #1
10005620:	d003      	beq.n	1000562a <_fwalk_reent+0x36>
10005622:	0021      	movs	r1, r4
10005624:	4640      	mov	r0, r8
10005626:	47c8      	blx	r9
10005628:	4306      	orrs	r6, r0
1000562a:	3468      	adds	r4, #104	; 0x68
1000562c:	3d01      	subs	r5, #1
1000562e:	d2f1      	bcs.n	10005614 <_fwalk_reent+0x20>
10005630:	683f      	ldr	r7, [r7, #0]
10005632:	2f00      	cmp	r7, #0
10005634:	d1ea      	bne.n	1000560c <_fwalk_reent+0x18>
10005636:	0030      	movs	r0, r6
10005638:	bc0c      	pop	{r2, r3}
1000563a:	4690      	mov	r8, r2
1000563c:	4699      	mov	r9, r3
1000563e:	bdf8      	pop	{r3, r4, r5, r6, r7, pc}

10005640 <__swhatbuf_r>:
10005640:	b570      	push	{r4, r5, r6, lr}
10005642:	000c      	movs	r4, r1
10005644:	001e      	movs	r6, r3
10005646:	230e      	movs	r3, #14
10005648:	5ec9      	ldrsh	r1, [r1, r3]
1000564a:	b090      	sub	sp, #64	; 0x40
1000564c:	0015      	movs	r5, r2
1000564e:	2900      	cmp	r1, #0
10005650:	db15      	blt.n	1000567e <__swhatbuf_r+0x3e>
10005652:	aa01      	add	r2, sp, #4
10005654:	f000 f92e 	bl	100058b4 <_fstat_r>
10005658:	2800      	cmp	r0, #0
1000565a:	db10      	blt.n	1000567e <__swhatbuf_r+0x3e>
1000565c:	22f0      	movs	r2, #240	; 0xf0
1000565e:	9b02      	ldr	r3, [sp, #8]
10005660:	0212      	lsls	r2, r2, #8
10005662:	4013      	ands	r3, r2
10005664:	4a0d      	ldr	r2, [pc, #52]	; (1000569c <__swhatbuf_r+0x5c>)
10005666:	2080      	movs	r0, #128	; 0x80
10005668:	4694      	mov	ip, r2
1000566a:	4463      	add	r3, ip
1000566c:	425a      	negs	r2, r3
1000566e:	4153      	adcs	r3, r2
10005670:	6033      	str	r3, [r6, #0]
10005672:	2380      	movs	r3, #128	; 0x80
10005674:	00db      	lsls	r3, r3, #3
10005676:	602b      	str	r3, [r5, #0]
10005678:	0100      	lsls	r0, r0, #4
1000567a:	b010      	add	sp, #64	; 0x40
1000567c:	bd70      	pop	{r4, r5, r6, pc}
1000567e:	2300      	movs	r3, #0
10005680:	6033      	str	r3, [r6, #0]
10005682:	89a3      	ldrh	r3, [r4, #12]
10005684:	061b      	lsls	r3, r3, #24
10005686:	d503      	bpl.n	10005690 <__swhatbuf_r+0x50>
10005688:	2340      	movs	r3, #64	; 0x40
1000568a:	2000      	movs	r0, #0
1000568c:	602b      	str	r3, [r5, #0]
1000568e:	e7f4      	b.n	1000567a <__swhatbuf_r+0x3a>
10005690:	2380      	movs	r3, #128	; 0x80
10005692:	00db      	lsls	r3, r3, #3
10005694:	602b      	str	r3, [r5, #0]
10005696:	2000      	movs	r0, #0
10005698:	e7ef      	b.n	1000567a <__swhatbuf_r+0x3a>
1000569a:	46c0      	nop			; (mov r8, r8)
1000569c:	ffffe000 	.word	0xffffe000

100056a0 <__smakebuf_r>:
100056a0:	b570      	push	{r4, r5, r6, lr}
100056a2:	898b      	ldrh	r3, [r1, #12]
100056a4:	b082      	sub	sp, #8
100056a6:	0005      	movs	r5, r0
100056a8:	000c      	movs	r4, r1
100056aa:	079b      	lsls	r3, r3, #30
100056ac:	d507      	bpl.n	100056be <__smakebuf_r+0x1e>
100056ae:	0023      	movs	r3, r4
100056b0:	3343      	adds	r3, #67	; 0x43
100056b2:	6023      	str	r3, [r4, #0]
100056b4:	6123      	str	r3, [r4, #16]
100056b6:	2301      	movs	r3, #1
100056b8:	6163      	str	r3, [r4, #20]
100056ba:	b002      	add	sp, #8
100056bc:	bd70      	pop	{r4, r5, r6, pc}
100056be:	ab01      	add	r3, sp, #4
100056c0:	466a      	mov	r2, sp
100056c2:	f7ff ffbd 	bl	10005640 <__swhatbuf_r>
100056c6:	9900      	ldr	r1, [sp, #0]
100056c8:	0006      	movs	r6, r0
100056ca:	0028      	movs	r0, r5
100056cc:	f7ff f892 	bl	100047f4 <_malloc_r>
100056d0:	2800      	cmp	r0, #0
100056d2:	d01c      	beq.n	1000570e <__smakebuf_r+0x6e>
100056d4:	2280      	movs	r2, #128	; 0x80
100056d6:	4b13      	ldr	r3, [pc, #76]	; (10005724 <__smakebuf_r+0x84>)
100056d8:	63eb      	str	r3, [r5, #60]	; 0x3c
100056da:	89a3      	ldrh	r3, [r4, #12]
100056dc:	6020      	str	r0, [r4, #0]
100056de:	4313      	orrs	r3, r2
100056e0:	9a00      	ldr	r2, [sp, #0]
100056e2:	b21b      	sxth	r3, r3
100056e4:	6162      	str	r2, [r4, #20]
100056e6:	9a01      	ldr	r2, [sp, #4]
100056e8:	81a3      	strh	r3, [r4, #12]
100056ea:	6120      	str	r0, [r4, #16]
100056ec:	2a00      	cmp	r2, #0
100056ee:	d102      	bne.n	100056f6 <__smakebuf_r+0x56>
100056f0:	4333      	orrs	r3, r6
100056f2:	81a3      	strh	r3, [r4, #12]
100056f4:	e7e1      	b.n	100056ba <__smakebuf_r+0x1a>
100056f6:	230e      	movs	r3, #14
100056f8:	5ee1      	ldrsh	r1, [r4, r3]
100056fa:	0028      	movs	r0, r5
100056fc:	f000 f8ee 	bl	100058dc <_isatty_r>
10005700:	2800      	cmp	r0, #0
10005702:	d00c      	beq.n	1000571e <__smakebuf_r+0x7e>
10005704:	2201      	movs	r2, #1
10005706:	89a3      	ldrh	r3, [r4, #12]
10005708:	4313      	orrs	r3, r2
1000570a:	b21b      	sxth	r3, r3
1000570c:	e7f0      	b.n	100056f0 <__smakebuf_r+0x50>
1000570e:	220c      	movs	r2, #12
10005710:	5ea3      	ldrsh	r3, [r4, r2]
10005712:	059a      	lsls	r2, r3, #22
10005714:	d4d1      	bmi.n	100056ba <__smakebuf_r+0x1a>
10005716:	2202      	movs	r2, #2
10005718:	4313      	orrs	r3, r2
1000571a:	81a3      	strh	r3, [r4, #12]
1000571c:	e7c7      	b.n	100056ae <__smakebuf_r+0xe>
1000571e:	220c      	movs	r2, #12
10005720:	5ea3      	ldrsh	r3, [r4, r2]
10005722:	e7e5      	b.n	100056f0 <__smakebuf_r+0x50>
10005724:	1000512d 	.word	0x1000512d

10005728 <__sread>:
10005728:	b570      	push	{r4, r5, r6, lr}
1000572a:	000c      	movs	r4, r1
1000572c:	250e      	movs	r5, #14
1000572e:	5f49      	ldrsh	r1, [r1, r5]
10005730:	f000 f8fa 	bl	10005928 <_read_r>
10005734:	2800      	cmp	r0, #0
10005736:	db03      	blt.n	10005740 <__sread+0x18>
10005738:	6d23      	ldr	r3, [r4, #80]	; 0x50
1000573a:	181b      	adds	r3, r3, r0
1000573c:	6523      	str	r3, [r4, #80]	; 0x50
1000573e:	bd70      	pop	{r4, r5, r6, pc}
10005740:	89a3      	ldrh	r3, [r4, #12]
10005742:	4a02      	ldr	r2, [pc, #8]	; (1000574c <__sread+0x24>)
10005744:	4013      	ands	r3, r2
10005746:	81a3      	strh	r3, [r4, #12]
10005748:	e7f9      	b.n	1000573e <__sread+0x16>
1000574a:	46c0      	nop			; (mov r8, r8)
1000574c:	ffffefff 	.word	0xffffefff

10005750 <__seofread>:
10005750:	2000      	movs	r0, #0
10005752:	4770      	bx	lr

10005754 <__swrite>:
10005754:	b5f8      	push	{r3, r4, r5, r6, r7, lr}
10005756:	0016      	movs	r6, r2
10005758:	001f      	movs	r7, r3
1000575a:	220c      	movs	r2, #12
1000575c:	5e8b      	ldrsh	r3, [r1, r2]
1000575e:	0005      	movs	r5, r0
10005760:	000c      	movs	r4, r1
10005762:	05da      	lsls	r2, r3, #23
10005764:	d507      	bpl.n	10005776 <__swrite+0x22>
10005766:	230e      	movs	r3, #14
10005768:	5ec9      	ldrsh	r1, [r1, r3]
1000576a:	2200      	movs	r2, #0
1000576c:	2302      	movs	r3, #2
1000576e:	f000 f8c7 	bl	10005900 <_lseek_r>
10005772:	220c      	movs	r2, #12
10005774:	5ea3      	ldrsh	r3, [r4, r2]
10005776:	4a05      	ldr	r2, [pc, #20]	; (1000578c <__swrite+0x38>)
10005778:	0028      	movs	r0, r5
1000577a:	4013      	ands	r3, r2
1000577c:	81a3      	strh	r3, [r4, #12]
1000577e:	0032      	movs	r2, r6
10005780:	230e      	movs	r3, #14
10005782:	5ee1      	ldrsh	r1, [r4, r3]
10005784:	003b      	movs	r3, r7
10005786:	f000 f81f 	bl	100057c8 <_write_r>
1000578a:	bdf8      	pop	{r3, r4, r5, r6, r7, pc}
1000578c:	ffffefff 	.word	0xffffefff

10005790 <__sseek>:
10005790:	b570      	push	{r4, r5, r6, lr}
10005792:	000c      	movs	r4, r1
10005794:	250e      	movs	r5, #14
10005796:	5f49      	ldrsh	r1, [r1, r5]
10005798:	f000 f8b2 	bl	10005900 <_lseek_r>
1000579c:	1c43      	adds	r3, r0, #1
1000579e:	d006      	beq.n	100057ae <__sseek+0x1e>
100057a0:	2380      	movs	r3, #128	; 0x80
100057a2:	89a2      	ldrh	r2, [r4, #12]
100057a4:	015b      	lsls	r3, r3, #5
100057a6:	4313      	orrs	r3, r2
100057a8:	81a3      	strh	r3, [r4, #12]
100057aa:	6520      	str	r0, [r4, #80]	; 0x50
100057ac:	bd70      	pop	{r4, r5, r6, pc}
100057ae:	89a3      	ldrh	r3, [r4, #12]
100057b0:	4a01      	ldr	r2, [pc, #4]	; (100057b8 <__sseek+0x28>)
100057b2:	4013      	ands	r3, r2
100057b4:	81a3      	strh	r3, [r4, #12]
100057b6:	e7f9      	b.n	100057ac <__sseek+0x1c>
100057b8:	ffffefff 	.word	0xffffefff

100057bc <__sclose>:
100057bc:	b510      	push	{r4, lr}
100057be:	230e      	movs	r3, #14
100057c0:	5ec9      	ldrsh	r1, [r1, r3]
100057c2:	f000 f815 	bl	100057f0 <_close_r>
100057c6:	bd10      	pop	{r4, pc}

100057c8 <_write_r>:
100057c8:	b570      	push	{r4, r5, r6, lr}
100057ca:	0005      	movs	r5, r0
100057cc:	0008      	movs	r0, r1
100057ce:	0011      	movs	r1, r2
100057d0:	2200      	movs	r2, #0
100057d2:	4c06      	ldr	r4, [pc, #24]	; (100057ec <_write_r+0x24>)
100057d4:	6022      	str	r2, [r4, #0]
100057d6:	001a      	movs	r2, r3
100057d8:	f7fc fde4 	bl	100023a4 <_write>
100057dc:	1c43      	adds	r3, r0, #1
100057de:	d000      	beq.n	100057e2 <_write_r+0x1a>
100057e0:	bd70      	pop	{r4, r5, r6, pc}
100057e2:	6823      	ldr	r3, [r4, #0]
100057e4:	2b00      	cmp	r3, #0
100057e6:	d0fb      	beq.n	100057e0 <_write_r+0x18>
100057e8:	602b      	str	r3, [r5, #0]
100057ea:	e7f9      	b.n	100057e0 <_write_r+0x18>
100057ec:	20001908 	.word	0x20001908

100057f0 <_close_r>:
100057f0:	2300      	movs	r3, #0
100057f2:	b570      	push	{r4, r5, r6, lr}
100057f4:	4c06      	ldr	r4, [pc, #24]	; (10005810 <_close_r+0x20>)
100057f6:	0005      	movs	r5, r0
100057f8:	0008      	movs	r0, r1
100057fa:	6023      	str	r3, [r4, #0]
100057fc:	f000 f8a8 	bl	10005950 <_close>
10005800:	1c43      	adds	r3, r0, #1
10005802:	d000      	beq.n	10005806 <_close_r+0x16>
10005804:	bd70      	pop	{r4, r5, r6, pc}
10005806:	6823      	ldr	r3, [r4, #0]
10005808:	2b00      	cmp	r3, #0
1000580a:	d0fb      	beq.n	10005804 <_close_r+0x14>
1000580c:	602b      	str	r3, [r5, #0]
1000580e:	e7f9      	b.n	10005804 <_close_r+0x14>
10005810:	20001908 	.word	0x20001908

10005814 <_fclose_r>:
10005814:	b570      	push	{r4, r5, r6, lr}
10005816:	0005      	movs	r5, r0
10005818:	1e0c      	subs	r4, r1, #0
1000581a:	d008      	beq.n	1000582e <_fclose_r+0x1a>
1000581c:	2800      	cmp	r0, #0
1000581e:	d002      	beq.n	10005826 <_fclose_r+0x12>
10005820:	6b83      	ldr	r3, [r0, #56]	; 0x38
10005822:	2b00      	cmp	r3, #0
10005824:	d031      	beq.n	1000588a <_fclose_r+0x76>
10005826:	220c      	movs	r2, #12
10005828:	5ea3      	ldrsh	r3, [r4, r2]
1000582a:	2b00      	cmp	r3, #0
1000582c:	d102      	bne.n	10005834 <_fclose_r+0x20>
1000582e:	2600      	movs	r6, #0
10005830:	0030      	movs	r0, r6
10005832:	bd70      	pop	{r4, r5, r6, pc}
10005834:	0021      	movs	r1, r4
10005836:	0028      	movs	r0, r5
10005838:	f7ff fba4 	bl	10004f84 <__sflush_r>
1000583c:	6ae3      	ldr	r3, [r4, #44]	; 0x2c
1000583e:	0006      	movs	r6, r0
10005840:	2b00      	cmp	r3, #0
10005842:	d004      	beq.n	1000584e <_fclose_r+0x3a>
10005844:	69e1      	ldr	r1, [r4, #28]
10005846:	0028      	movs	r0, r5
10005848:	4798      	blx	r3
1000584a:	2800      	cmp	r0, #0
1000584c:	db20      	blt.n	10005890 <_fclose_r+0x7c>
1000584e:	89a3      	ldrh	r3, [r4, #12]
10005850:	061b      	lsls	r3, r3, #24
10005852:	d420      	bmi.n	10005896 <_fclose_r+0x82>
10005854:	6b21      	ldr	r1, [r4, #48]	; 0x30
10005856:	2900      	cmp	r1, #0
10005858:	d008      	beq.n	1000586c <_fclose_r+0x58>
1000585a:	0023      	movs	r3, r4
1000585c:	3340      	adds	r3, #64	; 0x40
1000585e:	4299      	cmp	r1, r3
10005860:	d002      	beq.n	10005868 <_fclose_r+0x54>
10005862:	0028      	movs	r0, r5
10005864:	f7ff fdc6 	bl	100053f4 <_free_r>
10005868:	2300      	movs	r3, #0
1000586a:	6323      	str	r3, [r4, #48]	; 0x30
1000586c:	6c61      	ldr	r1, [r4, #68]	; 0x44
1000586e:	2900      	cmp	r1, #0
10005870:	d004      	beq.n	1000587c <_fclose_r+0x68>
10005872:	0028      	movs	r0, r5
10005874:	f7ff fdbe 	bl	100053f4 <_free_r>
10005878:	2300      	movs	r3, #0
1000587a:	6463      	str	r3, [r4, #68]	; 0x44
1000587c:	f7ff fd4a 	bl	10005314 <__sfp_lock_acquire>
10005880:	2300      	movs	r3, #0
10005882:	81a3      	strh	r3, [r4, #12]
10005884:	f7ff fd48 	bl	10005318 <__sfp_lock_release>
10005888:	e7d2      	b.n	10005830 <_fclose_r+0x1c>
1000588a:	f7ff fd3b 	bl	10005304 <__sinit>
1000588e:	e7ca      	b.n	10005826 <_fclose_r+0x12>
10005890:	2601      	movs	r6, #1
10005892:	4276      	negs	r6, r6
10005894:	e7db      	b.n	1000584e <_fclose_r+0x3a>
10005896:	6921      	ldr	r1, [r4, #16]
10005898:	0028      	movs	r0, r5
1000589a:	f7ff fdab 	bl	100053f4 <_free_r>
1000589e:	e7d9      	b.n	10005854 <_fclose_r+0x40>

100058a0 <fclose>:
100058a0:	b510      	push	{r4, lr}
100058a2:	4b03      	ldr	r3, [pc, #12]	; (100058b0 <fclose+0x10>)
100058a4:	0001      	movs	r1, r0
100058a6:	6818      	ldr	r0, [r3, #0]
100058a8:	f7ff ffb4 	bl	10005814 <_fclose_r>
100058ac:	bd10      	pop	{r4, pc}
100058ae:	46c0      	nop			; (mov r8, r8)
100058b0:	200002f0 	.word	0x200002f0

100058b4 <_fstat_r>:
100058b4:	2300      	movs	r3, #0
100058b6:	b570      	push	{r4, r5, r6, lr}
100058b8:	4c07      	ldr	r4, [pc, #28]	; (100058d8 <_fstat_r+0x24>)
100058ba:	0005      	movs	r5, r0
100058bc:	0008      	movs	r0, r1
100058be:	0011      	movs	r1, r2
100058c0:	6023      	str	r3, [r4, #0]
100058c2:	f000 f84d 	bl	10005960 <_fstat>
100058c6:	1c43      	adds	r3, r0, #1
100058c8:	d000      	beq.n	100058cc <_fstat_r+0x18>
100058ca:	bd70      	pop	{r4, r5, r6, pc}
100058cc:	6823      	ldr	r3, [r4, #0]
100058ce:	2b00      	cmp	r3, #0
100058d0:	d0fb      	beq.n	100058ca <_fstat_r+0x16>
100058d2:	602b      	str	r3, [r5, #0]
100058d4:	e7f9      	b.n	100058ca <_fstat_r+0x16>
100058d6:	46c0      	nop			; (mov r8, r8)
100058d8:	20001908 	.word	0x20001908

100058dc <_isatty_r>:
100058dc:	2300      	movs	r3, #0
100058de:	b570      	push	{r4, r5, r6, lr}
100058e0:	4c06      	ldr	r4, [pc, #24]	; (100058fc <_isatty_r+0x20>)
100058e2:	0005      	movs	r5, r0
100058e4:	0008      	movs	r0, r1
100058e6:	6023      	str	r3, [r4, #0]
100058e8:	f000 f842 	bl	10005970 <_isatty>
100058ec:	1c43      	adds	r3, r0, #1
100058ee:	d000      	beq.n	100058f2 <_isatty_r+0x16>
100058f0:	bd70      	pop	{r4, r5, r6, pc}
100058f2:	6823      	ldr	r3, [r4, #0]
100058f4:	2b00      	cmp	r3, #0
100058f6:	d0fb      	beq.n	100058f0 <_isatty_r+0x14>
100058f8:	602b      	str	r3, [r5, #0]
100058fa:	e7f9      	b.n	100058f0 <_isatty_r+0x14>
100058fc:	20001908 	.word	0x20001908

10005900 <_lseek_r>:
10005900:	b570      	push	{r4, r5, r6, lr}
10005902:	0005      	movs	r5, r0
10005904:	0008      	movs	r0, r1
10005906:	0011      	movs	r1, r2
10005908:	2200      	movs	r2, #0
1000590a:	4c06      	ldr	r4, [pc, #24]	; (10005924 <_lseek_r+0x24>)
1000590c:	6022      	str	r2, [r4, #0]
1000590e:	001a      	movs	r2, r3
10005910:	f000 f836 	bl	10005980 <_lseek>
10005914:	1c43      	adds	r3, r0, #1
10005916:	d000      	beq.n	1000591a <_lseek_r+0x1a>
10005918:	bd70      	pop	{r4, r5, r6, pc}
1000591a:	6823      	ldr	r3, [r4, #0]
1000591c:	2b00      	cmp	r3, #0
1000591e:	d0fb      	beq.n	10005918 <_lseek_r+0x18>
10005920:	602b      	str	r3, [r5, #0]
10005922:	e7f9      	b.n	10005918 <_lseek_r+0x18>
10005924:	20001908 	.word	0x20001908

10005928 <_read_r>:
10005928:	b570      	push	{r4, r5, r6, lr}
1000592a:	0005      	movs	r5, r0
1000592c:	0008      	movs	r0, r1
1000592e:	0011      	movs	r1, r2
10005930:	2200      	movs	r2, #0
10005932:	4c06      	ldr	r4, [pc, #24]	; (1000594c <_read_r+0x24>)
10005934:	6022      	str	r2, [r4, #0]
10005936:	001a      	movs	r2, r3
10005938:	f7fc fcf2 	bl	10002320 <_read>
1000593c:	1c43      	adds	r3, r0, #1
1000593e:	d000      	beq.n	10005942 <_read_r+0x1a>
10005940:	bd70      	pop	{r4, r5, r6, pc}
10005942:	6823      	ldr	r3, [r4, #0]
10005944:	2b00      	cmp	r3, #0
10005946:	d0fb      	beq.n	10005940 <_read_r+0x18>
10005948:	602b      	str	r3, [r5, #0]
1000594a:	e7f9      	b.n	10005940 <_read_r+0x18>
1000594c:	20001908 	.word	0x20001908

10005950 <_close>:
10005950:	2258      	movs	r2, #88	; 0x58
10005952:	2001      	movs	r0, #1
10005954:	4b01      	ldr	r3, [pc, #4]	; (1000595c <_close+0xc>)
10005956:	4240      	negs	r0, r0
10005958:	601a      	str	r2, [r3, #0]
1000595a:	4770      	bx	lr
1000595c:	20001908 	.word	0x20001908

10005960 <_fstat>:
10005960:	2258      	movs	r2, #88	; 0x58
10005962:	2001      	movs	r0, #1
10005964:	4b01      	ldr	r3, [pc, #4]	; (1000596c <_fstat+0xc>)
10005966:	4240      	negs	r0, r0
10005968:	601a      	str	r2, [r3, #0]
1000596a:	4770      	bx	lr
1000596c:	20001908 	.word	0x20001908

10005970 <_isatty>:
10005970:	2258      	movs	r2, #88	; 0x58
10005972:	4b02      	ldr	r3, [pc, #8]	; (1000597c <_isatty+0xc>)
10005974:	2000      	movs	r0, #0
10005976:	601a      	str	r2, [r3, #0]
10005978:	4770      	bx	lr
1000597a:	46c0      	nop			; (mov r8, r8)
1000597c:	20001908 	.word	0x20001908

10005980 <_lseek>:
10005980:	2258      	movs	r2, #88	; 0x58
10005982:	2001      	movs	r0, #1
10005984:	4b01      	ldr	r3, [pc, #4]	; (1000598c <_lseek+0xc>)
10005986:	4240      	negs	r0, r0
10005988:	601a      	str	r2, [r3, #0]
1000598a:	4770      	bx	lr
1000598c:	20001908 	.word	0x20001908

10005990 <_fini>:
10005990:	b5f8      	push	{r3, r4, r5, r6, r7, lr}
10005992:	46c0      	nop			; (mov r8, r8)
10005994:	0000      	movs	r0, r0
	...

10005998 <__mutex_exit_veneer>:
10005998:	b401      	push	{r0}
1000599a:	4802      	ldr	r0, [pc, #8]	; (100059a4 <__mutex_exit_veneer+0xc>)
1000599c:	4684      	mov	ip, r0
1000599e:	bc01      	pop	{r0}
100059a0:	4760      	bx	ip
100059a2:	bf00      	nop
100059a4:	200001e5 	.word	0x200001e5

100059a8 <____aeabi_idiv0_veneer>:
100059a8:	b401      	push	{r0}
100059aa:	4802      	ldr	r0, [pc, #8]	; (100059b4 <____aeabi_idiv0_veneer+0xc>)
100059ac:	4684      	mov	ip, r0
100059ae:	bc01      	pop	{r0}
100059b0:	4760      	bx	ip
100059b2:	bf00      	nop
100059b4:	20000209 	.word	0x20000209

100059b8 <__mutex_try_enter_veneer>:
100059b8:	b401      	push	{r0}
100059ba:	4802      	ldr	r0, [pc, #8]	; (100059c4 <__mutex_try_enter_veneer+0xc>)
100059bc:	4684      	mov	ip, r0
100059be:	bc01      	pop	{r0}
100059c0:	4760      	bx	ip
100059c2:	bf00      	nop
100059c4:	20000109 	.word	0x20000109

100059c8 <__mutex_enter_timeout_ms_veneer>:
100059c8:	b401      	push	{r0}
100059ca:	4802      	ldr	r0, [pc, #8]	; (100059d4 <__mutex_enter_timeout_ms_veneer+0xc>)
100059cc:	4684      	mov	ip, r0
100059ce:	bc01      	pop	{r0}
100059d0:	4760      	bx	ip
100059d2:	bf00      	nop
100059d4:	20000151 	.word	0x20000151

100059d8 <__mutex_enter_blocking_veneer>:
100059d8:	b401      	push	{r0}
100059da:	4802      	ldr	r0, [pc, #8]	; (100059e4 <__mutex_enter_blocking_veneer+0xc>)
100059dc:	4684      	mov	ip, r0
100059de:	bc01      	pop	{r0}
100059e0:	4760      	bx	ip
100059e2:	bf00      	nop
100059e4:	200000c1 	.word	0x200000c1

Disassembly of section .data:

200000c0 <mutex_enter_blocking>:
200000c0:	b530      	push	{r4, r5, lr}
200000c2:	6803      	ldr	r3, [r0, #0]
200000c4:	7904      	ldrb	r4, [r0, #4]
200000c6:	2500      	movs	r5, #0
200000c8:	f3ef 8110 	mrs	r1, PRIMASK
200000cc:	b672      	cpsid	i
200000ce:	681a      	ldr	r2, [r3, #0]
200000d0:	2a00      	cmp	r2, #0
200000d2:	d0fc      	beq.n	200000ce <mutex_enter_blocking+0xe>
200000d4:	f3bf 8f5f 	dmb	sy
200000d8:	2c00      	cmp	r4, #0
200000da:	d009      	beq.n	200000f0 <mutex_enter_blocking+0x30>
200000dc:	f3bf 8f5f 	dmb	sy
200000e0:	601d      	str	r5, [r3, #0]
200000e2:	f381 8810 	msr	PRIMASK, r1
200000e6:	bf20      	wfe
200000e8:	f3ef 8110 	mrs	r1, PRIMASK
200000ec:	b672      	cpsid	i
200000ee:	e7ee      	b.n	200000ce <mutex_enter_blocking+0xe>
200000f0:	2201      	movs	r2, #1
200000f2:	7102      	strb	r2, [r0, #4]
200000f4:	22d0      	movs	r2, #208	; 0xd0
200000f6:	0612      	lsls	r2, r2, #24
200000f8:	6812      	ldr	r2, [r2, #0]
200000fa:	7142      	strb	r2, [r0, #5]
200000fc:	f3bf 8f5f 	dmb	sy
20000100:	601c      	str	r4, [r3, #0]
20000102:	f381 8810 	msr	PRIMASK, r1
20000106:	bd30      	pop	{r4, r5, pc}

20000108 <mutex_try_enter>:
20000108:	b510      	push	{r4, lr}
2000010a:	6803      	ldr	r3, [r0, #0]
2000010c:	f3ef 8410 	mrs	r4, PRIMASK
20000110:	b672      	cpsid	i
20000112:	681a      	ldr	r2, [r3, #0]
20000114:	2a00      	cmp	r2, #0
20000116:	d0fc      	beq.n	20000112 <mutex_try_enter+0xa>
20000118:	f3bf 8f5f 	dmb	sy
2000011c:	7902      	ldrb	r2, [r0, #4]
2000011e:	2a00      	cmp	r2, #0
20000120:	d00c      	beq.n	2000013c <mutex_try_enter+0x34>
20000122:	2900      	cmp	r1, #0
20000124:	d012      	beq.n	2000014c <mutex_try_enter+0x44>
20000126:	2205      	movs	r2, #5
20000128:	5682      	ldrsb	r2, [r0, r2]
2000012a:	2000      	movs	r0, #0
2000012c:	600a      	str	r2, [r1, #0]
2000012e:	f3bf 8f5f 	dmb	sy
20000132:	2200      	movs	r2, #0
20000134:	601a      	str	r2, [r3, #0]
20000136:	f384 8810 	msr	PRIMASK, r4
2000013a:	bd10      	pop	{r4, pc}
2000013c:	3201      	adds	r2, #1
2000013e:	7102      	strb	r2, [r0, #4]
20000140:	22d0      	movs	r2, #208	; 0xd0
20000142:	0612      	lsls	r2, r2, #24
20000144:	6812      	ldr	r2, [r2, #0]
20000146:	7142      	strb	r2, [r0, #5]
20000148:	2001      	movs	r0, #1
2000014a:	e7f0      	b.n	2000012e <mutex_try_enter+0x26>
2000014c:	2000      	movs	r0, #0
2000014e:	e7ee      	b.n	2000012e <mutex_try_enter+0x26>

20000150 <mutex_enter_timeout_ms>:
20000150:	b5f0      	push	{r4, r5, r6, r7, lr}
20000152:	b083      	sub	sp, #12
20000154:	000c      	movs	r4, r1
20000156:	0007      	movs	r7, r0
20000158:	f000 f862 	bl	20000220 <__time_us_64_veneer>
2000015c:	22fa      	movs	r2, #250	; 0xfa
2000015e:	0005      	movs	r5, r0
20000160:	000e      	movs	r6, r1
20000162:	0020      	movs	r0, r4
20000164:	0092      	lsls	r2, r2, #2
20000166:	2300      	movs	r3, #0
20000168:	2100      	movs	r1, #0
2000016a:	9500      	str	r5, [sp, #0]
2000016c:	9601      	str	r6, [sp, #4]
2000016e:	002c      	movs	r4, r5
20000170:	f000 f85e 	bl	20000230 <____wrap___aeabi_lmul_veneer>
20000174:	0035      	movs	r5, r6
20000176:	1824      	adds	r4, r4, r0
20000178:	414d      	adcs	r5, r1
2000017a:	42ae      	cmp	r6, r5
2000017c:	d92a      	bls.n	200001d4 <mutex_enter_timeout_ms+0x84>
2000017e:	2401      	movs	r4, #1
20000180:	4264      	negs	r4, r4
20000182:	17e5      	asrs	r5, r4, #31
20000184:	2600      	movs	r6, #0
20000186:	683b      	ldr	r3, [r7, #0]
20000188:	f3ef 8110 	mrs	r1, PRIMASK
2000018c:	b672      	cpsid	i
2000018e:	681a      	ldr	r2, [r3, #0]
20000190:	2a00      	cmp	r2, #0
20000192:	d0fc      	beq.n	2000018e <mutex_enter_timeout_ms+0x3e>
20000194:	f3bf 8f5f 	dmb	sy
20000198:	793a      	ldrb	r2, [r7, #4]
2000019a:	2a00      	cmp	r2, #0
2000019c:	d00c      	beq.n	200001b8 <mutex_enter_timeout_ms+0x68>
2000019e:	f3bf 8f5f 	dmb	sy
200001a2:	601e      	str	r6, [r3, #0]
200001a4:	f381 8810 	msr	PRIMASK, r1
200001a8:	0020      	movs	r0, r4
200001aa:	0029      	movs	r1, r5
200001ac:	f000 f830 	bl	20000210 <__best_effort_wfe_or_timeout_veneer>
200001b0:	2800      	cmp	r0, #0
200001b2:	d0e8      	beq.n	20000186 <mutex_enter_timeout_ms+0x36>
200001b4:	2000      	movs	r0, #0
200001b6:	e00b      	b.n	200001d0 <mutex_enter_timeout_ms+0x80>
200001b8:	2001      	movs	r0, #1
200001ba:	7138      	strb	r0, [r7, #4]
200001bc:	20d0      	movs	r0, #208	; 0xd0
200001be:	0600      	lsls	r0, r0, #24
200001c0:	6800      	ldr	r0, [r0, #0]
200001c2:	7178      	strb	r0, [r7, #5]
200001c4:	f3bf 8f5f 	dmb	sy
200001c8:	601a      	str	r2, [r3, #0]
200001ca:	f381 8810 	msr	PRIMASK, r1
200001ce:	2001      	movs	r0, #1
200001d0:	b003      	add	sp, #12
200001d2:	bdf0      	pop	{r4, r5, r6, r7, pc}
200001d4:	9a00      	ldr	r2, [sp, #0]
200001d6:	9b01      	ldr	r3, [sp, #4]
200001d8:	42ab      	cmp	r3, r5
200001da:	d1d3      	bne.n	20000184 <mutex_enter_timeout_ms+0x34>
200001dc:	42a2      	cmp	r2, r4
200001de:	d8ce      	bhi.n	2000017e <mutex_enter_timeout_ms+0x2e>
200001e0:	e7d0      	b.n	20000184 <mutex_enter_timeout_ms+0x34>
200001e2:	46c0      	nop			; (mov r8, r8)

200001e4 <mutex_exit>:
200001e4:	6803      	ldr	r3, [r0, #0]
200001e6:	f3ef 8110 	mrs	r1, PRIMASK
200001ea:	b672      	cpsid	i
200001ec:	681a      	ldr	r2, [r3, #0]
200001ee:	2a00      	cmp	r2, #0
200001f0:	d0fc      	beq.n	200001ec <mutex_exit+0x8>
200001f2:	f3bf 8f5f 	dmb	sy
200001f6:	2200      	movs	r2, #0
200001f8:	7102      	strb	r2, [r0, #4]
200001fa:	bf40      	sev
200001fc:	f3bf 8f5f 	dmb	sy
20000200:	601a      	str	r2, [r3, #0]
20000202:	f381 8810 	msr	PRIMASK, r1
20000206:	4770      	bx	lr

20000208 <__aeabi_idiv0>:
20000208:	4770      	bx	lr
2000020a:	46c0      	nop			; (mov r8, r8)
2000020c:	0000      	movs	r0, r0
	...

20000210 <__best_effort_wfe_or_timeout_veneer>:
20000210:	b401      	push	{r0}
20000212:	4802      	ldr	r0, [pc, #8]	; (2000021c <__best_effort_wfe_or_timeout_veneer+0xc>)
20000214:	4684      	mov	ip, r0
20000216:	bc01      	pop	{r0}
20000218:	4760      	bx	ip
2000021a:	bf00      	nop
2000021c:	10000c69 	.word	0x10000c69

20000220 <__time_us_64_veneer>:
20000220:	b401      	push	{r0}
20000222:	4802      	ldr	r0, [pc, #8]	; (2000022c <__time_us_64_veneer+0xc>)
20000224:	4684      	mov	ip, r0
20000226:	bc01      	pop	{r0}
20000228:	4760      	bx	ip
2000022a:	bf00      	nop
2000022c:	10000f09 	.word	0x10000f09

20000230 <____wrap___aeabi_lmul_veneer>:
20000230:	b401      	push	{r0}
20000232:	4802      	ldr	r0, [pc, #8]	; (2000023c <____wrap___aeabi_lmul_veneer+0xc>)
20000234:	4684      	mov	ip, r0
20000236:	bc01      	pop	{r0}
20000238:	4760      	bx	ip
2000023a:	bf00      	nop
2000023c:	10002061 	.word	0x10002061

20000240 <striped_spin_lock_num>:
20000240:	00000010                                ....

20000244 <irq_handler_chain_slots>:
20000244:	00000000 	.word	0x00000000
20000248:	00010000 	.word	0x00010000
	...
20000254:	00020000 	.word	0x00020000
	...
20000260:	00030000 	.word	0x00030000
	...
2000026c:	00ff0000 	.word	0x00ff0000
20000270:	00000000 	.word	0x00000000

20000274 <irq_handler_chain_first_slot>:
20000274:	b500      	push	{lr}
20000276:	6848      	ldr	r0, [r1, #4]
20000278:	3101      	adds	r1, #1
2000027a:	468e      	mov	lr, r1
2000027c:	4700      	bx	r0

2000027e <irq_handler_chain_remove_tail>:
2000027e:	4670      	mov	r0, lr
20000280:	3809      	subs	r0, #9
20000282:	4901      	ldr	r1, [pc, #4]	; (20000288 <irq_handler_chain_remove_tail+0xa>)
20000284:	4788      	blx	r1
20000286:	bd00      	pop	{pc}
20000288:	10001dcd 	.word	0x10001dcd
2000028c:	00000000 	.word	0x00000000

20000290 <aeabi_bits_funcs>:
20000290:	00003350 	.word	0x00003350
20000294:	0000334c 	.word	0x0000334c
20000298:	00003354 	.word	0x00003354
2000029c:	00003352 	.word	0x00003352

200002a0 <aeabi_bits_funcs_end>:
200002a0:	0000534d 	.word	0x0000534d
200002a4:	0000434d 	.word	0x0000434d
200002a8:	00003453 	.word	0x00003453
200002ac:	00003443 	.word	0x00003443

200002b0 <aeabi_mem_funcs_end>:
200002b0:	10002529 	.word	0x10002529
200002b4:	00000000 	.word	0x00000000
200002b8:	10002491 	.word	0x10002491
200002bc:	00000000 	.word	0x00000000
200002c0:	00000100 	.word	0x00000100

200002c4 <ep_dir_string>:
200002c4:	10005c20 10005c24                        \..$\..

200002cc <_usbd_qdef>:
200002cc:	20001848 000c0010 00000000 00000000     H.. ............
	...

200002f0 <_impure_ptr>:
200002f0:	200002f8 00000000                       ... ....

200002f8 <impure_data>:
200002f8:	00000000 200005e4 2000064c 200006b4     ....... L.. ... 
	...
2000032c:	10005afc 00000000 00000000 00000000     .Z..............
	...
200003a0:	00000001 00000000 abcd330e e66d1234     .........3..4.m.
200003b0:	0005deec 0000000b 00000000 00000000     ................
	...

20000720 <__malloc_av_>:
	...
20000728:	20000720 20000720 20000728 20000728      ..  .. (.. (.. 
20000738:	20000730 20000730 20000738 20000738     0.. 0.. 8.. 8.. 
20000748:	20000740 20000740 20000748 20000748     @.. @.. H.. H.. 
20000758:	20000750 20000750 20000758 20000758     P.. P.. X.. X.. 
20000768:	20000760 20000760 20000768 20000768     `.. `.. h.. h.. 
20000778:	20000770 20000770 20000778 20000778     p.. p.. x.. x.. 
20000788:	20000780 20000780 20000788 20000788     ... ... ... ... 
20000798:	20000790 20000790 20000798 20000798     ... ... ... ... 
200007a8:	200007a0 200007a0 200007a8 200007a8     ... ... ... ... 
200007b8:	200007b0 200007b0 200007b8 200007b8     ... ... ... ... 
200007c8:	200007c0 200007c0 200007c8 200007c8     ... ... ... ... 
200007d8:	200007d0 200007d0 200007d8 200007d8     ... ... ... ... 
200007e8:	200007e0 200007e0 200007e8 200007e8     ... ... ... ... 
200007f8:	200007f0 200007f0 200007f8 200007f8     ... ... ... ... 
20000808:	20000800 20000800 20000808 20000808     ... ... ... ... 
20000818:	20000810 20000810 20000818 20000818     ... ... ... ... 
20000828:	20000820 20000820 20000828 20000828      ..  .. (.. (.. 
20000838:	20000830 20000830 20000838 20000838     0.. 0.. 8.. 8.. 
20000848:	20000840 20000840 20000848 20000848     @.. @.. H.. H.. 
20000858:	20000850 20000850 20000858 20000858     P.. P.. X.. X.. 
20000868:	20000860 20000860 20000868 20000868     `.. `.. h.. h.. 
20000878:	20000870 20000870 20000878 20000878     p.. p.. x.. x.. 
20000888:	20000880 20000880 20000888 20000888     ... ... ... ... 
20000898:	20000890 20000890 20000898 20000898     ... ... ... ... 
200008a8:	200008a0 200008a0 200008a8 200008a8     ... ... ... ... 
200008b8:	200008b0 200008b0 200008b8 200008b8     ... ... ... ... 
200008c8:	200008c0 200008c0 200008c8 200008c8     ... ... ... ... 
200008d8:	200008d0 200008d0 200008d8 200008d8     ... ... ... ... 
200008e8:	200008e0 200008e0 200008e8 200008e8     ... ... ... ... 
200008f8:	200008f0 200008f0 200008f8 200008f8     ... ... ... ... 
20000908:	20000900 20000900 20000908 20000908     ... ... ... ... 
20000918:	20000910 20000910 20000918 20000918     ... ... ... ... 
20000928:	20000920 20000920 20000928 20000928      ..  .. (.. (.. 
20000938:	20000930 20000930 20000938 20000938     0.. 0.. 8.. 8.. 
20000948:	20000940 20000940 20000948 20000948     @.. @.. H.. H.. 
20000958:	20000950 20000950 20000958 20000958     P.. P.. X.. X.. 
20000968:	20000960 20000960 20000968 20000968     `.. `.. h.. h.. 
20000978:	20000970 20000970 20000978 20000978     p.. p.. x.. x.. 
20000988:	20000980 20000980 20000988 20000988     ... ... ... ... 
20000998:	20000990 20000990 20000998 20000998     ... ... ... ... 
200009a8:	200009a0 200009a0 200009a8 200009a8     ... ... ... ... 
200009b8:	200009b0 200009b0 200009b8 200009b8     ... ... ... ... 
200009c8:	200009c0 200009c0 200009c8 200009c8     ... ... ... ... 
200009d8:	200009d0 200009d0 200009d8 200009d8     ... ... ... ... 
200009e8:	200009e0 200009e0 200009e8 200009e8     ... ... ... ... 
200009f8:	200009f0 200009f0 200009f8 200009f8     ... ... ... ... 
20000a08:	20000a00 20000a00 20000a08 20000a08     ... ... ... ... 
20000a18:	20000a10 20000a10 20000a18 20000a18     ... ... ... ... 
20000a28:	20000a20 20000a20 20000a28 20000a28      ..  .. (.. (.. 
20000a38:	20000a30 20000a30 20000a38 20000a38     0.. 0.. 8.. 8.. 
20000a48:	20000a40 20000a40 20000a48 20000a48     @.. @.. H.. H.. 
20000a58:	20000a50 20000a50 20000a58 20000a58     P.. P.. X.. X.. 
20000a68:	20000a60 20000a60 20000a68 20000a68     `.. `.. h.. h.. 
20000a78:	20000a70 20000a70 20000a78 20000a78     p.. p.. x.. x.. 
20000a88:	20000a80 20000a80 20000a88 20000a88     ... ... ... ... 
20000a98:	20000a90 20000a90 20000a98 20000a98     ... ... ... ... 
20000aa8:	20000aa0 20000aa0 20000aa8 20000aa8     ... ... ... ... 
20000ab8:	20000ab0 20000ab0 20000ab8 20000ab8     ... ... ... ... 
20000ac8:	20000ac0 20000ac0 20000ac8 20000ac8     ... ... ... ... 
20000ad8:	20000ad0 20000ad0 20000ad8 20000ad8     ... ... ... ... 
20000ae8:	20000ae0 20000ae0 20000ae8 20000ae8     ... ... ... ... 
20000af8:	20000af0 20000af0 20000af8 20000af8     ... ... ... ... 
20000b08:	20000b00 20000b00 20000b08 20000b08     ... ... ... ... 
20000b18:	20000b10 20000b10 20000b18 20000b18     ... ... ... ... 

20000b28 <__malloc_sbrk_base>:
20000b28:	ffffffff                                ....

20000b2c <__malloc_trim_threshold>:
20000b2c:	00020000                                ....

20000b30 <__mutex_array_start>:
	...

20000b38 <__mutex_array_end>:
20000b38:	10002139 	.word	0x10002139
20000b3c:	10001f21 	.word	0x10001f21
20000b40:	10001fe9 	.word	0x10001fe9
20000b44:	10002095 	.word	0x10002095

20000b48 <__frame_dummy_init_array_entry>:
20000b48:	10000351                                Q...
